(dp0
S'proteins'
p1
(lp2
VA8WRK7_CAEBR
p3
aVI1FF21_AMPQE
p4
aVF6SFJ8_ORNAN
p5
aVH2XWZ2_CIOIN
p6
aVG5BJ45_HETGA
p7
aVB7P3S5_IXOSC
p8
aVB7P3S5_IXOSC
p9
aVB7P3S5_IXOSC
p10
aVG3NKK4_GASAC
p11
aVF1SLA4_PIG
p12
aVF1NEX3_CHICK
p13
aVH0ZDV3_TAEGU
p14
aVB4KXF0_DROMO
p15
aVH2T322_TAKRU
p16
aVH0YGD2_HUMAN
p17
aVE1FV67_LOALO
p18
aVG7PC00_MACFA
p19
aVG1KDM6_ANOCA
p20
aVB4KJ36_DROMO
p21
aVE3WL16_ANODA
p22
aVC3Y4F8_BRAFL
p23
aVC3Y4F8_BRAFL
p24
aVSO1A6_RAT
p25
aVH0VF80_CAVPO
p26
aVH3IYT3_STRPU
p27
aVH3IYT3_STRPU
p28
aVH3IYT3_STRPU
p29
aVF7I0Q4_CALJA
p30
aVG1TI46_RABIT
p31
aVB7Q7F9_IXOSC
p32
aVF7FQD4_CALJA
p33
aVC3Y4U1_BRAFL
p34
aVC3Y4U1_BRAFL
p35
aVH2TWS4_TAKRU
p36
aVH0WWR0_OTOGA
p37
aVE4YN72_OIKDI
p38
aVQ3B7Q4_DANRE
p39
aVB7ZAD4_HUMAN
p40
aVD3YY31_MOUSE
p41
aVH3DF25_TETNG
p42
aVH2LWA1_ORYLA
p43
aVH2WEQ3_CAEJA
p44
aVH2WEQ3_CAEJA
p45
aVF1PII7_CANFA
p46
aVE1BC23_BOVIN
p47
aVF6X5N8_CIOIN
p48
aVQ5JAR4_HUMAN
p49
aVQ5JAR4_HUMAN
p50
aVG3R1F3_GORGO
p51
aVG3R1F3_GORGO
p52
aVF6X587_XENTR
p53
aVD2HW96_AILME
p54
aVG2HJC6_PANTR
p55
aVE0W488_PEDHC
p56
aVH2TWS2_TAKRU
p57
aVF4WZT5_ACREC
p58
aVF7C2I8_MACMU
p59
aVF6SNS4_XENTR
p60
aVC9JHU9_HUMAN
p61
aVH2ME23_ORYLA
p62
aVB0W4W5_CULQU
p63
aVB0W4W5_CULQU
p64
aVA8WJB0_CAEBR
p65
aVH2YTS1_CIOSA
p66
aVG1QU38_NOMLE
p67
aVC3YC54_BRAFL
p68
aVC3YC54_BRAFL
p69
aVC3YC54_BRAFL
p70
aVC3YC54_BRAFL
p71
aVB4GHI4_DROPE
p72
aVSO1A4_MOUSE
p73
aVQ7PI57_ANOGA
p74
aVB3RLK6_TRIAD
p75
aVA2ACT3_MOUSE
p76
aVH9GK46_ANOCA
p77
aVQ148W1_MOUSE
p78
aVE2BWD4_HARSA
p79
aVB3KUC7_HUMAN
p80
aVB4HYY3_DROSE
p81
aVB4N049_DROWI
p82
aVG3WUN1_SARHA
p83
aVG3TF40_LOXAF
p84
aVA7T5W1_NEMVE
p85
aVA7T5W1_NEMVE
p86
aVF1RN62_PIG
p87
aVH3J4I4_STRPU
p88
aVQ8K4K9_RAT
p89
aVH3IQD9_STRPU
p90
aVH3B9U6_LATCH
p91
aVSO4A1_MOUSE
p92
aVG3UKL3_LOXAF
p93
aVA7SWE4_NEMVE
p94
aVH2YEL7_CIOSA
p95
aVH2Q5K4_PANTR
p96
aVG3QGZ3_GORGO
p97
aVH3INQ6_STRPU
p98
aVH3INQ6_STRPU
p99
aVD3YXA8_MOUSE
p100
aVH2LI10_ORYLA
p101
aVG8F3I8_MACFA
p102
aVssss
p103
as.