(dp0
S'proteins'
p1
(lp2
VZDH14_HUMAN
p3
aVATS12_HUMAN
p4
aVGNT2C_HUMAN
p5
aVABCAC_HUMAN
p6
aVRISC_MOUSE
p7
aVPGAM4_HUMAN
p8
aVGNT2A_HUMAN
p9
aVCA2D4_HUMAN
p10
aVVWA2_HUMAN
p11
aVH2A3_HUMAN
p12
aVPHLB3_HUMAN
p13
aVZDHC2_HUMAN
p14
aVDIRA1_HUMAN
p15
aVDIRA2_HUMAN
p16
aVMOS_HUMAN
p17
aV1B48_HUMAN
p18
aVMOS_XENLA
p19
aVZDH15_HUMAN
p20
aVZDHC1_HUMAN
p21
aVACY3_HUMAN
p22
aVCYTS_HUMAN
p23
aVFUCO2_HUMAN
p24
aVPGFS_RAT
p25
aVDMP4_HUMAN
p26
aVMYO1B_HUMAN
p27
aVZDHC3_HUMAN
p28
aVPADI2_RAT
p29
aVPKRI1_HUMAN
p30
aVRISC_HUMAN
p31
as.