(dp0
S'proteins'
p1
(lp2
VF1RN62_PIG
p3
aVA8WRK7_CAEBR
p4
aVH3J4I4_STRPU
p5
aVQ8K4K9_RAT
p6
aVH3IQD9_STRPU
p7
aVH2XWZ2_CIOIN
p8
aVSO4A1_MOUSE
p9
aVG3UKL3_LOXAF
p10
aVD3YXA8_MOUSE
p11
aVB7P3S5_IXOSC
p12
aVG3NKK4_GASAC
p13
aVF1SLA4_PIG
p14
aVF1NEX3_CHICK
p15
aVH2Q5K4_PANTR
p16
aVH0ZDV3_TAEGU
p17
aVB4KXF0_DROMO
p18
aVH3INQ6_STRPU
p19
aVH2T322_TAKRU
p20
aVH0YGD2_HUMAN
p21
aVE1FV67_LOALO
p22
aVG7PC00_MACFA
p23
aVG5BJ45_HETGA
p24
aVH2LI10_ORYLA
p25
aVG1KDM6_ANOCA
p26
aVB4KJ36_DROMO
p27
aVA7SWE4_NEMVE
p28
aVE3WL16_ANODA
p29
aVC3Y4F8_BRAFL
p30
aVSO1A6_RAT
p31
aVH0VF80_CAVPO
p32
aVH2TWS2_TAKRU
p33
aVH3IYT3_STRPU
p34
aVG1TI46_RABIT
p35
aVB7Q7F9_IXOSC
p36
aVF7FQD4_CALJA
p37
aVC3Y4U1_BRAFL
p38
aVH2TWS4_TAKRU
p39
aVH3B9U6_LATCH
p40
aVH0WWR0_OTOGA
p41
aVE4YN72_OIKDI
p42
aVG1QU38_NOMLE
p43
aVB7ZAD4_HUMAN
p44
aVD3YY31_MOUSE
p45
aVF6SNS4_XENTR
p46
aVH3DF25_TETNG
p47
aVH2LWA1_ORYLA
p48
aVH9GK46_ANOCA
p49
aVH2WEQ3_CAEJA
p50
aVF1PII7_CANFA
p51
aVE1BC23_BOVIN
p52
aVF6X5N8_CIOIN
p53
aVQ5JAR4_HUMAN
p54
aVG3QGZ3_GORGO
p55
aVG3R1F3_GORGO
p56
aVF6X587_XENTR
p57
aVD2HW96_AILME
p58
aVE0W488_PEDHC
p59
aVI1FF21_AMPQE
p60
aVG2HJC6_PANTR
p61
aVF4WZT5_ACREC
p62
aVF7C2I8_MACMU
p63
aVSO1A4_MOUSE
p64
aVC9JHU9_HUMAN
p65
aVF6SFJ8_ORNAN
p66
aVH2ME23_ORYLA
p67
aVQ7PI57_ANOGA
p68
aVA8WJB0_CAEBR
p69
aVH2YTS1_CIOSA
p70
aVH2YEL7_CIOSA
p71
aVQ3B7Q4_DANRE
p72
aVC3YC54_BRAFL
p73
aVB4GHI4_DROPE
p74
aVF7I0Q4_CALJA
p75
aVB0W4W5_CULQU
p76
aVB3RLK6_TRIAD
p77
aVA2ACT3_MOUSE
p78
aVQ148W1_MOUSE
p79
aVE2BWD4_HARSA
p80
aVB3KUC7_HUMAN
p81
aVB4HYY3_DROSE
p82
aVG8F3I8_MACFA
p83
aVB4N049_DROWI
p84
aVG3WUN1_SARHA
p85
aVG3TF40_LOXAF
p86
aVA7T5W1_NEMVE
p87
as.