(lp0
(dp1
a(dp2
a(dp3
a(dp4
Vseq1
p5
(lp6
(lp7
c__builtin__
set
p8
((lp9
VTID_DROME
p10
atp11
Rp12
aF492.271
aF1.8267e-171
aF100.0
aa(lp13
g8
((lp14
VTID_DROME
p15
atp16
Rp17
aF492.271
aF1.8267e-171
aF100.0
aa(lp18
g8
((lp19
VD3DN23_DROME
p20
atp21
Rp22
aF491.886
aF2.29033e-171
aF100.0
aa(lp23
g8
((lp24
VD6W4V2_DROME
p25
atp26
Rp27
aF494.197
aF2.70111e-171
aF100.0
aa(lp28
g8
((lp29
VQ7KVH7_DROME
p30
atp31
Rp32
aF493.812
aF3.95543e-171
aF100.0
aa(lp33
g8
((lp34
VTID_DROME
p35
atp36
Rp37
aF493.812
aF5.83463e-171
aF100.0
aa(lp38
g8
((lp39
VTID_DROME
p40
atp41
Rp42
aF493.812
aF5.83463e-171
aF100.0
aa(lp43
g8
((lp44
VT2GGE7_DROME
p45
atp46
Rp47
aF492.271
aF1.82616e-170
aF100.0
aa(lp48
g8
((lp49
VTID_DROME
p50
atp51
Rp52
aF488.034
aF1.09989e-168
aF99.0
aa(lp53
g8
((lp54
VTID_DROME
p55
atp56
Rp57
aF484.952
aF1.55199e-167
aF99.0
aa(lp58
g8
((lp59
VB4QAY0_DROSI
p60
atp61
Rp62
aF484.182
aF2.23545e-167
aF98.0
aa(lp63
g8
((lp64
VB4P9R9_DROYA
p65
atp66
Rp67
aF478.404
aF3.82664e-165
aF97.0
aa(lp68
g8
((lp69
VB3NPR2_DROER
p70
atp71
Rp72
aF473.781
aF2.53539e-163
aF96.0
aa(lp73
g8
((lp74
VB4I8S2_DROSE
p75
atp76
Rp77
aF331.643
aF6.54517e-108
aF78.0
aa(lp78
g8
((lp79
VB3MFJ4_DROAN
p80
atp81
Rp82
aF331.257
aF1.39078e-107
aF80.0
aa(lp83
g8
((lp84
VB4J871_DROGR
p85
atp86
Rp87
aF312.383
aF3.56302e-100
aF70.0
aa(lp88
g8
((lp89
VB4GHT7_DROPE
p90
atp91
Rp92
aF311.997
aF9.87693e-100
aF72.0
aa(lp93
g8
((lp94
VB5E1J0_DROPS
p95
atp96
Rp97
aF309.301
aF9.56494e-99
aF72.0
aa(lp98
g8
((lp99
VB4KQ15_DROMO
p100
atp101
Rp102
aF308.916
aF1.07749e-98
aF67.0
aa(lp103
g8
((lp104
VB4NML0_DROWI
p105
atp106
Rp107
aF305.449
aF1.91237e-97
aF71.0
aa(lp108
g8
((lp109
VB4MDV9_DROVI
p110
atp111
Rp112
aF290.426
aF1.51713e-91
aF68.0
aa(lp113
g8
((lp114
VTID_DROVI
p115
atp116
Rp117
aF289.656
aF4.37087e-91
aF68.0
aa(lp118
g8
((lp119
VT1PAG9_MUSDO
p120
atp121
Rp122
aF282.722
aF2.76775e-89
aF63.0
aa(lp123
g8
((lp124
VQ16R72_AEDAE
p125
atp126
Rp127
aF278.485
aF4.14683e-87
aF70.0
aa(lp128
g8
((lp129
VW5JTS9_ANODA
p130
atp131
Rp132
aF260.381
aF7.52007e-81
aF73.0
aa(lp133
g8
((lp134
VW5JHS9_ANODA
p135
atp136
Rp137
aF260.381
aF6.4361e-80
aF71.0
aa(lp138
g8
((lp139
VA7UR98_ANOGA
p140
atp141
Rp142
aF259.61
aF8.35029e-80
aF71.0
aa(lp143
g8
((lp144
VQ7QJL2_ANOGA
p145
atp146
Rp147
aF258.07
aF2.25672e-78
aF71.0
aa(lp148
g8
((lp149
VE2ADT8_CAMFO
p150
atp151
Rp152
aF249.595
aF1.06429e-75
aF54.0
aa(lp153
g8
((lp154
VE9J573_SOLIN
p155
atp156
Rp157
aF248.054
aF6.26038e-75
aF57.0
aa(lp158
g8
((lp159
VA0A026WNX8_CERBI
p160
atp161
Rp162
aF246.514
aF1.78167e-74
aF61.0
aa(lp163
g8
((lp164
VF4WP97_ACREC
p165
atp166
Rp167
aF241.891
aF3.8873e-73
aF61.0
aa(lp168
g8
((lp169
VE2BN18_HARSA
p170
atp171
Rp172
aF241.506
aF5.92369e-73
aF60.0
aa(lp173
g8
((lp174
VG6DRS5_DANPL
p175
atp176
Rp177
aF239.965
aF8.14417e-72
aF55.0
aa(lp178
g8
((lp179
VA0A022T6E8_9HYME
p180
atp181
Rp182
aF234.187
aF1.33187e-69
aF57.0
aa(lp183
g8
((lp184
VE9H747_DAPPU
p185
atp186
Rp187
aF231.106
aF3.27542e-69
aF56.0
aa(lp188
g8
((lp189
VA0A067QSP8_ZOONE
p190
atp191
Rp192
aF229.18
aF9.12722e-68
aF65.0
aa(lp193
g8
((lp194
VN6UCG7_DENPD
p195
atp196
Rp197
aF224.557
aF3.61147e-66
aF50.0
aa(lp198
g8
((lp199
VN6UCG2_DENPD
p200
atp201
Rp202
aF221.09
aF1.84302e-65
aF57.0
aa(lp203
g8
((lp204
VN6UFE3_DENPD
p205
atp206
Rp207
aF221.476
aF1.85064e-65
aF57.0
aa(lp208
g8
((lp209
VH6VTQ4_BOMMO
p210
atp211
Rp212
aF219.55
aF4.65358e-64
aF64.0
aa(lp213
g8
((lp214
VJ3JWQ6_DENPD
p215
atp216
Rp217
aF217.238
aF8.49098e-64
aF57.0
aa(lp218
g8
((lp219
VT1FMB7_HELRO
p220
atp221
Rp222
aF212.231
aF7.28868e-62
aF57.0
aa(lp223
g8
((lp224
VE0VXY1_PEDHC
p225
atp226
Rp227
aF207.608
aF2.95167e-60
aF59.0
aa(lp228
g8
((lp229
VD1ZZJ9_TRICA
p230
atp231
Rp232
aF207.994
aF3.71726e-60
aF62.0
aa(lp233
g8
((lp234
VJ9K2H1_ACYPI
p235
atp236
Rp237
aF206.838
aF8.11855e-60
aF59.0
aa(lp238
g8
((lp239
VL8HPQ8_9CETA
p240
atp241
Rp242
aF184.496
aF3.83787e-53
aF55.0
aa(lp243
g8
((lp244
VC3XW76_BRAFL
p245
atp246
Rp247
aF187.963
aF1.97406e-52
aF59.0
aa(lp248
g8
((lp249
VR7TPK9_CAPTE
p250
atp251
Rp252
aF187.963
aF2.77225e-52
aF55.0
aa(lp253
g8
((lp254
VA1A4J9_BOVIN
p255
atp256
Rp257
aF184.882
aF1.01759e-51
aF53.0
aa(lp258
g8
((lp259
VM3WGU5_FELCA
p260
atp261
Rp262
aF184.111
aF2.989e-51
aF52.0
aa(lp263
g8
((lp264
VE5S8E0_TRISP
p265
atp266
Rp267
aF187.193
aF6.18369e-51
aF53.0
aa(lp268
g8
((lp269
VL5M8L6_MYODS
p270
atp271
Rp272
aF182.956
aF1.13355e-50
aF52.0
aasaI1
a.