(dp0
S'result'
p1
(lp2
(lp3
Vseq1
p4
a(lp5
(lp6
VQ06G06_MOUSE
p7
aVQ06G06
p8
aVMus musculus
p9
aI10090
aS'1497'
p10
aS'0.00e+00'
p11
aS'100'
p12
aS'100'
p13
a(lp14
(lp15
VGO:0047498
p16
aVcalcium-dependent phospholipase A2 activity
p17
aS'0.89'
p18
aa(lp19
VGO:0047499
p20
aVcalcium-independent phospholipase A2 activity
p21
aS'0.6'
p22
aa(lp23
VGO:0004622
p24
aVlysophospholipase activity
p25
aS'0.52'
p26
aa(lp27
VGO:0005509
p28
aVcalcium ion binding
p29
aS'0.52'
p30
aa(lp31
VGO:0005544
p32
aVcalcium-dependent phospholipid binding
p33
aS'0.52'
p34
aaaa(lp35
VPA24B_MOUSE
p36
aVP0C871
p37
ag9
aI10090
aS'1496'
p38
aS'0.00e+00'
p39
aS'100'
p40
aS'100'
p41
a(lp42
(lp43
g16
ag17
aS'0.89'
p44
aa(lp45
g20
ag21
aS'0.6'
p46
aa(lp47
g24
ag25
aS'0.52'
p48
aa(lp49
g28
ag29
aS'0.52'
p50
aa(lp51
g32
ag33
aS'0.52'
p52
aaaa(lp53
VD4A1I6_RAT
p54
aVD4A1I6
p55
aVRattus norvegicus
p56
aI10116
aS'1385'
p57
aS'0.00e+00'
p58
aS'94'
p59
aS'98'
p60
a(lp61
(lp62
g16
ag17
aS'0.9'
p63
aa(lp64
g20
ag21
aS'0.42'
p65
aa(lp66
VGO:0017050
p67
aVD-erythro-sphingosine kinase activity
p68
aS'0.32'
p69
aaaa(lp70
VH0VT58_CAVPO
p71
aVH0VT58
p72
aVCavia porcellus
p73
aI10141
aS'1208'
p74
aS'0.00e+00'
p75
aS'82'
p76
aS'98'
p77
a(lp78
(lp79
g16
ag17
aS'0.91'
p80
aa(lp81
VGO:0000987
p82
aVcore promoter proximal region sequence-specific DNA binding
p83
aS'0.42'
p84
aa(lp85
g20
ag21
aS'0.35'
p86
aaaa(lp87
VF1SSW8_PIG
p88
aVF1SSW8
p89
aVSus scrofa
p90
aI9823
aS'1198'
p91
aS'0.00e+00'
p92
aS'81'
p93
aS'100'
p94
a(lp95
(lp96
g16
ag17
aS'0.89'
p97
aa(lp98
g82
ag83
aS'0.41'
p99
aa(lp100
g20
ag21
aS'0.36'
p101
aaaa(lp102
VG7MWY0_MACMU
p103
aVG7MWY0
p104
aVMacaca mulatta
p105
aI9544
aS'1185'
p106
aS'0.00e+00'
p107
aS'82'
p108
aS'98'
p109
a(lp110
(lp111
g16
ag17
aS'0.9'
p112
aa(lp113
g20
ag21
aS'0.43'
p114
aa(lp115
g82
ag83
aS'0.41'
p116
aaaa(lp117
VPA24B_HUMAN
p118
aVP0C869
p119
aVHomo sapiens
p120
aI9606
aS'1184'
p121
aS'0.00e+00'
p122
aS'82'
p123
aS'98'
p124
a(lp125
(lp126
g16
ag17
aS'0.93'
p127
aa(lp128
g20
ag21
aS'0.39'
p129
aaaa(lp130
VF1PC31_CANFA
p131
aVF1PC31
p132
aVCanis lupus familiaris
p133
aI9615
aS'1182'
p134
aS'0.00e+00'
p135
aS'81'
p136
aS'98'
p137
a(lp138
(lp139
g16
ag17
aS'0.89'
p140
aa(lp141
g82
ag83
aS'0.41'
p142
aa(lp143
g20
ag21
aS'0.34'
p144
aaaa(lp145
VG7PAZ3_MACFA
p146
aVG7PAZ3
p147
aVMacaca fascicularis
p148
aI9541
aS'1182'
p149
aS'0.00e+00'
p150
aS'82'
p151
aS'98'
p152
a(lp153
(lp154
g16
ag17
aS'0.91'
p155
aa(lp156
g82
ag83
aS'0.42'
p157
aa(lp158
g20
ag21
aS'0.38'
p159
aa(lp160
VGO:0033746
p161
aVhistone demethylase activity (H3-R2 specific)
p162
aS'0.33'
p163
aa(lp164
VGO:0008270
p165
aVzinc ion binding
p166
aS'0.32'
p167
aa(lp168
VGO:0033749
p169
aVhistone demethylase activity (H4-R3 specific)
p170
aS'0.32'
p171
aaaa(lp172
VE1BC49_BOVIN
p173
aVE1BC49
p174
aVBos taurus
p175
aI9913
aS'1160'
p176
aS'0.00e+00'
p177
aS'81'
p178
aS'100'
p179
a(lp180
(lp181
g16
ag17
aS'0.93'
p182
aa(lp183
g20
ag21
aS'0.36'
p184
aaaaaasS'downloadfile'
p185
S'/data_more/SIFER_webserver/src/sifter_webserver/sifter_web/output/1148086_download.txt'
p186
s.