(dp0
S'result'
p1
(lp2
(lp3
VQ93UQ8_9DELT
p4
aVQ93UQ8
p5
aVDesulfovibrio oxamicus
p6
aI32016
a(lp7
(lp8
VGO:0003677
p9
aVDNA binding
p10
aS'0.94'
p11
aa(lp12
VGO:0008942
p13
aVnitrite reductase [NAD(P)H] activity
p14
aS'0.87'
p15
aa(lp16
VGO:0051539
p17
aV4 iron, 4 sulfur cluster binding
p18
aS'0.77'
p19
aa(lp20
VGO:0005515
p21
aVprotein binding
p22
aS'0.77'
p23
aa(lp24
VGO:0050311
p25
aVsulfite reductase (ferredoxin) activity
p26
aS'0.77'
p27
aa(lp28
VGO:0016002
p29
aVsulfite reductase activity
p30
aS'0.77'
p31
aa(lp32
VGO:0020037
p33
aVheme binding
p34
aS'0.71'
p35
aa(lp36
VGO:0050660
p37
aVflavin adenine dinucleotide binding
p38
aS'0.71'
p39
aa(lp40
VGO:0050661
p41
aVNADP binding
p42
aS'0.71'
p43
aaaa(lp44
VQ93UQ9_9DELT
p45
aVQ93UQ9
p46
ag6
aI32016
a(lp47
(lp48
g9
ag10
aS'0.95'
p49
aa(lp50
g13
ag14
aS'0.15'
p51
aa(lp52
g17
ag18
aS'0.15'
p53
aa(lp54
g21
ag22
aS'0.15'
p55
aa(lp56
g33
ag34
aS'0.15'
p57
aa(lp58
g25
ag26
aS'0.15'
p59
aa(lp60
g29
ag30
aS'0.15'
p61
aa(lp62
g37
ag38
aS'0.15'
p63
aa(lp64
g41
ag42
aS'0.15'
p65
aaaa(lp66
VQ5PS43_9DELT
p67
aVQ5PS43
p68
ag6
aI32016
a(lp69
(lp70
VGO:0042803
p71
aVprotein homodimerization activity
p72
aS'0.51'
p73
aa(lp74
VGO:0051082
p75
aVunfolded protein binding
p76
aS'0.49'
p77
aaaas.