(dp0
VF1SLA4_PIG
p1
(dp2
I3101
F0.78
ssVF6SFJ8_ORNAN
p3
(dp4
I3094
F0.75
sI3295
F0.73
ssVG1TI46_RABIT
p5
(dp6
I3297
F0.78
ssVB7P3S5_IXOSC
p7
(dp8
I3297
F0.89
sI3094
F0.78
ssVH2TWS2_TAKRU
p9
(dp10
I3297
F0.78
ssVF1NEX3_CHICK
p11
(dp12
I3297
F0.78
ssVH0ZDV3_TAEGU
p13
(dp14
I3297
F0.78
ssVB4KXF0_DROMO
p15
(dp16
I3297
F0.78
ssVH2T322_TAKRU
p17
(dp18
I3297
F0.78
ssVH0YGD2_HUMAN
p19
(dp20
I3094
F0.77
sI3295
F0.62
ssVE1FV67_LOALO
p21
(dp22
I3297
F0.77
ssVG7PC00_MACFA
p23
(dp24
I3297
F0.77
ssVG1KDM6_ANOCA
p25
(dp26
I3297
F0.78
ssVB4KJ36_DROMO
p27
(dp28
I3297
F0.77
ssVE3WL16_ANODA
p29
(dp30
I3297
F0.78
ssVC3Y4F8_BRAFL
p31
(dp32
I3297
F0.9
ssVSO1A6_RAT
p33
(dp34
I3094
F0.78
ssVH0VF80_CAVPO
p35
(dp36
I3094
F0.78
ssVH3IYT3_STRPU
p37
(dp38
I3297
F0.91
ssVH2XWZ2_CIOIN
p39
(dp40
I3297
F0.77
ssVB7Q7F9_IXOSC
p41
(dp42
I3297
F0.77
ssVF7FQD4_CALJA
p43
(dp44
I3295
F0.77
ssVC3Y4U1_BRAFL
p45
(dp46
I3297
F0.9
ssVH2TWS4_TAKRU
p47
(dp48
I3297
F0.78
ssVH0WWR0_OTOGA
p49
(dp50
I3297
F0.78
ssVE4YN72_OIKDI
p51
(dp52
I3297
F0.78
ssVQ3B7Q4_DANRE
p53
(dp54
I3295
F0.72
ssVB7ZAD4_HUMAN
p55
(dp56
I3094
F0.78
ssVD3YY31_MOUSE
p57
(dp58
I3297
F0.75
ssVH3DF25_TETNG
p59
(dp60
I3094
F0.75
sI3295
F0.7
ssVH2LWA1_ORYLA
p61
(dp62
I3094
F0.75
sI3295
F0.7
ssVH2WEQ3_CAEJA
p63
(dp64
I3297
F0.9
ssVF1PII7_CANFA
p65
(dp66
I3297
F0.78
ssVE1BC23_BOVIN
p67
(dp68
I3094
F0.78
sI3295
F0.69
ssVF6X5N8_CIOIN
p69
(dp70
I3101
F0.76
ssVQ5JAR4_HUMAN
p71
(dp72
I3094
F0.9
sI3295
F0.75
ssVE1GMV1_LOALO
p73
(dp74
I3297
F0.77
ssVF6X587_XENTR
p75
(dp76
I3297
F0.78
ssVD2HW96_AILME
p77
(dp78
I3297
F0.78
ssVE0W488_PEDHC
p79
(dp80
I3297
F0.78
ssVG3NKK4_GASAC
p81
(dp82
I3297
F0.78
ssVF4WZT5_ACREC
p83
(dp84
I3297
F0.78
ssVH2SN38_TAKRU
p85
(dp86
I3295
F0.78
ssVF7C2I8_MACMU
p87
(dp88
I3297
F0.78
ssVE2ABP5_CAMFO
p89
(dp90
I3200
F0.58
sI3297
F0.74
sI3101
F0.58
sI3094
F0.58
sI3165
F0.58
sI3295
F0.58
ssVF7BQX3_MONDO
p91
(dp92
I3101
F0.78
ssVB0W4W5_CULQU
p93
(dp94
I3297
F0.9
ssVA8WJB0_CAEBR
p95
(dp96
I3297
F0.78
ssVH2YTS1_CIOSA
p97
(dp98
I3101
F0.78
ssVG1QU38_NOMLE
p99
(dp100
I3101
F0.78
ssVC3YC54_BRAFL
p101
(dp102
I3297
F0.9
sI3101
F0.81
ssVB4GHI4_DROPE
p103
(dp104
I3297
F0.77
ssVSO1A4_MOUSE
p105
(dp106
I3094
F0.78
ssVQ7PI57_ANOGA
p107
(dp108
I3297
F0.77
ssVB3RLK6_TRIAD
p109
(dp110
I3297
F0.77
ssVA2ACT3_MOUSE
p111
(dp112
I3297
F0.76
ssVQ148W1_MOUSE
p113
(dp114
I3297
F0.78
ssVG1KU16_ANOCA
p115
(dp116
I3094
F0.76
sI3295
F0.68
ssVB3KUC7_HUMAN
p117
(dp118
I3297
F0.78
ssVB4HYY3_DROSE
p119
(dp120
I3297
F0.76
ssVB4N049_DROWI
p121
(dp122
I3297
F0.78
ssVG3WUN1_SARHA
p123
(dp124
I3297
F0.77
ssVG3TF40_LOXAF
p125
(dp126
I3297
F0.78
ssVA7T5W1_NEMVE
p127
(dp128
I3297
F0.9
ssVF1RN62_PIG
p129
(dp130
I3297
F0.78
ssVH3J4I4_STRPU
p131
(dp132
I3297
F0.77
ssVQ8K4K9_RAT
p133
(dp134
I3297
F0.75
ssVH3IQD9_STRPU
p135
(dp136
I3297
F0.77
ssVH3B9U6_LATCH
p137
(dp138
I3297
F0.78
ssVSO4A1_MOUSE
p139
(dp140
I3297
F0.76
ssVG3UKL3_LOXAF
p141
(dp142
I3297
F0.78
ssVA7SWE4_NEMVE
p143
(dp144
I3297
F0.77
ssVH2YEL7_CIOSA
p145
(dp146
I3297
F0.78
ssVH2Q5K4_PANTR
p147
(dp148
I3094
F0.78
sI3295
F0.69
ssVG3QGZ3_GORGO
p149
(dp150
I3297
F0.78
ssVH3INQ6_STRPU
p151
(dp152
I3297
F0.9
ssVD3YXA8_MOUSE
p153
(dp154
I3297
F0.78
ssVH2LI10_ORYLA
p155
(dp156
I3094
F0.74
sI3295
F0.69
ssVE7F2I7_DANRE
p157
(dp158
I3297
F0.78
ssVSO1A5_MOUSE
p159
(dp160
I3094
F0.78
ssVG7PK01_MACFA
p161
(dp162
I3094
F0.76
sI3295
F0.69
ssVB4Q7T1_DROSI
p163
(dp164
I3297
F0.91
ssVH9J2D0_BOMMO
p165
(dp166
I3297
F0.78
ssVQ69HT1_CIOIN
p167
(dp168
I3101
F0.76
ssVB3SCX0_TRIAD
p169
(dp170
I3297
F0.78
ssVH9F012_MACMU
p171
(dp172
I3094
F0.78
sI3295
F0.69
ssVQ53ZW9_MOUSE
p173
(dp174
I3094
F0.78
ssVF6W2J1_HORSE
p175
(dp176
I3297
F0.78
ssVH2SCH3_TAKRU
p177
(dp178
I3094
F0.77
ssVH3AKT7_LATCH
p179
(dp180
I3297
F0.78
ssVE6ZIN7_DICLA
p181
(dp182
I3297
F0.78
ssVF5H094_HUMAN
p183
(dp184
I3094
F0.78
sI3295
F0.63
ssVE9J935_SOLIN
p185
(dp186
I3297
F0.78
ssVH2SCH6_TAKRU
p187
(dp188
I3094
F0.76
sI3295
F0.59
ssVQ8BY69_MOUSE
p189
(dp190
I3297
F0.78
ssVA4IIQ0_XENTR
p191
(dp192
I3101
F0.77
ssVB4MFR2_DROVI
p193
(dp194
I3297
F0.76
ssVH3IVD5_STRPU
p195
(dp196
I3297
F0.77
ssVH2YRA5_CIOSA
p197
(dp198
I3297
F0.77
ssVE5SJD8_TRISP
p199
(dp200
I3297
F0.77
ssVG5BA82_HETGA
p201
(dp202
I3094
F0.75
sI3295
F0.74
ssVF7IM14_CALJA
p203
(dp204
I3101
F0.78
ssVQ4STA0_TETNG
p205
(dp206
I3297
F0.9
ssVE2C8X8_HARSA
p207
(dp208
I3297
F0.78
ssVB4I826_DROSE
p209
(dp210
I3297
F0.78
ssVF7AKW1_ORNAN
p211
(dp212
I3297
F0.78
ssVH0ZUQ0_TAEGU
p213
(dp214
I3094
F0.89
sI3295
F0.87
ssVC3YJA7_BRAFL
p215
(dp216
I3297
F0.77
ssVF7IML9_CALJA
p217
(dp218
I3094
F0.78
sI3295
F0.69
ssVE9Q0W2_MOUSE
p219
(dp220
I3094
F0.78
ssVH2LW99_ORYLA
p221
(dp222
I3094
F0.75
sI3295
F0.7
ssVH9IFW5_ATTCE
p223
(dp224
I3200
F0.57
sI3297
F0.74
sI3101
F0.58
sI3094
F0.57
sI3165
F0.57
sI3295
F0.57
ssVG1N2C5_MELGA
p225
(dp226
I3297
F0.78
ssVG9KQ02_MUSPF
p227
(dp228
I3297
F0.78
ssVG3SG45_GORGO
p229
(dp230
I3094
F0.78
sI3295
F0.61
ssVH2UZP1_TAKRU
p231
(dp232
I3101
F0.78
ssVSO2A1_MOUSE
p233
(dp234
I3101
F0.78
ssVG3V753_RAT
p235
(dp236
I3101
F0.78
ssVH2YTS5_CIOSA
p237
(dp238
I3101
F0.78
ssVE4XLK8_OIKDI
p239
(dp240
I3297
F0.78
ssVH0ZMI1_TAEGU
p241
(dp242
I3297
F0.78
ssVF6TQP9_MOUSE
p243
(dp244
I3295
F0.78
ssVH2PG71_PONAB
p245
(dp246
I3297
F0.78
ssVQ9VLB3_DROME
p247
(dp248
I3297
F0.76
ssVQ7Q551_ANOGA
p249
(dp250
I3297
F0.78
ssVF1MJC9_BOVIN
p251
(dp252
I3295
F0.77
ssVH2UZN6_TAKRU
p253
(dp254
I3101
F0.78
ssVB4DTB0_HUMAN
p255
(dp256
I3295
F0.78
ssVG1LA07_AILME
p257
(dp258
I3101
F0.78
ssVH3CLK0_TETNG
p259
(dp260
I3094
F0.75
sI3295
F0.7
ssVB7PDY0_IXOSC
p261
(dp262
I3297
F0.76
ssVB3N3F1_DROER
p263
(dp264
I3297
F0.9
ssVG5C8E7_HETGA
p265
(dp266
I3297
F0.91
sI3101
F0.79
ssVH2Z042_CIOSA
p267
(dp268
I3297
F0.78
ssVE5T751_TRISP
p269
(dp270
I3297
F0.77
ssVH3HGS8_STRPU
p271
(dp272
I3101
F0.77
ssVG7N6H1_MACMU
p273
(dp274
I3094
F0.77
sI3295
F0.62
ssVH2S0C2_TAKRU
p275
(dp276
I3297
F0.78
ssVQ7TQB3_MOUSE
p277
(dp278
I3094
F0.78
ssVB4Q3T8_DROSI
p279
(dp280
I3297
F0.9
ssVF7BL76_ORNAN
p281
(dp282
I3297
F0.78
ssVC1E9B6_MICSR
p283
(dp284
I3297
F0.9
ssVA4IG10_DANRE
p285
(dp286
I3295
F0.73
ssVQ8C0X7_MOUSE
p287
(dp288
I3297
F0.78
ssVF7B8R5_CIOIN
p289
(dp290
I3101
F0.78
ssVH9KRT9_APIME
p291
(dp292
I3297
F0.78
ssVE9J937_SOLIN
p293
(dp294
I3297
F0.78
ssVF7FC08_MACMU
p295
(dp296
I3094
F0.9
sI3295
F0.74
ssVC9JSB7_HUMAN
p297
(dp298
I3094
F0.78
ssVH0UXC1_CAVPO
p299
(dp300
I3297
F0.78
ssVQ14DL2_MOUSE
p301
(dp302
I3297
F0.76
ssVE3WL13_ANODA
p303
(dp304
I3297
F0.9
ssVE1BPV8_BOVIN
p305
(dp306
I3297
F0.78
ssVB4KS86_DROMO
p307
(dp308
I3297
F0.77
ssVB4P0A9_DROYA
p309
(dp310
I3297
F0.78
ssVH2YZB1_CIOSA
p311
(dp312
I3297
F0.78
ssVQ4VA99_MOUSE
p313
(dp314
I3295
F0.77
ssVH2SN45_TAKRU
p315
(dp316
I3295
F0.77
ssVC3Y4U6_BRAFL
p317
(dp318
I3297
F0.9
ssVI1FF22_AMPQE
p319
(dp320
I3297
F0.76
ssVH2PQI7_PONAB
p321
(dp322
I3297
F0.77
ssVE1BSH2_CHICK
p323
(dp324
I3094
F0.78
ssVA7S539_NEMVE
p325
(dp326
I3297
F0.78
ssVB3SCA6_TRIAD
p327
(dp328
I3297
F0.78
ssVI1FF21_AMPQE
p329
(dp330
I3297
F0.77
ssVH2Z041_CIOSA
p331
(dp332
I3297
F0.78
ssVC4XVL1_DROME
p333
(dp334
I3297
F0.76
ssVG1PGX5_MYOLU
p335
(dp336
I3094
F0.78
ssVB4I824_DROSE
p337
(dp338
I3297
F0.77
ssVH2ZCE7_CIOSA
p339
(dp340
I3094
F0.78
ssVSO4A1_HUMAN
p341
(dp342
I3297
F0.78
ssVG1NWQ5_MYOLU
p343
(dp344
I3297
F0.78
ssVB4J9Q4_DROGR
p345
(dp346
I3297
F0.77
ssVH2YTS2_CIOSA
p347
(dp348
I3101
F0.78
ssVB7PG55_IXOSC
p349
(dp350
I3297
F0.91
ssVF7IPZ4_CALJA
p351
(dp352
I3094
F0.9
sI3295
F0.86
ssVC3Y2I5_BRAFL
p353
(dp354
I3297
F0.77
ssVH0YFQ8_HUMAN
p355
(dp356
I3094
F0.77
sI3295
F0.62
ssVB4IE96_DROSE
p357
(dp358
I3297
F0.9
ssVH2WKL5_CAEJA
p359
(dp360
I3297
F0.77
ssVH2Y4M7_CIOSA
p361
(dp362
I3297
F0.77
ssVQ961X2_DROME
p363
(dp364
I3297
F0.78
ssVC3Y4U7_BRAFL
p365
(dp366
I3297
F0.9
ssVG5BDL8_HETGA
p367
(dp368
I3297
F0.77
ssVH3HUF7_STRPU
p369
(dp370
I3297
F0.9
ssVQ6IR20_MOUSE
p371
(dp372
I3094
F0.78
ssVB4IE94_DROSE
p373
(dp374
I3297
F0.77
ssVC9JG34_HUMAN
p375
(dp376
I3094
F0.78
ssVH9KIZ0_APIME
p377
(dp378
I3200
F0.57
sI3297
F0.75
sI3101
F0.57
sI3094
F0.57
sI3165
F0.57
sI3295
F0.57
ssVF6RUB6_HORSE
p379
(dp380
I3101
F0.78
ssVH9JGM2_BOMMO
p381
(dp382
I3297
F0.75
ssVH3IXQ5_STRPU
p383
(dp384
I3297
F0.77
ssVH3IIT6_STRPU
p385
(dp386
I3297
F0.91
ssVC3ZX58_BRAFL
p387
(dp388
I3297
F0.76
ssVA7T882_NEMVE
p389
(dp390
I3297
F0.77
ssVQ4SV95_TETNG
p391
(dp392
I3094
F0.75
sI3295
F0.7
ssVG3HGX0_CRIGR
p393
(dp394
I3297
F0.78
ssVQ5FX75_CANFA
p395
(dp396
I3101
F0.78
ssVD3ZZM7_RAT
p397
(dp398
I3297
F0.78
ssVQ5XI61_RAT
p399
(dp400
I3297
F0.9
ssVC3Y570_BRAFL
p401
(dp402
I3297
F0.77
ssVQ7PHW8_ANOGA
p403
(dp404
I3297
F0.78
ssVB4MJH9_DROWI
p405
(dp406
I3297
F0.76
ssVQ3V1K7_MOUSE
p407
(dp408
I3295
F0.77
ssVH2ZCF3_CIOSA
p409
(dp410
I3094
F0.78
ssVG3U4M6_LOXAF
p411
(dp412
I3101
F0.78
ssVB7PG56_IXOSC
p413
(dp414
I3297
F0.91
ssVG3WUF9_SARHA
p415
(dp416
I3094
F0.78
ssVH2SCH7_TAKRU
p417
(dp418
I3094
F0.78
ssVH2Z038_CIOSA
p419
(dp420
I3297
F0.78
ssVB3RLL1_TRIAD
p421
(dp422
I3297
F0.77
ssVG1T2H6_RABIT
p423
(dp424
I3297
F0.78
ssVH2LP35_ORYLA
p425
(dp426
I3297
F0.78
ssVC9EGT7_CANFA
p427
(dp428
I3094
F0.71
sI3295
F0.77
ssVH0ZN94_TAEGU
p429
(dp430
I3094
F0.78
ssVG3P9F5_GASAC
p431
(dp432
I3297
F0.78
ssVH2Z5W5_CIOSA
p433
(dp434
I3297
F0.78
ssVA4IHQ4_XENTR
p435
(dp436
I3094
F0.78
ssVG2HHA7_PANTR
p437
(dp438
I3101
F0.78
ssVF7B262_CIOIN
p439
(dp440
I3094
F0.76
ssVH3I0U1_STRPU
p441
(dp442
I3297
F0.76
ssVH2Q4F0_PANTR
p443
(dp444
I3295
F0.78
ssVH3JKP9_STRPU
p445
(dp446
I3297
F0.78
ssVG3VLZ5_SARHA
p447
(dp448
I3295
F0.72
ssVE3XEZ5_ANODA
p449
(dp450
I3297
F0.77
ssVA7SGE8_NEMVE
p451
(dp452
I3297
F0.77
ssVG3V1C0_HUMAN
p453
(dp454
I3297
F0.78
ssVF6V4N7_CIOIN
p455
(dp456
I3094
F0.77
ssVQ17KR3_AEDAE
p457
(dp458
I3297
F0.77
ssVH2Y4M6_CIOSA
p459
(dp460
I3297
F0.77
ssVG7MVZ8_MACMU
p461
(dp462
I3297
F0.78
ssVH2NP86_PONAB
p463
(dp464
I3297
F0.78
ssVB0WEE2_CULQU
p465
(dp466
I3297
F0.76
ssVF7CQJ4_CALJA
p467
(dp468
I3297
F0.78
ssVF6YDJ4_ORNAN
p469
(dp470
I3094
F0.77
ssVQ20702_CAEEL
p471
(dp472
I3297
F0.77
ssVG1MFF6_AILME
p473
(dp474
I3295
F0.77
ssVF5H060_HUMAN
p475
(dp476
I3094
F0.78
ssVQ76KD1_ORYLA
p477
(dp478
I3297
F0.78
ssVF6RLT0_ORNAN
p479
(dp480
I3101
F0.78
ssVH2TWS0_TAKRU
p481
(dp482
I3297
F0.78
ssVD2I5U7_AILME
p483
(dp484
I3297
F0.78
ssVH2ZCF0_CIOSA
p485
(dp486
I3094
F0.78
ssVB4MJI0_DROWI
p487
(dp488
I3297
F0.77
ssVH2YTS3_CIOSA
p489
(dp490
I3101
F0.78
ssVQ20538_CAEEL
p491
(dp492
I3297
F0.9
ssVF1Q9B1_DANRE
p493
(dp494
I3101
F0.78
ssVE2ACE6_CAMFO
p495
(dp496
I3297
F0.78
ssVB4HXV0_DROSE
p497
(dp498
I3297
F0.78
ssVB3SEG6_TRIAD
p499
(dp500
I3297
F0.77
ssVB4MDK3_DROVI
p501
(dp502
I3297
F0.9
ssVE2BXT3_HARSA
p503
(dp504
I3297
F0.78
ssVF7E1R5_HORSE
p505
(dp506
I3094
F0.78
sI3295
F0.69
ssVB0W4W4_CULQU
p507
(dp508
I3297
F0.78
ssVH2YTR9_CIOSA
p509
(dp510
I3101
F0.78
ssVH3DSJ9_PRIPA
p511
(dp512
I3297
F0.77
ssVG7PFJ6_MACFA
p513
(dp514
I3297
F0.78
ssVH3CN10_TETNG
p515
(dp516
I3295
F0.76
ssVH2SCH8_TAKRU
p517
(dp518
I3094
F0.76
sI3295
F0.59
ssVH3BW91_TETNG
p519
(dp520
I3295
F0.77
ssVH2NEN8_PONAB
p521
(dp522
I3295
F0.78
ssVE2AMH7_CAMFO
p523
(dp524
I3297
F0.78
ssVG4XPB1_CHICK
p525
(dp526
I3094
F0.73
sI3295
F0.71
ssVD3Z5U7_MOUSE
p527
(dp528
I3094
F0.78
ssVSO3A1_BOVIN
p529
(dp530
I3297
F0.78
ssVQ7Z454_HUMAN
p531
(dp532
I3094
F0.78
ssVQ9VVH9_DROME
p533
(dp534
I3297
F0.78
ssVG3Q5Q6_GASAC
p535
(dp536
I3094
F0.9
sI3295
F0.78
ssVSO1C1_RAT
p537
(dp538
I3295
F0.77
ssVD6W894_TRICA
p539
(dp540
I3297
F0.77
ssVH2TWS1_TAKRU
p541
(dp542
I3297
F0.78
ssVF6ZUN3_HORSE
p543
(dp544
I3297
F0.78
ssVF1MYV0_BOVIN
p545
(dp546
I3094
F0.7
sI3295
F0.75
ssVH2SCH1_TAKRU
p547
(dp548
I3094
F0.9
sI3295
F0.78
ssVF1SQZ5_PIG
p549
(dp550
I3094
F0.76
sI3295
F0.73
ssVF4WH08_ACREC
p551
(dp552
I3200
F0.57
sI3297
F0.74
sI3101
F0.58
sI3094
F0.57
sI3165
F0.57
sI3295
F0.57
ssVF7GM11_MACMU
p553
(dp554
I3297
F0.77
ssVF6Z8W3_MONDO
p555
(dp556
I3094
F0.76
sI3295
F0.66
ssVB7P3S3_IXOSC
p557
(dp558
I3297
F0.77
ssVA8Q7H4_BRUMA
p559
(dp560
I3297
F0.77
ssVH3HVV5_STRPU
p561
(dp562
I3297
F0.77
ssVG3WXW4_SARHA
p563
(dp564
I3094
F0.71
sI3295
F0.76
ssVH3DY76_PRIPA
p565
(dp566
I3297
F0.9
ssVB4KS85_DROMO
p567
(dp568
I3297
F0.77
ssVH0ZWZ4_TAEGU
p569
(dp570
I3094
F0.78
ssVH3IIT7_STRPU
p571
(dp572
I3297
F0.9
ssVF2U1E1_SALS5
p573
(dp574
I3297
F0.76
ssVQ388P0_TRYB2
p575
(dp576
I3297
F0.77
ssVH2Y4N1_CIOSA
p577
(dp578
I3297
F0.77
ssVD4A2R7_RAT
p579
(dp580
I3101
F0.78
ssVG6CUH0_DANPL
p581
(dp582
I3297
F0.75
ssVQ8HYW1_BOVIN
p583
(dp584
I3094
F0.7
sI3295
F0.75
ssVH2T5X0_TAKRU
p585
(dp586
I3297
F0.78
ssVG1KJC8_ANOCA
p587
(dp588
I3101
F0.78
ssVG3QX30_GORGO
p589
(dp590
I3297
F0.91
ssVG3V4E8_HUMAN
p591
(dp592
I3297
F0.78
ssVG1SCG0_RABIT
p593
(dp594
I3101
F0.78
ssVF6ZVK8_CIOIN
p595
(dp596
I3101
F0.77
ssVF6TJE8_XENTR
p597
(dp598
I3094
F0.75
sI3295
F0.64
ssVF7FA76_MONDO
p599
(dp600
I3297
F0.78
ssVE5SC63_TRISP
p601
(dp602
I3297
F0.77
ssVE1GGN8_LOALO
p603
(dp604
I3297
F0.76
ssVG3QNU3_GORGO
p605
(dp606
I3094
F0.9
sI3295
F0.82
ssVF6XDD0_CALJA
p607
(dp608
I3295
F0.78
ssVG1PWE9_MYOLU
p609
(dp610
I3094
F0.78
sI3295
F0.69
ssVG3UR85_MELGA
p611
(dp612
I3297
F0.78
ssVQ9D5W6_MOUSE
p613
(dp614
I3297
F0.76
ssVG3VRJ5_SARHA
p615
(dp616
I3297
F0.78
ssVH2TWS5_TAKRU
p617
(dp618
I3297
F0.78
ssVH9JVC2_BOMMO
p619
(dp620
I3297
F0.78
ssVB1N7X3_RABIT
p621
(dp622
I3094
F0.78
sI3295
F0.69
ssVQ171D5_AEDAE
p623
(dp624
I3297
F0.77
ssVA9JTE5_DANRE
p625
(dp626
I3094
F0.78
ssVH3APF3_LATCH
p627
(dp628
I3101
F0.78
ssVC3ZHC6_BRAFL
p629
(dp630
I3297
F0.77
ssVG1T6Y7_RABIT
p631
(dp632
I3295
F0.78
ssVB0W4W3_CULQU
p633
(dp634
I3297
F0.91
ssVH3DMV0_TETNG
p635
(dp636
I3101
F0.78
ssVB4JCP9_DROGR
p637
(dp638
I3297
F0.77
ssVE2BWD3_HARSA
p639
(dp640
I3297
F0.78
ssVSO4C1_PONAB
p641
(dp642
I3297
F0.78
ssVH2SCH5_TAKRU
p643
(dp644
I3094
F0.77
sI3295
F0.58
ssVG3P9F3_GASAC
p645
(dp646
I3297
F0.78
ssVF6RPB8_HORSE
p647
(dp648
I3295
F0.78
ssVB7Q7G1_IXOSC
p649
(dp650
I3094
F0.76
ssVH2UWX6_TAKRU
p651
(dp652
I3094
F0.76
sI3295
F0.7
ssVH9GY12_DANRE
p653
(dp654
I3094
F0.78
ssVF6RKU8_HORSE
p655
(dp656
I3101
F0.78
ssVH2V2U6_TAKRU
p657
(dp658
I3094
F0.75
sI3295
F0.7
ssVB3RLK9_TRIAD
p659
(dp660
I3297
F0.77
ssVH2PG70_PONAB
p661
(dp662
I3297
F0.78
ssVQ4T3U2_TETNG
p663
(dp664
I3297
F0.76
ssVF1Q4Y9_DANRE
p665
(dp666
I3295
F0.73
ssVQ7KTG4_DROME
p667
(dp668
I3297
F0.77
ssVE0YPA4_9CNID
p669
(dp670
I3297
F0.77
ssVG3WV29_SARHA
p671
(dp672
I3094
F0.76
sI3295
F0.66
ssVE2A200_CAMFO
p673
(dp674
I3297
F0.78
ssVC3Y4U2_BRAFL
p675
(dp676
I3297
F0.91
ssVF1NPJ5_CHICK
p677
(dp678
I3094
F0.78
ssVE2BWD4_HARSA
p679
(dp680
I3297
F0.78
ssVH0W6D9_CAVPO
p681
(dp682
I3094
F0.74
sI3295
F0.74
ssVE0CX90_MOUSE
p683
(dp684
I3094
F0.78
ssVG3WQ11_SARHA
p685
(dp686
I3101
F0.78
ssVF6UFC7_MONDO
p687
(dp688
I3295
F0.77
ssVSO5A1_HUMAN
p689
(dp690
I3297
F0.78
ssVG3WV28_SARHA
p691
(dp692
I3094
F0.76
sI3295
F0.66
ssVSO2B1_RAT
p693
(dp694
I3295
F0.77
ssVB7Z8J8_HUMAN
p695
(dp696
I3101
F0.91
ssVQ8HZ68_BOVIN
p697
(dp698
I3101
F0.78
ssVG1PWF3_MYOLU
p699
(dp700
I3094
F0.71
sI3295
F0.77
ssVQ4R830_MACFA
p701
(dp702
I3101
F0.76
ssVH2TWS3_TAKRU
p703
(dp704
I3297
F0.78
ssVB7Q7F8_IXOSC
p705
(dp706
I3297
F0.77
ssVA7S2I0_NEMVE
p707
(dp708
I3297
F0.9
ssVSO1C1_MOUSE
p709
(dp710
I3094
F0.76
sI3295
F0.72
ssVA7SGE9_NEMVE
p711
(dp712
I3297
F0.77
ssVQ8IV69_HUMAN
p713
(dp714
I3094
F0.78
ssVB4KJ34_DROMO
p715
(dp716
I3297
F0.76
ssVA7SNT0_NEMVE
p717
(dp718
I3297
F0.77
ssVA7SF71_NEMVE
p719
(dp720
I3297
F0.78
ssVF1PNF1_CANFA
p721
(dp722
I3297
F0.78
ssVD6W672_TRICA
p723
(dp724
I3297
F0.77
ssVF1LNX6_RAT
p725
(dp726
I3297
F0.9
ssVG1NQW7_MELGA
p727
(dp728
I3101
F0.88
ssVG5BDL7_HETGA
p729
(dp730
I3297
F0.78
ssVH3DY75_PRIPA
p731
(dp732
I3297
F0.77
ssVQ16RL0_AEDAE
p733
(dp734
I3297
F0.77
ssVF6SNS4_XENTR
p735
(dp736
I3297
F0.78
ssVH2ME23_ORYLA
p737
(dp738
I3295
F0.77
ssVF6SNL4_XENTR
p739
(dp740
I3297
F0.78
ssVE9PVD9_MOUSE
p741
(dp742
I3297
F0.78
ssVE2BXT2_HARSA
p743
(dp744
I3297
F0.77
ssVB7QJZ8_IXOSC
p745
(dp746
I3297
F0.77
ssVG1L295_AILME
p747
(dp748
I3094
F0.78
ssVF7HCT6_CALJA
p749
(dp750
I3297
F0.9
ssVF4WH07_ACREC
p751
(dp752
I3297
F0.78
ssVC9JGK7_HUMAN
p753
(dp754
I3094
F0.78
ssVSO1B2_RAT
p755
(dp756
I3094
F0.77
sI3295
F0.74
ssVB4LRE4_DROVI
p757
(dp758
I3297
F0.78
ssVF7DID2_ORNAN
p759
(dp760
I3297
F0.78
ssVD3ZC14_RAT
p761
(dp762
I3297
F0.9
ssVG3I2Y4_CRIGR
p763
(dp764
I3297
F0.78
ssVF1LGG9_ASCSU
p765
(dp766
I3297
F0.77
ssVF1Q4E0_CANFA
p767
(dp768
I3297
F0.78
ssVH3FD02_PRIPA
p769
(dp770
I3297
F0.76
ssVQ2VLH9_SHEEP
p771
(dp772
I3101
F0.78
ssVH3HW68_STRPU
p773
(dp774
I3297
F0.78
ssVH2Q5K6_PANTR
p775
(dp776
I3094
F0.78
sI3295
F0.61
ssVE9PI53_HUMAN
p777
(dp778
I3295
F0.78
ssVC3ZHR0_BRAFL
p779
(dp780
I3297
F0.9
sI3101
F0.73
ssVG6DJF6_DANPL
p781
(dp782
I3297
F0.75
ssVF4WH06_ACREC
p783
(dp784
I3297
F0.78
ssVQ8UVG4_LEUER
p785
(dp786
I3094
F0.76
ssVF6YTD7_MACMU
p787
(dp788
I3094
F0.9
sI3295
F0.82
ssVG0MQT7_CAEBE
p789
(dp790
I3297
F0.9
ssVE9PN87_HUMAN
p791
(dp792
I3295
F0.78
ssVH2T323_TAKRU
p793
(dp794
I3297
F0.78
ssVE9INY6_SOLIN
p795
(dp796
I3200
F0.58
sI3297
F0.74
sI3101
F0.58
sI3094
F0.58
sI3165
F0.58
sI3295
F0.58
ssVF1PNF5_CANFA
p797
(dp798
I3297
F0.78
ssVE5S6C7_TRISP
p799
(dp800
I3297
F0.78
ssVG0M887_CAEBE
p801
(dp802
I3297
F0.76
ssVE4XLK7_OIKDI
p803
(dp804
I3297
F0.77
ssVE0VUS6_PEDHC
p805
(dp806
I3297
F0.9
ssVE4YNW7_OIKDI
p807
(dp808
I3101
F0.78
ssVH0X2Y9_OTOGA
p809
(dp810
I3297
F0.77
ssVG7NEC5_MACMU
p811
(dp812
I3295
F0.78
ssVF5GXY6_HUMAN
p813
(dp814
I3094
F0.78
ssVQ4VA80_XENTR
p815
(dp816
I3094
F0.74
sI3295
F0.64
ssVG1PCN2_MYOLU
p817
(dp818
I3295
F0.78
ssVB4PJU3_DROYA
p819
(dp820
I3297
F0.78
ssVH3B9X4_LATCH
p821
(dp822
I3297
F0.9
ssVE9J641_SOLIN
p823
(dp824
I3297
F0.78
ssVH9IZN7_BOMMO
p825
(dp826
I3297
F0.77
ssVQ3V161_MOUSE
p827
(dp828
I3297
F0.78
ssVG2HJC6_PANTR
p829
(dp830
I3101
F0.78
ssVE2QUN0_CANFA
p831
(dp832
I3297
F0.78
ssVQ05CV5_HUMAN
p833
(dp834
I3094
F0.71
sI3295
F0.76
ssVE9PVE0_MOUSE
p835
(dp836
I3297
F0.78
ssVE5T7B4_TRISP
p837
(dp838
I3297
F0.77
ssVG3R587_GORGO
p839
(dp840
I3094
F0.78
ssVA8XJA8_CAEBR
p841
(dp842
I3297
F0.77
ssVH2SN44_TAKRU
p843
(dp844
I3295
F0.77
ssVF1NCX5_CHICK
p845
(dp846
I3297
F0.78
ssVF7VJP5_IXOSC
p847
(dp848
I3297
F0.77
ssVF7GKH7_MONDO
p849
(dp850
I3297
F0.78
ssVG5B7F8_HETGA
p851
(dp852
I3297
F0.78
ssVH3AUF3_LATCH
p853
(dp854
I3297
F0.78
ssVA7SHZ4_NEMVE
p855
(dp856
I3297
F0.76
ssVF7ID46_CALJA
p857
(dp858
I3094
F0.77
sI3295
F0.62
ssVH2YEM2_CIOSA
p859
(dp860
I3297
F0.78
ssVH3CF58_TETNG
p861
(dp862
I3297
F0.78
ssVQ8HY45_BOVIN
p863
(dp864
I3295
F0.78
ssVH2LVP7_ORYLA
p865
(dp866
I3297
F0.78
ssVC3Y4U4_BRAFL
p867
(dp868
I3297
F0.9
ssVG5AS78_HETGA
p869
(dp870
I3295
F0.78
ssVF7FSD6_MACMU
p871
(dp872
I3297
F0.78
ssVH2ME22_ORYLA
p873
(dp874
I3295
F0.76
ssVF7DNU9_MONDO
p875
(dp876
I3295
F0.75
ssVH0WRD5_OTOGA
p877
(dp878
I3297
F0.78
ssVF6ZFW7_CIOIN
p879
(dp880
I3297
F0.77
ssVB0WGA6_CULQU
p881
(dp882
I3297
F0.9
ssVG7P806_MACFA
p883
(dp884
I3297
F0.78
ssVH2Y4M9_CIOSA
p885
(dp886
I3297
F0.77
ssVSO1A1_MOUSE
p887
(dp888
I3094
F0.78
ssVQ9W271_DROME
p889
(dp890
I3297
F0.77
ssVB5DU96_DROPS
p891
(dp892
I3297
F0.77
ssVB3N3F4_DROER
p893
(dp894
I3297
F0.77
ssVG6DN33_DANPL
p895
(dp896
I3297
F0.77
ssVH2XPR3_CIOIN
p897
(dp898
I3101
F0.77
ssVI1FH00_AMPQE
p899
(dp900
I3297
F0.75
sI3094
F0.78
ssVQ9XWC5_CAEEL
p901
(dp902
I3297
F0.77
ssVQ29MS2_DROPS
p903
(dp904
I3297
F0.9
ssVG7N6H0_MACMU
p905
(dp906
I3094
F0.76
sI3295
F0.69
ssVH3BMA8_HUMAN
p907
(dp908
I3094
F0.78
sI3295
F0.63
ssVG7P805_MACFA
p909
(dp910
I3297
F0.78
ssVH0YE11_HUMAN
p911
(dp912
I3295
F0.78
ssVG3GSE6_CRIGR
p913
(dp914
I3297
F0.78
ssVQ4TB95_TETNG
p915
(dp916
I3094
F0.9
sI3295
F0.72
ssVE1GIF3_LOALO
p917
(dp918
I3297
F0.78
ssVF1R5Q0_DANRE
p919
(dp920
I3297
F0.78
ssVB5DI86_DROPS
p921
(dp922
I3297
F0.9
ssVH2YLU4_CIOSA
p923
(dp924
I3094
F0.78
ssVE4YRY7_OIKDI
p925
(dp926
I3297
F0.78
ssVF7CMN7_HORSE
p927
(dp928
I3297
F0.78
ssVE9J936_SOLIN
p929
(dp930
I3297
F0.78
ssVG1NLJ6_MELGA
p931
(dp932
I3094
F0.78
ssVH3IEX2_STRPU
p933
(dp934
I3297
F0.77
ssVQ7Z4M3_HUMAN
p935
(dp936
I3094
F0.72
sI3295
F0.77
ssVH0YRL4_TAEGU
p937
(dp938
I3297
F0.78
ssVH3AI55_LATCH
p939
(dp940
I3101
F0.78
ssVF6TXF8_CIOIN
p941
(dp942
I3297
F0.77
ssVSO6A1_HUMAN
p943
(dp944
I3297
F0.78
ssVE1B7Z8_BOVIN
p945
(dp946
I3297
F0.78
ssVH2YTS6_CIOSA
p947
(dp948
I3101
F0.78
ssVH2YTS0_CIOSA
p949
(dp950
I3101
F0.78
ssVH3DX95_PRIPA
p951
(dp952
I3297
F0.76
ssVF1NQ62_CHICK
p953
(dp954
I3094
F0.73
sI3295
F0.71
ssVC3Z0P8_BRAFL
p955
(dp956
I3297
F0.77
ssVQ6NW72_DANRE
p957
(dp958
I3094
F0.78
ssVG3NHS2_GASAC
p959
(dp960
I3101
F0.78
ssVF6UHG5_MACMU
p961
(dp962
I3094
F0.78
ssVQ4SXT8_TETNG
p963
(dp964
I3297
F0.91
ssVF7IBD4_CALJA
p965
(dp966
I3297
F0.78
ssVB5E0I0_DROPS
p967
(dp968
I3297
F0.77
ssVB5DU97_DROPS
p969
(dp970
I3297
F0.77
ssVG1KQU4_ANOCA
p971
(dp972
I3297
F0.78
ssVA8X8P7_CAEBR
p973
(dp974
I3297
F0.78
sI3094
F0.8
ssVA4QPC2_HUMAN
p975
(dp976
I3297
F0.9
ssVH3B9X5_LATCH
p977
(dp978
I3297
F0.78
ssVF7C2G8_MACMU
p979
(dp980
I3297
F0.91
ssVG1P1F0_MYOLU
p981
(dp982
I3297
F0.77
ssVG0MKS2_CAEBE
p983
(dp984
I3297
F0.78
ssVG5BA83_HETGA
p985
(dp986
I3094
F0.78
ssVF1KY51_ASCSU
p987
(dp988
I3297
F0.77
ssVF7C375_ORNAN
p989
(dp990
I3297
F0.78
ssVB3RLH8_TRIAD
p991
(dp992
I3297
F0.77
ssVH2Z5W6_CIOSA
p993
(dp994
I3297
F0.77
ssVF6SGY8_MONDO
p995
(dp996
I3094
F0.9
sI3295
F0.86
ssVH2YTS4_CIOSA
p997
(dp998
I3101
F0.78
ssVB4KS87_DROMO
p999
(dp1000
I3297
F0.77
ssVB4K2E9_DROGR
p1001
(dp1002
I3297
F0.78
ssVB7QEY7_IXOSC
p1003
(dp1004
I3297
F0.9
ssVF7FQ21_MACMU
p1005
(dp1006
I3297
F0.78
ssVB7Q7G0_IXOSC
p1007
(dp1008
I3297
F0.76
ssVE4XGC5_OIKDI
p1009
(dp1010
I3101
F0.78
ssVH3HTC3_STRPU
p1011
(dp1012
I3297
F0.91
ssVH2YTS7_CIOSA
p1013
(dp1014
I3101
F0.78
ssVF7IEX0_CALJA
p1015
(dp1016
I3297
F0.77
ssVB3SCA7_TRIAD
p1017
(dp1018
I3297
F0.77
ssVF7CVN1_MACMU
p1019
(dp1020
I3297
F0.78
ssVG3R591_GORGO
p1021
(dp1022
I3101
F0.78
ssVB7P3S4_IXOSC
p1023
(dp1024
I3297
F0.9
ssVG3SIV6_GORGO
p1025
(dp1026
I3297
F0.91
ssVH2Y4Q4_CIOSA
p1027
(dp1028
I3297
F0.77
ssVB4J9Q3_DROGR
p1029
(dp1030
I3297
F0.77
ssVG3X9I5_MOUSE
p1031
(dp1032
I3297
F0.78
ssVB3MKU7_DROAN
p1033
(dp1034
I3297
F0.78
ssVH2ZCE8_CIOSA
p1035
(dp1036
I3094
F0.78
ssVF6R7U2_MONDO
p1037
(dp1038
I3101
F0.78
ssVG1L2G8_AILME
p1039
(dp1040
I3094
F0.76
sI3295
F0.68
ssVG3RSC6_GORGO
p1041
(dp1042
I3297
F0.78
ssVC3YC53_BRAFL
p1043
(dp1044
I3297
F0.77
ssVA7SF72_NEMVE
p1045
(dp1046
I3297
F0.77
ssVC3YNL6_BRAFL
p1047
(dp1048
I3297
F0.78
ssVH2YEM1_CIOSA
p1049
(dp1050
I3297
F0.78
ssVF7CCA9_MACMU
p1051
(dp1052
I3297
F0.91
ssVQ4RSB9_TETNG
p1053
(dp1054
I3094
F0.75
sI3295
F0.7
ssVH2MJ41_ORYLA
p1055
(dp1056
I3297
F0.78
ssVA7S542_NEMVE
p1057
(dp1058
I3297
F0.78
ssVG1PLI3_MYOLU
p1059
(dp1060
I3297
F0.78
ssVE2BXT4_HARSA
p1061
(dp1062
I3200
F0.58
sI3297
F0.74
sI3101
F0.59
sI3094
F0.58
sI3165
F0.58
sI3295
F0.58
ssVB4P7V5_DROYA
p1063
(dp1064
I3297
F0.77
ssVC5WLS3_DROME
p1065
(dp1066
I3297
F0.77
ssVH0VA78_CAVPO
p1067
(dp1068
I3094
F0.75
sI3295
F0.74
ssVH2YZB0_CIOSA
p1069
(dp1070
I3297
F0.78
ssVG3WUF8_SARHA
p1071
(dp1072
I3094
F0.78
ssVF7I0Q4_CALJA
p1073
(dp1074
I3297
F0.78
ssVB7QJ14_IXOSC
p1075
(dp1076
I3297
F0.9
ssVG3UCX9_LOXAF
p1077
(dp1078
I3094
F0.78
sI3295
F0.69
ssVH0ZBI5_TAEGU
p1079
(dp1080
I3297
F0.78
ssVH0X513_OTOGA
p1081
(dp1082
I3295
F0.78
ssVQ7PD02_ANOGA
p1083
(dp1084
I3200
F0.67
sI3297
F0.89
sI3101
F0.69
sI3094
F0.67
sI3165
F0.67
sI3295
F0.67
ssVB7Z251_HUMAN
p1085
(dp1086
I3094
F0.76
sI3295
F0.68
ssVF1N3T5_BOVIN
p1087
(dp1088
I3297
F0.78
ssVA1L1V9_DANRE
p1089
(dp1090
I3094
F0.78
ssVB4P218_DROYA
p1091
(dp1092
I3297
F0.77
ssVG1T960_RABIT
p1093
(dp1094
I3094
F0.74
sI3295
F0.73
ssVG5E6X4_LOXAF
p1095
(dp1096
I3297
F0.78
ssVG1PBD6_MYOLU
p1097
(dp1098
I3297
F0.78
ssVA8NLF3_BRUMA
p1099
(dp1100
I3297
F0.77
ssVG4XPA9_CHICK
p1101
(dp1102
I3094
F0.73
sI3295
F0.71
ssVQ4T4U4_TETNG
p1103
(dp1104
I3297
F0.78
ssVB3DJD4_DANRE
p1105
(dp1106
I3094
F0.75
sI3295
F0.7
ssVQ4RH15_TETNG
p1107
(dp1108
I3101
F0.91
ssVH9KS62_APIME
p1109
(dp1110
I3297
F0.77
ssVH2Z044_CIOSA
p1111
(dp1112
I3297
F0.78
ssVG3R1F3_GORGO
p1113
(dp1114
I3297
F0.9
ssVF7AKV5_ORNAN
p1115
(dp1116
I3297
F0.78
ssVE4XJT8_OIKDI
p1117
(dp1118
I3101
F0.77
ssVF7G7M5_CALJA
p1119
(dp1120
I3094
F0.78
sI3295
F0.69
ssVG1QXP1_NOMLE
p1121
(dp1122
I3094
F0.77
sI3295
F0.61
ssVG7YFZ2_CLOSI
p1123
(dp1124
I3297
F0.77
ssVH3EHL5_PRIPA
p1125
(dp1126
I3297
F0.76
ssVQ8BZU3_MOUSE
p1127
(dp1128
I3295
F0.78
ssVH2T5W8_TAKRU
p1129
(dp1130
I3297
F0.78
ssVC3Y5B1_BRAFL
p1131
(dp1132
I3297
F0.77
ssVG1NLJ1_MELGA
p1133
(dp1134
I3094
F0.78
ssVF1KSM1_ASCSU
p1135
(dp1136
I3297
F0.77
ssVA9UV41_MONBE
p1137
(dp1138
I3297
F0.77
ssVB4JPT7_DROGR
p1139
(dp1140
I3297
F0.78
ssVG1MVM8_MELGA
p1141
(dp1142
I3101
F0.78
ssVB3RLL4_TRIAD
p1143
(dp1144
I3297
F0.77
ssVH0XUZ7_OTOGA
p1145
(dp1146
I3094
F0.76
sI3295
F0.66
ssVA2VDW7_BOVIN
p1147
(dp1148
I3094
F0.78
ssVB4G8T8_DROPE
p1149
(dp1150
I3297
F0.9
ssVE3XBZ7_ANODA
p1151
(dp1152
I3200
F0.68
sI3297
F0.89
sI3101
F0.69
sI3094
F0.68
sI3165
F0.68
sI3295
F0.68
ssVB3MNT5_DROAN
p1153
(dp1154
I3297
F0.9
ssVB3S1M4_TRIAD
p1155
(dp1156
I3297
F0.77
ssVG3RY32_GORGO
p1157
(dp1158
I3094
F0.78
sI3295
F0.59
ssVF7DID9_ORNAN
p1159
(dp1160
I3297
F0.78
ssVQ28XS7_DROPS
p1161
(dp1162
I3297
F0.77
ssVQ5S2D3_MACFA
p1163
(dp1164
I3094
F0.78
sI3295
F0.62
ssVB4MWM3_DROWI
p1165
(dp1166
I3297
F0.9
ssVQ5RIX3_DANRE
p1167
(dp1168
I3094
F0.75
sI3295
F0.7
ssVF7CCB9_MACMU
p1169
(dp1170
I3297
F0.91
ssVQ99K89_MOUSE
p1171
(dp1172
I3094
F0.78
ssVH6WA55_PIG
p1173
(dp1174
I3094
F0.78
ssVG3NEF6_GASAC
p1175
(dp1176
I3297
F0.78
ssVE5SGU0_TRISP
p1177
(dp1178
I3297
F0.9
ssVE9PPI0_HUMAN
p1179
(dp1180
I3297
F0.78
ssVA7SX54_NEMVE
p1181
(dp1182
I3297
F0.77
ssVF4X7Y0_ACREC
p1183
(dp1184
I3297
F0.9
ssVG4VAF3_SCHMA
p1185
(dp1186
I3297
F0.77
ssVH3HUF6_STRPU
p1187
(dp1188
I3297
F0.77
ssVF7EAL1_XENTR
p1189
(dp1190
I3101
F0.9
sI3295
F0.67
ssVH2Z037_CIOSA
p1191
(dp1192
I3297
F0.78
ssVA7SQZ6_NEMVE
p1193
(dp1194
I3297
F0.77
ssVD3ZE40_RAT
p1195
(dp1196
I3094
F0.78
ssVH2SN41_TAKRU
p1197
(dp1198
I3295
F0.78
ssVG7N490_MACMU
p1199
(dp1200
I3297
F0.78
ssVH9GXK5_DANRE
p1201
(dp1202
I3297
F0.74
sI3094
F0.76
sI3295
F0.61
ssVB3S8K8_TRIAD
p1203
(dp1204
I3297
F0.77
ssVG1L2C5_AILME
p1205
(dp1206
I3094
F0.71
sI3295
F0.77
ssVB4LFS2_DROVI
p1207
(dp1208
I3297
F0.78
ssVG3W0G6_SARHA
p1209
(dp1210
I3297
F0.78
ssVH0VHL9_CAVPO
p1211
(dp1212
I3297
F0.78
ssVF1KYN7_ASCSU
p1213
(dp1214
I3297
F0.77
ssVH2WJ12_CAEJA
p1215
(dp1216
I3297
F0.78
sI3094
F0.8
ssVE5SC62_TRISP
p1217
(dp1218
I3297
F0.77
ssVC3Z0P6_BRAFL
p1219
(dp1220
I3297
F0.9
ssVA8WMG1_CAEBR
p1221
(dp1222
I3297
F0.9
ssVG7MVH8_MACMU
p1223
(dp1224
I3297
F0.91
ssVH2UZP2_TAKRU
p1225
(dp1226
I3101
F0.78
ssVE9PWV5_MOUSE
p1227
(dp1228
I3094
F0.78
ssVF1PR70_CANFA
p1229
(dp1230
I3101
F0.78
ssVF7ACD4_CIOIN
p1231
(dp1232
I3297
F0.78
ssVQ9CUE6_MOUSE
p1233
(dp1234
I3297
F0.78
ssVH2QKR2_PANTR
p1235
(dp1236
I3297
F0.91
ssVB3SCA8_TRIAD
p1237
(dp1238
I3297
F0.77
ssVE4YK88_OIKDI
p1239
(dp1240
I3101
F0.78
ssVB3NHU3_DROER
p1241
(dp1242
I3297
F0.78
ssVQ1LV73_DANRE
p1243
(dp1244
I3297
F0.78
ssVQ5TS68_ANOGA
p1245
(dp1246
I3297
F0.78
ssVC9JHU9_HUMAN
p1247
(dp1248
I3094
F0.78
ssVH2T5W9_TAKRU
p1249
(dp1250
I3297
F0.78
ssVB0JZP7_DANRE
p1251
(dp1252
I3094
F0.78
ssVQ29PI1_DROPS
p1253
(dp1254
I3297
F0.78
ssVQ8SWY1_DROME
p1255
(dp1256
I3297
F0.78
ssVF1RN61_PIG
p1257
(dp1258
I3297
F0.78
ssVA8P8W0_BRUMA
p1259
(dp1260
I3297
F0.77
ssVF1R1R0_DANRE
p1261
(dp1262
I3094
F0.78
ssVH2UWX2_TAKRU
p1263
(dp1264
I3094
F0.76
sI3295
F0.71
ssVG3VY35_SARHA
p1265
(dp1266
I3297
F0.78
ssVH2RFP8_PANTR
p1267
(dp1268
I3297
F0.77
ssVB3RLL2_TRIAD
p1269
(dp1270
I3297
F0.76
ssVH2NGS3_PONAB
p1271
(dp1272
I3094
F0.78
sI3295
F0.75
ssVF6W284_MONDO
p1273
(dp1274
I3297
F0.78
ssVH2YLU2_CIOSA
p1275
(dp1276
I3094
F0.78
ssVA7S543_NEMVE
p1277
(dp1278
I3297
F0.78
ssVC9JL32_HUMAN
p1279
(dp1280
I3297
F0.78
ssVF7CCC4_MACMU
p1281
(dp1282
I3297
F0.78
ssVD2H9L3_AILME
p1283
(dp1284
I3297
F0.78
ssVSO1B7_HUMAN
p1285
(dp1286
I3094
F0.77
sI3295
F0.63
ssVH1A264_TAEGU
p1287
(dp1288
I3094
F0.78
ssVG7MJR1_MACMU
p1289
(dp1290
I3101
F0.75
ssVF7HIU8_CALJA
p1291
(dp1292
I3094
F0.91
sI3295
F0.86
ssVH2UWX8_TAKRU
p1293
(dp1294
I3094
F0.76
sI3295
F0.71
ssVH2NGS1_PONAB
p1295
(dp1296
I3094
F0.78
sI3295
F0.69
ssVG1KTZ9_ANOCA
p1297
(dp1298
I3094
F0.74
sI3295
F0.72
ssVH2YEL5_CIOSA
p1299
(dp1300
I3297
F0.78
ssVB3MGJ3_DROAN
p1301
(dp1302
I3297
F0.77
ssVH3J2X2_STRPU
p1303
(dp1304
I3297
F0.77
ssVQ4T4U6_TETNG
p1305
(dp1306
I3297
F0.78
ssVC3ZDG1_BRAFL
p1307
(dp1308
I3297
F0.77
ssVH3FD01_PRIPA
p1309
(dp1310
I3297
F0.77
ssVE3MQS8_CAERE
p1311
(dp1312
I3297
F0.78
sI3094
F0.8
ssVG3SR33_LOXAF
p1313
(dp1314
I3297
F0.78
ssVF1Q3Z3_CANFA
p1315
(dp1316
I3297
F0.78
ssVH3J9Z6_STRPU
p1317
(dp1318
I3297
F0.77
ssVC3ZJE6_BRAFL
p1319
(dp1320
I3297
F0.77
ssVQ6PA32_XENLA
p1321
(dp1322
I3101
F0.78
ssVF1MQ45_BOVIN
p1323
(dp1324
I3101
F0.78
ssVH9GXA5_DANRE
p1325
(dp1326
I3094
F0.78
ssVE4YRY6_OIKDI
p1327
(dp1328
I3297
F0.78
ssVF6UHW9_MACMU
p1329
(dp1330
I3094
F0.76
sI3295
F0.78
ssVG7PK04_MACFA
p1331
(dp1332
I3094
F0.78
ssVE5S6E1_TRISP
p1333
(dp1334
I3297
F0.78
ssVQ171D6_AEDAE
p1335
(dp1336
I3297
F0.89
sI3101
F0.68
ssVE7F5H8_DANRE
p1337
(dp1338
I3297
F0.78
ssVF7DNH2_MONDO
p1339
(dp1340
I3295
F0.77
ssVH9KGE9_APIME
p1341
(dp1342
I3297
F0.78
ssVH2L5X8_ORYLA
p1343
(dp1344
I3101
F0.78
ssVE0CXJ0_MOUSE
p1345
(dp1346
I3297
F0.77
ssVG4VN11_SCHMA
p1347
(dp1348
I3297
F0.9
ssVF6ZDD5_CIOIN
p1349
(dp1350
I3297
F0.78
ssVA7RMR8_NEMVE
p1351
(dp1352
I3297
F0.77
ssVSO1A3_RAT
p1353
(dp1354
I3094
F0.78
ssVQ4ST26_TETNG
p1355
(dp1356
I3295
F0.76
ssVA8PR64_BRUMA
p1357
(dp1358
I3297
F0.78
ssVE5S461_TRISP
p1359
(dp1360
I3297
F0.77
ssVE1FVI2_LOALO
p1361
(dp1362
I3297
F0.77
ssVH2YLU5_CIOSA
p1363
(dp1364
I3094
F0.78
ssVH0ZQ14_TAEGU
p1365
(dp1366
I3094
F0.76
sI3295
F0.69
ssVE9GGR7_DAPPU
p1367
(dp1368
I3297
F0.77
ssVF7E5T7_MACMU
p1369
(dp1370
I3295
F0.77
ssVG1MG68_AILME
p1371
(dp1372
I3297
F0.78
ssVE5T438_TRISP
p1373
(dp1374
I3297
F0.77
ssVB4JPT6_DROGR
p1375
(dp1376
I3297
F0.78
ssVE1BZ96_CHICK
p1377
(dp1378
I3101
F0.78
ssVB4I823_DROSE
p1379
(dp1380
I3297
F0.9
ssVB3NNF5_DROER
p1381
(dp1382
I3297
F0.78
ssVH2YZB2_CIOSA
p1383
(dp1384
I3297
F0.78
ssVG1TCQ0_RABIT
p1385
(dp1386
I3297
F0.78
ssVH0ZXX3_TAEGU
p1387
(dp1388
I3101
F0.78
ssVSO4C1_HUMAN
p1389
(dp1390
I3297
F0.78
ssVH2XL58_CIOIN
p1391
(dp1392
I3297
F0.78
ssVF6TIF0_CIOIN
p1393
(dp1394
I3297
F0.78
ssVB4E3M3_HUMAN
p1395
(dp1396
I3295
F0.78
ssVH3IPC8_STRPU
p1397
(dp1398
I3297
F0.76
ssVQ63HP3_HUMAN
p1399
(dp1400
I3297
F0.78
ssVH0ZTB1_TAEGU
p1401
(dp1402
I3101
F0.89
ssVG0N8V9_CAEBE
p1403
(dp1404
I3297
F0.78
sI3094
F0.8
ssVA7SXF8_NEMVE
p1405
(dp1406
I3297
F0.9
ssVE1FKB9_LOALO
p1407
(dp1408
I3297
F0.78
ssVE0VDU2_PEDHC
p1409
(dp1410
I3297
F0.77
ssVB4N051_DROWI
p1411
(dp1412
I3297
F0.78
ssVH2ZCE9_CIOSA
p1413
(dp1414
I3094
F0.78
ssVG7PK02_MACFA
p1415
(dp1416
I3094
F0.9
sI3295
F0.82
ssVH2T5X1_TAKRU
p1417
(dp1418
I3297
F0.78
ssVB3S5X6_TRIAD
p1419
(dp1420
I3297
F0.76
ssVF7ACE2_CIOIN
p1421
(dp1422
I3297
F0.77
ssVE7FFX7_DANRE
p1423
(dp1424
I3297
F0.78
ssVF6SGU3_MONDO
p1425
(dp1426
I3094
F0.76
sI3295
F0.66
ssVA8PP34_BRUMA
p1427
(dp1428
I3297
F0.77
ssVG1TBX5_RABIT
p1429
(dp1430
I3094
F0.78
ssVG3T4K9_LOXAF
p1431
(dp1432
I3101
F0.78
ssVH0WHB7_OTOGA
p1433
(dp1434
I3094
F0.78
sI3295
F0.69
ssVH2LP38_ORYLA
p1435
(dp1436
I3297
F0.78
ssVG3VET7_SARHA
p1437
(dp1438
I3297
F0.78
ssVG7NXY6_MACFA
p1439
(dp1440
I3101
F0.77
ssVA7SC64_NEMVE
p1441
(dp1442
I3297
F0.76
ssVG1QXW4_NOMLE
p1443
(dp1444
I3094
F0.78
ssVB3RLK8_TRIAD
p1445
(dp1446
I3297
F0.77
ssVE5L948_CHICK
p1447
(dp1448
I3101
F0.78
ssVQ05D10_MOUSE
p1449
(dp1450
I3295
F0.78
ssVH3AXL7_LATCH
p1451
(dp1452
I3094
F0.78
ssVSO3A1_MOUSE
p1453
(dp1454
I3297
F0.78
ssVH2QWA0_PANTR
p1455
(dp1456
I3297
F0.78
ssVH0ZUP8_TAEGU
p1457
(dp1458
I3094
F0.89
sI3295
F0.87
ssVC3XWF0_BRAFL
p1459
(dp1460
I3297
F0.77
ssVQ8HYR2_CANFA
p1461
(dp1462
I3094
F0.78
ssVE3LZ73_CAERE
p1463
(dp1464
I3297
F0.78
ssVH9KAI9_APIME
p1465
(dp1466
I3297
F0.78
ssVH2UZP0_TAKRU
p1467
(dp1468
I3101
F0.78
ssVQ2KIT2_BOVIN
p1469
(dp1470
I3094
F0.71
sI3295
F0.77
ssVC3Y4T7_BRAFL
p1471
(dp1472
I3297
F0.77
ssVB6IDW0_DROME
p1473
(dp1474
I3297
F0.78
ssVG1QXS7_NOMLE
p1475
(dp1476
I3094
F0.78
sI3295
F0.78
ssVE1GNC7_LOALO
p1477
(dp1478
I3297
F0.77
ssVF7HIG5_CALJA
p1479
(dp1480
I3297
F0.9
ssVH9ILJ9_ATTCE
p1481
(dp1482
I3297
F0.78
ssVE9PRW4_HUMAN
p1483
(dp1484
I3295
F0.77
ssVE9PKK5_HUMAN
p1485
(dp1486
I3297
F0.9
ssVF1PNZ6_CANFA
p1487
(dp1488
I3295
F0.78
ssVB4I825_DROSE
p1489
(dp1490
I3297
F0.77
ssVF7F6D8_MACMU
p1491
(dp1492
I3297
F0.78
ssVG0MHZ3_CAEBE
p1493
(dp1494
I3297
F0.78
ssVB4KJT0_DROMO
p1495
(dp1496
I3297
F0.78
ssVB3SCW7_TRIAD
p1497
(dp1498
I3297
F0.77
ssVH0YGG9_HUMAN
p1499
(dp1500
I3094
F0.78
ssVH2SN40_TAKRU
p1501
(dp1502
I3295
F0.78
ssVF7GWL6_CALJA
p1503
(dp1504
I3297
F0.78
ssVG1S4Y5_NOMLE
p1505
(dp1506
I3295
F0.78
ssVD6W853_TRICA
p1507
(dp1508
I3297
F0.78
ssVQ16RK9_AEDAE
p1509
(dp1510
I3297
F0.77
ssVQ6PAW3_XENLA
p1511
(dp1512
I3094
F0.78
ssVH9F610_MACMU
p1513
(dp1514
I3094
F0.78
sI3295
F0.69
ssVG5BGR0_HETGA
p1515
(dp1516
I3297
F0.78
ssVH2SCH4_TAKRU
p1517
(dp1518
I3094
F0.77
ssVQ8HYR1_CANFA
p1519
(dp1520
I3094
F0.71
sI3295
F0.77
ssVF5GZD6_HUMAN
p1521
(dp1522
I3094
F0.76
sI3295
F0.68
ssVB4GJ27_DROPE
p1523
(dp1524
I3297
F0.78
ssVD3ZXC2_RAT
p1525
(dp1526
I3094
F0.91
ssVH3I0T8_STRPU
p1527
(dp1528
I3297
F0.77
ssVH3HHK4_STRPU
p1529
(dp1530
I3297
F0.77
ssVC9J020_HUMAN
p1531
(dp1532
I3297
F0.91
ssVA0NEW4_ANOGA
p1533
(dp1534
I3297
F0.77
ssVSO1C1_MACFA
p1535
(dp1536
I3094
F0.91
sI3295
F0.86
ssVB4KJT1_DROMO
p1537
(dp1538
I3297
F0.78
ssVF6SGZ5_MONDO
p1539
(dp1540
I3094
F0.76
sI3295
F0.69
ssVG1P4J5_MYOLU
p1541
(dp1542
I3101
F0.78
ssVH3CFR7_TETNG
p1543
(dp1544
I3297
F0.74
sI3094
F0.83
sI3295
F0.72
ssVE3WL15_ANODA
p1545
(dp1546
I3297
F0.78
ssVG2HH35_PANTR
p1547
(dp1548
I3297
F0.78
ssVF1QBM3_DANRE
p1549
(dp1550
I3094
F0.78
ssVA4QP87_DANRE
p1551
(dp1552
I3101
F0.78
ssVH2XZS4_CIOIN
p1553
(dp1554
I3297
F0.76
ssVH9JZN1_APIME
p1555
(dp1556
I3297
F0.78
ssVH2UZP3_TAKRU
p1557
(dp1558
I3101
F0.78
ssVH0V3C7_CAVPO
p1559
(dp1560
I3101
F0.78
ssVH3J9Z5_STRPU
p1561
(dp1562
I3297
F0.76
ssVD2H1D5_AILME
p1563
(dp1564
I3295
F0.77
ssVE9QKD5_MOUSE
p1565
(dp1566
I3094
F0.78
ssVG3HH20_CRIGR
p1567
(dp1568
I3094
F0.9
sI3295
F0.86
ssVG3RTK1_GORGO
p1569
(dp1570
I3295
F0.78
ssVG3NAU5_GASAC
p1571
(dp1572
I3295
F0.75
ssVB4MFR5_DROVI
p1573
(dp1574
I3297
F0.78
ssVF6W6U1_CALJA
p1575
(dp1576
I3295
F0.78
ssVG1KTZ7_ANOCA
p1577
(dp1578
I3094
F0.78
ssVSO3A1_HUMAN
p1579
(dp1580
I3297
F0.78
ssVB4GHI6_DROPE
p1581
(dp1582
I3297
F0.78
ssVQ5U341_RAT
p1583
(dp1584
I3094
F0.91
ssVF7G693_MONDO
p1585
(dp1586
I3297
F0.78
ssVQ4TE08_TETNG
p1587
(dp1588
I3297
F0.78
ssVQ924H6_RAT
p1589
(dp1590
I3297
F0.75
ssVI1FF19_AMPQE
p1591
(dp1592
I3297
F0.77
ssVB3N5U3_DROER
p1593
(dp1594
I3297
F0.78
ssVB3MGJ2_DROAN
p1595
(dp1596
I3297
F0.77
ssVF7BQZ3_MONDO
p1597
(dp1598
I3101
F0.78
ssVG1NLI1_MELGA
p1599
(dp1600
I3094
F0.77
sI3295
F0.69
ssVG1RKH9_NOMLE
p1601
(dp1602
I3297
F0.78
ssVH2ZCF1_CIOSA
p1603
(dp1604
I3297
F0.77
sI3094
F0.8
ssVF1SUN1_PIG
p1605
(dp1606
I3295
F0.78
ssVF7D880_XENTR
p1607
(dp1608
I3297
F0.78
ssVC3Y4U3_BRAFL
p1609
(dp1610
I3297
F0.9
ssVSO1A5_RAT
p1611
(dp1612
I3094
F0.78
ssVF7A755_MACMU
p1613
(dp1614
I3295
F0.91
ssVH3CRD4_TETNG
p1615
(dp1616
I3297
F0.78
ssVB3S2R8_TRIAD
p1617
(dp1618
I3297
F0.77
ssVQ4TE07_TETNG
p1619
(dp1620
I3297
F0.78
ssVC3YKF4_BRAFL
p1621
(dp1622
I3297
F0.77
ssVQ7PJX4_ANOGA
p1623
(dp1624
I3200
F0.67
sI3297
F0.89
sI3101
F0.69
sI3094
F0.67
sI3165
F0.67
sI3295
F0.67
ssVF1R204_DANRE
p1625
(dp1626
I3094
F0.78
ssVG7MVH9_MACMU
p1627
(dp1628
I3297
F0.91
ssVB4P7G3_DROYA
p1629
(dp1630
I3297
F0.77
ssVH0ZN83_TAEGU
p1631
(dp1632
I3094
F0.78
ssVH3CAN1_TETNG
p1633
(dp1634
I3094
F0.77
ssVC9K059_HUMAN
p1635
(dp1636
I3094
F0.78
ssVG5BJ45_HETGA
p1637
(dp1638
I3094
F0.75
sI3295
F0.74
ssVG7N6H2_MACMU
p1639
(dp1640
I3094
F0.76
sI3295
F0.78
ssVB4MFR1_DROVI
p1641
(dp1642
I3297
F0.77
ssVE0W4B1_PEDHC
p1643
(dp1644
I3297
F0.76
sI3094
F0.77
sI3295
F0.7
ssVH9GK46_ANOCA
p1645
(dp1646
I3101
F0.7
ssVG8F3I8_MACFA
p1647
(dp1648
I3295
F0.78
ssVF7HBN9_MACMU
p1649
(dp1650
I3094
F0.76
sI3295
F0.68
ssVB7PBP5_IXOSC
p1651
(dp1652
I3101
F0.77
ssVSO4C1_RAT
p1653
(dp1654
I3297
F0.78
ssVQ6NSD0_HUMAN
p1655
(dp1656
I3094
F0.78
ssVE4YPG6_OIKDI
p1657
(dp1658
I3297
F0.77
ssVH3ICI9_STRPU
p1659
(dp1660
I3297
F0.77
ssVB7Z8P1_HUMAN
p1661
(dp1662
I3094
F0.78
sI3295
F0.69
ssVQ9D4B7_MOUSE
p1663
(dp1664
I3297
F0.78
ssVG3VZ81_SARHA
p1665
(dp1666
I3297
F0.78
ssVB4HKT6_DROSE
p1667
(dp1668
I3297
F0.77
ssVQ30BK7_HORSE
p1669
(dp1670
I3295
F0.78
ssVF7F9F8_MACMU
p1671
(dp1672
I3101
F0.75
ssVB3NNF4_DROER
p1673
(dp1674
I3297
F0.77
ssVSO1B1_HUMAN
p1675
(dp1676
I3094
F0.78
ssVH3BW13_TETNG
p1677
(dp1678
I3297
F0.78
ssVF7DYT3_ORNAN
p1679
(dp1680
I3295
F0.77
ssVD2HT77_AILME
p1681
(dp1682
I3297
F0.78
ssVF1LRQ7_RAT
p1683
(dp1684
I3094
F0.78
ssVF7DNV8_MONDO
p1685
(dp1686
I3295
F0.77
ssVE9G6H1_DAPPU
p1687
(dp1688
I3297
F0.76
ssVF1MA40_RAT
p1689
(dp1690
I3297
F0.75
ssVO62421_CAEEL
p1691
(dp1692
I3297
F0.78
sI3094
F0.8
ssVH9FYQ5_MACMU
p1693
(dp1694
I3094
F0.78
ssVD3YUC4_MOUSE
p1695
(dp1696
I3297
F0.78
ssVB3NNF3_DROER
p1697
(dp1698
I3297
F0.77
ssVC3ZQA6_BRAFL
p1699
(dp1700
I3297
F0.77
ssVQ21157_CAEEL
p1701
(dp1702
I3297
F0.76
ssVH3C9A1_TETNG
p1703
(dp1704
I3297
F0.91
ssVG3X9V3_MOUSE
p1705
(dp1706
I3094
F0.76
sI3295
F0.72
ssVH2SN43_TAKRU
p1707
(dp1708
I3295
F0.78
ssVE5SGT9_TRISP
p1709
(dp1710
I3297
F0.9
ssVSO2A1_RAT
p1711
(dp1712
I3101
F0.78
ssVB3S1M3_TRIAD
p1713
(dp1714
I3297
F0.77
ssVG6DHQ3_DANPL
p1715
(dp1716
I3297
F0.77
ssVE1C5S3_CHICK
p1717
(dp1718
I3101
F0.76
ssVG3UNP0_LOXAF
p1719
(dp1720
I3297
F0.78
ssVQ8BX59_MOUSE
p1721
(dp1722
I3297
F0.77
ssVA5PMD7_DANRE
p1723
(dp1724
I3094
F0.74
sI3295
F0.72
ssVQ69ZW9_MOUSE
p1725
(dp1726
I3295
F0.78
ssVH2SCH2_TAKRU
p1727
(dp1728
I3094
F0.77
ssVG6D5X6_DANPL
p1729
(dp1730
I3297
F0.78
ssVB3KP78_HUMAN
p1731
(dp1732
I3094
F0.78
ssVH2Z036_CIOSA
p1733
(dp1734
I3297
F0.78
ssVE7ERN5_HUMAN
p1735
(dp1736
I3295
F0.73
ssVG3T9M3_LOXAF
p1737
(dp1738
I3094
F0.78
ssVE6ZIN8_DICLA
p1739
(dp1740
I3297
F0.9
ssVSO1A6_MOUSE
p1741
(dp1742
I3094
F0.78
ssVH0V134_CAVPO
p1743
(dp1744
I3297
F0.78
ssVF6XDL7_CALJA
p1745
(dp1746
I3295
F0.78
ssVD2HVB1_AILME
p1747
(dp1748
I3094
F0.76
sI3295
F0.68
ssVC3Z0P7_BRAFL
p1749
(dp1750
I3297
F0.77
ss.