(dp0
S'nopreds'
p1
(lp2
S'/data_more/SIFER_webserver/src/sifter_webserver/sifter_web/output/1519631_nopreds.txt'
p3
aI1
asS'result'
p4
(lp5
(lp6
VZDH14_HUMAN
p7
aVQ8IZN3
p8
aVHomo sapiens
p9
aI9606
a(lp10
(lp11
VGO:0019706
p12
aVprotein-cysteine S-palmitoyltransferase activity
p13
aS'0.89'
p14
aa(lp15
VGO:0004871
p16
aVsignal transducer activity
p17
aS'0.38'
p18
aa(lp19
VGO:0000035
p20
aVacyl binding
p21
aS'0.38'
p22
aa(lp23
VGO:0005515
p24
aVprotein binding
p25
aS'0.38'
p26
aa(lp27
VGO:0015095
p28
aVmagnesium ion transmembrane transporter activity
p29
aS'0.38'
p30
aa(lp31
VGO:0003677
p32
aVDNA binding
p33
aS'0.38'
p34
aaaa(lp35
VATS12_HUMAN
p36
aVP58397
p37
ag9
aI9606
a(lp38
(lp39
VGO:0004222
p40
aVmetalloendopeptidase activity
p41
aS'0.83'
p42
aa(lp43
VGO:0002020
p44
aVprotease binding
p45
aS'0.81'
p46
aa(lp47
VGO:0008270
p48
aVzinc ion binding
p49
aS'0.8'
p50
aa(lp51
VGO:0005178
p52
aVintegrin binding
p53
aS'0.8'
p54
aa(lp55
VGO:0009673
p56
aVlow affinity phosphate transmembrane transporter activity
p57
aS'0.78'
p58
aa(lp59
VGO:0005509
p60
aVcalcium ion binding
p61
aS'0.78'
p62
aa(lp63
VGO:0008201
p64
aVheparin binding
p65
aS'0.78'
p66
aa(lp67
VGO:0005201
p68
aVextracellular matrix structural constituent
p69
aS'0.77'
p70
aaaa(lp71
VGNT2C_HUMAN
p72
aVQ8NFS9
p73
ag9
aI9606
a(lp74
(lp75
VGO:0008109
p76
aVN-acetyllactosaminide beta-1,6-N-acetylglucosaminyltransferase activity
p77
aS'0.92'
p78
aa(lp79
VGO:0047225
p80
aVacetylgalactosaminyl-O-glycosyl-glycoprotein beta-1,6-N-acetylglucosaminyltransferase activity
p81
aS'0.05'
p82
aa(lp83
VGO:0003829
p84
aVbeta-1,3-galactosyl-O-glycosyl-glycoprotein beta-1,6-N-acetylglucosaminyltransferase activity
p85
aS'0.05'
p86
aaaa(lp87
VABCAC_HUMAN
p88
aVQ86UK0
p89
ag9
aI9606
a(lp90
(lp91
VGO:0005524
p92
aVATP binding
p93
aS'0.63'
p94
aa(lp95
VGO:0017127
p96
aVcholesterol transporter activity
p97
aS'0.56'
p98
aa(lp99
VGO:0019905
p100
aVsyntaxin binding
p101
aS'0.55'
p102
aa(lp103
VGO:0034186
p104
aVapolipoprotein A-I binding
p105
aS'0.53'
p106
aa(lp107
VGO:0034188
p108
aVapolipoprotein A-I receptor activity
p109
aS'0.53'
p110
aa(lp111
VGO:0031267
p112
aVsmall GTPase binding
p113
aS'0.52'
p114
aa(lp115
VGO:0042803
p116
aVprotein homodimerization activity
p117
aS'0.47'
p118
aaaa(lp119
VRISC_MOUSE
p120
aVQ920A5
p121
aVMus musculus
p122
aI10090
a(lp123
(lp124
VGO:0004185
p125
aVserine-type carboxypeptidase activity
p126
aS'0.93'
p127
aa(lp128
VGO:0008047
p129
aVenzyme activator activity
p130
aS'0.02'
p131
aa(lp132
VGO:0046982
p133
aVprotein heterodimerization activity
p134
aS'0.02'
p135
aa(lp136
VGO:0016754
p137
aVsinapoylglucose-malate O-sinapoyltransferase activity
p138
aS'0.02'
p139
aaaa(lp140
VPGAM4_HUMAN
p141
aVQ8N0Y7
p142
ag9
aI9606
a(lp143
(lp144
VGO:0003873
p145
aV6-phosphofructo-2-kinase activity
p146
aS'0.46'
p147
aa(lp148
VGO:0046538
p149
aV2,3-bisphosphoglycerate-dependent phosphoglycerate mutase activity
p150
aS'0.38'
p151
aaaa(lp152
VGNT2A_HUMAN
p153
aVQ8N0V5
p154
ag9
aI9606
a(lp155
(lp156
g76
ag77
aS'0.9'
p157
aa(lp158
g80
ag81
aS'0.12'
p159
aa(lp160
g84
ag85
aS'0.12'
p161
aa(lp162
VGO:0030158
p163
aVprotein xylosyltransferase activity
p164
aS'0.11'
p165
aaaa(lp166
VCA2D4_HUMAN
p167
aVQ7Z3S7
p168
ag9
aI9606
a(lp169
(lp170
VGO:0005245
p171
aVvoltage-gated calcium channel activity
p172
aS'0.9'
p173
aa(lp174
VGO:0005246
p175
aVcalcium channel regulator activity
p176
aS'0.34'
p177
aa(lp178
VGO:0016757
p179
aVtransferase activity, transferring glycosyl groups
p180
aS'0.3'
p181
aaaa(lp182
VVWA2_HUMAN
p183
aVQ5GFL6
p184
ag9
aI9606
a(lp185
(lp186
g116
ag117
aS'0.58'
p187
aa(lp188
VGO:0043395
p189
aVheparan sulfate proteoglycan binding
p190
aS'0.51'
p191
aa(lp192
VGO:0019903
p193
aVprotein phosphatase binding
p194
aS'0.44'
p195
aaaa(lp196
VH2A3_HUMAN
p197
aVQ7L7L0
p198
ag9
aI9606
a(lp199
(lp200
VGO:0003684
p201
aVdamaged DNA binding
p202
aS'0.16'
p203
aa(lp204
VGO:0000978
p205
aVRNA polymerase II core promoter proximal region sequence-specific DNA binding
p206
aS'0.16'
p207
aa(lp208
VGO:0019237
p209
aVcentromeric DNA binding
p210
aS'0.16'
p211
aaaa(lp212
VPHLB3_HUMAN
p213
aVQ6NSJ2
p214
ag9
aI9606
a(lp215
(lp216
VGO:0048365
p217
aVRac GTPase binding
p218
aS'0.75'
p219
aa(lp220
VGO:0036033
p221
aVmediator complex binding
p222
aS'0.6'
p223
aaaa(lp224
VZDHC2_HUMAN
p225
aVQ9UIJ5
p226
ag9
aI9606
a(lp227
(lp228
g12
ag13
aS'0.91'
p229
aa(lp230
g16
ag17
aS'0.13'
p231
aa(lp232
g20
ag21
aS'0.13'
p233
aa(lp234
g24
ag25
aS'0.13'
p235
aa(lp236
g28
ag29
aS'0.13'
p237
aa(lp238
g32
ag33
aS'0.13'
p239
aaaa(lp240
VDIRA1_HUMAN
p241
aVO95057
p242
ag9
aI9606
a(lp243
(lp244
VGO:0005525
p245
aVGTP binding
p246
aS'0.66'
p247
aa(lp248
VGO:0003924
p249
aVGTPase activity
p250
aS'0.46'
p251
aaaa(lp252
VDIRA2_HUMAN
p253
aVQ96HU8
p254
ag9
aI9606
a(lp255
(lp256
g245
ag246
aS'0.83'
p257
aa(lp258
g249
ag250
aS'0.46'
p259
aa(lp260
VGO:0031681
p261
aVG-protein beta-subunit binding
p262
aS'0.44'
p263
aa(lp264
VGO:0016887
p265
aVATPase activity
p266
aS'0.43'
p267
aa(lp268
VGO:0031624
p269
aVubiquitin conjugating enzyme binding
p270
aS'0.43'
p271
aa(lp272
g92
ag93
aS'0.43'
p273
aa(lp274
VGO:0017137
p275
aVRab GTPase binding
p276
aS'0.43'
p277
aaaa(lp278
VMOS_HUMAN
p279
aVP00540
p280
ag9
aI9606
a(lp281
(lp282
VGO:0004709
p283
aVMAP kinase kinase kinase activity
p284
aS'0.62'
p285
aa(lp286
VGO:0000287
p287
aVmagnesium ion binding
p288
aS'0.3'
p289
aa(lp290
VGO:0030274
p291
aVLIM domain binding
p292
aS'0.24'
p293
aaaa(lp294
V1B48_HUMAN
p295
aVP30486
p296
ag9
aI9606
a(lp297
(lp298
VGO:0042605
p299
aVpeptide antigen binding
p300
aS'0.9'
p301
aa(lp302
VGO:0032395
p303
aVMHC class II receptor activity
p304
aS'0.76'
p305
aa(lp306
g133
ag134
aS'0.75'
p307
aa(lp308
VGO:0030881
p309
aVbeta-2-microglobulin binding
p310
aS'0.75'
p311
aaaa(lp312
VMOS_XENLA
p313
aVP12965
p314
aVXenopus laevis
p315
aI8355
a(lp316
(lp317
g283
ag284
aS'0.64'
p318
aa(lp319
g287
ag288
aS'0.3'
p320
aa(lp321
g291
ag292
aS'0.25'
p322
aaaa(lp323
VZDH15_HUMAN
p324
aVQ96MV8
p325
ag9
aI9606
a(lp326
(lp327
g12
ag13
aS'0.9'
p328
aa(lp329
g16
ag17
aS'0.23'
p330
aa(lp331
g20
ag21
aS'0.23'
p332
aa(lp333
g24
ag25
aS'0.23'
p334
aa(lp335
g28
ag29
aS'0.23'
p336
aa(lp337
g32
ag33
aS'0.23'
p338
aaaa(lp339
VZDHC1_HUMAN
p340
aVQ8WTX9
p341
ag9
aI9606
a(lp342
(lp343
g12
ag13
aS'0.93'
p344
aa(lp345
g32
ag33
aS'0.03'
p346
aaaa(lp347
VACY3_HUMAN
p348
aVQ96HD9
p349
ag9
aI9606
a(lp350
(lp351
VGO:0004046
p352
aVaminoacylase activity
p353
aS'0.78'
p354
aaaa(lp355
VCYTS_HUMAN
p356
aVP01036
p357
ag9
aI9606
a(lp358
(lp359
VGO:0004869
p360
aVcysteine-type endopeptidase inhibitor activity
p361
aS'0.64'
p362
aa(lp363
g44
ag45
aS'0.44'
p364
aaaa(lp365
VFUCO2_HUMAN
p366
aVQ9BTY2
p367
ag9
aI9606
a(lp368
(lp369
VGO:0033938
p370
aV1,6-alpha-L-fucosidase activity
p371
aS'0.92'
p372
aa(lp373
VGO:0033932
p374
aV1,3-alpha-L-fucosidase activity
p375
aS'0.66'
p376
aaaa(lp377
VPGFS_RAT
p378
aVD3ZVR7
p379
aVRattus norvegicus
p380
aI10116
a(lp381
(lp382
VGO:0016616
p383
aVoxidoreductase activity, acting on the CH-OH group of donors, NAD or NADP as acceptor
p384
aS'0.77'
p385
aa(lp386
VGO:0016209
p387
aVantioxidant activity
p388
aS'0.56'
p389
aaaa(lp390
VDMP4_HUMAN
p391
aVQ8IXL6
p392
ag9
aI9606
a(lp393
(lp394
VGO:0004672
p395
aVprotein kinase activity
p396
aS'0.74'
p397
aa(lp398
g60
ag61
aS'0.74'
p399
aaaa(lp400
VMYO1B_HUMAN
p401
aVO43795
p402
ag9
aI9606
a(lp403
(lp404
VGO:0051015
p405
aVactin filament binding
p406
aS'0.69'
p407
aa(lp408
VGO:0030898
p409
aVactin-dependent ATPase activity
p410
aS'0.53'
p411
aa(lp412
g92
ag93
aS'0.53'
p413
aa(lp414
VGO:0060002
p415
aVplus-end directed microfilament motor activity
p416
aS'0.52'
p417
aaaa(lp418
VZDHC3_HUMAN
p419
aVQ9NYG2
p420
ag9
aI9606
a(lp421
(lp422
g12
ag13
aS'0.93'
p423
aa(lp424
g16
ag17
aS'0.01'
p425
aa(lp426
g20
ag21
aS'0.01'
p427
aa(lp428
g24
ag25
aS'0.01'
p429
aa(lp430
g28
ag29
aS'0.01'
p431
aa(lp432
g32
ag33
aS'0.01'
p433
aaaa(lp434
VPADI2_RAT
p435
aVP20717
p436
ag380
aI10116
a(lp437
(lp438
VGO:0004668
p439
aVprotein-arginine deiminase activity
p440
aS'0.9'
p441
aaaa(lp442
VPKRI1_HUMAN
p443
aVQ9H875
p444
ag9
aI9606
a(lp445
(lp446
VGO:0019901
p447
aVprotein kinase binding
p448
aS'0.62'
p449
aa(lp450
VGO:0004860
p451
aVprotein kinase inhibitor activity
p452
aS'0.61'
p453
aa(lp454
VGO:0003725
p455
aVdouble-stranded RNA binding
p456
aS'0.61'
p457
aaaa(lp458
VRISC_HUMAN
p459
aVQ9HB40
p460
ag9
aI9606
a(lp461
(lp462
g125
ag126
aS'0.93'
p463
aa(lp464
g129
ag130
aS'0.02'
p465
aa(lp466
g133
ag134
aS'0.02'
p467
aa(lp468
g137
ag138
aS'0.02'
p469
aaaasS'downloadfile'
p470
S'/data_more/SIFER_webserver/src/sifter_webserver/sifter_web/output/1519631_download.txt'
p471
s.