(dp0
S'result'
p1
(lp2
(lp3
V1BLI:A|PDBID|CHAIN|SEQUENCE
p4
a(lp5
(lp6
VAMY_BACLI
p7
aVP06278
p8
aVBacillus licheniformis
p9
aI1402
aS'1001'
p10
aS'0.00e+00'
p11
aS'100'
p12
aS'100'
p13
a(lp14
(lp15
VGO:0004556
p16
aValpha-amylase activity
p17
aS'0.91'
p18
aa(lp19
VGO:0031216
p20
aVneopullulanase activity
p21
aS'0.15'
p22
aa(lp23
VGO:0047470
p24
aV(1,4)-alpha-D-glucan 1-alpha-D-glucosylmutase activity
p25
aS'0.14'
p26
aa(lp27
VGO:0005509
p28
aVcalcium ion binding
p29
aS'0.14'
p30
aa(lp31
VGO:0005515
p32
aVprotein binding
p33
aS'0.14'
p34
aa(lp35
VGO:0031404
p36
aVchloride ion binding
p37
aS'0.14'
p38
aaaa(lp39
VQ208A7_BACLI
p40
aVQ208A7
p41
ag9
aI1402
aS'993'
p42
aS'0.00e+00'
p43
aS'99'
p44
aS'100'
p45
a(lp46
(lp47
g16
ag17
aS'0.92'
p48
aa(lp49
g32
ag33
aS'0.07'
p50
aa(lp51
g20
ag21
aS'0.07'
p52
aa(lp53
g24
ag25
aS'0.07'
p54
aa(lp55
g28
ag29
aS'0.07'
p56
aa(lp57
g36
ag37
aS'0.07'
p58
aaaa(lp59
VC0LZX2_BACLI
p60
aVC0LZX2
p61
ag9
aI1402
aS'991'
p62
aS'0.00e+00'
p63
aS'99'
p64
aS'100'
p65
a(lp66
(lp67
g16
ag17
aS'0.92'
p68
aa(lp69
g20
ag21
aS'0.07'
p70
aa(lp71
g24
ag25
aS'0.07'
p72
aa(lp73
g28
ag29
aS'0.07'
p74
aa(lp75
g32
ag33
aS'0.07'
p76
aa(lp77
g36
ag37
aS'0.07'
p78
aaaa(lp79
VE5W690_9BACI
p80
aVE5W690
p81
aVBacillus sp. BT1B_CT2
p82
aI665958
aS'987'
p83
aS'0.00e+00'
p84
aS'98'
p85
aS'100'
p86
a(lp87
(lp88
g16
ag17
aS'0.91'
p89
aa(lp90
g20
ag21
aS'0.07'
p91
aa(lp92
g24
ag25
aS'0.07'
p93
aa(lp94
g28
ag29
aS'0.07'
p95
aa(lp96
g32
ag33
aS'0.07'
p97
aa(lp98
g36
ag37
aS'0.07'
p99
aaaa(lp100
VA8WDK0_BACLI
p101
aVA8WDK0
p102
ag9
aI1402
aS'986'
p103
aS'0.00e+00'
p104
aS'99'
p105
aS'100'
p106
a(lp107
(lp108
g16
ag17
aS'0.92'
p109
aa(lp110
g20
ag21
aS'0.07'
p111
aa(lp112
g24
ag25
aS'0.07'
p113
aa(lp114
g28
ag29
aS'0.07'
p115
aa(lp116
g32
ag33
aS'0.07'
p117
aa(lp118
g36
ag37
aS'0.07'
p119
aaaa(lp120
VQ1EM93_BACLI
p121
aVQ1EM93
p122
ag9
aI1402
aS'986'
p123
aS'0.00e+00'
p124
aS'99'
p125
aS'100'
p126
a(lp127
(lp128
g16
ag17
aS'0.92'
p129
aa(lp130
g20
ag21
aS'0.07'
p131
aa(lp132
g24
ag25
aS'0.07'
p133
aa(lp134
g28
ag29
aS'0.07'
p135
aa(lp136
g32
ag33
aS'0.07'
p137
aa(lp138
g36
ag37
aS'0.07'
p139
aaaa(lp140
VQ19NT8_BACLI
p141
aVQ19NT8
p142
ag9
aI1402
aS'972'
p143
aS'0.00e+00'
p144
aS'97'
p145
aS'100'
p146
a(lp147
(lp148
g16
ag17
aS'0.91'
p149
aa(lp150
g20
ag21
aS'0.07'
p151
aa(lp152
g24
ag25
aS'0.07'
p153
aa(lp154
g28
ag29
aS'0.07'
p155
aa(lp156
g32
ag33
aS'0.07'
p157
aa(lp158
g36
ag37
aS'0.07'
p159
aaaa(lp160
VC6KML4_BACLI
p161
aVC6KML4
p162
ag9
aI1402
aS'958'
p163
aS'0.00e+00'
p164
aS'95'
p165
aS'100'
p166
a(lp167
(lp168
g16
ag17
aS'0.91'
p169
aa(lp170
g20
ag21
aS'0.08'
p171
aa(lp172
g24
ag25
aS'0.07'
p173
aa(lp174
g28
ag29
aS'0.07'
p175
aa(lp176
g32
ag33
aS'0.07'
p177
aa(lp178
g36
ag37
aS'0.07'
p179
aaaa(lp180
VC7EP44_BACLI
p181
aVC7EP44
p182
ag9
aI1402
aS'956'
p183
aS'0.00e+00'
p184
aS'95'
p185
aS'100'
p186
a(lp187
(lp188
g16
ag17
aS'0.91'
p189
aa(lp190
g20
ag21
aS'0.08'
p191
aa(lp192
g24
ag25
aS'0.08'
p193
aa(lp194
g28
ag29
aS'0.08'
p195
aa(lp196
g32
ag33
aS'0.08'
p197
aa(lp198
g36
ag37
aS'0.08'
p199
aaaa(lp200
VA8WE99_9BACT
p201
aVA8WE99
p202
aVuncultured bacterium
p203
aI77133
aS'955'
p204
aS'0.00e+00'
p205
aS'97'
p206
aS'98'
p207
a(lp208
(lp209
g16
ag17
aS'0.91'
p210
aa(lp211
g20
ag21
aS'0.07'
p212
aa(lp213
g24
ag25
aS'0.07'
p214
aa(lp215
g28
ag29
aS'0.07'
p216
aa(lp217
g32
ag33
aS'0.07'
p218
aa(lp219
g36
ag37
aS'0.07'
p220
aaaa(lp221
VH1AD16_BACLI
p222
aVH1AD16
p223
ag9
aI1402
aS'954'
p224
aS'0.00e+00'
p225
aS'95'
p226
aS'99'
p227
a(lp228
(lp229
g16
ag17
aS'0.91'
p230
aa(lp231
g20
ag21
aS'0.08'
p232
aa(lp233
g24
ag25
aS'0.07'
p234
aa(lp235
g28
ag29
aS'0.07'
p236
aa(lp237
g32
ag33
aS'0.07'
p238
aa(lp239
g36
ag37
aS'0.07'
p240
aaaa(lp241
VA1YR25_BACLI
p242
aVA1YR25
p243
ag9
aI1402
aS'949'
p244
aS'0.00e+00'
p245
aS'95'
p246
aS'99'
p247
a(lp248
(lp249
g16
ag17
aS'0.91'
p250
aa(lp251
g20
ag21
aS'0.08'
p252
aa(lp253
g24
ag25
aS'0.08'
p254
aa(lp255
g28
ag29
aS'0.08'
p256
aa(lp257
g32
ag33
aS'0.08'
p258
aa(lp259
g36
ag37
aS'0.08'
p260
aaaa(lp261
VG9JKM7_BACLI
p262
aVG9JKM7
p263
ag9
aI1402
aS'938'
p264
aS'0.00e+00'
p265
aS'94'
p266
aS'100'
p267
a(lp268
(lp269
g16
ag17
aS'0.91'
p270
aa(lp271
g20
ag21
aS'0.09'
p272
aa(lp273
g24
ag25
aS'0.09'
p274
aa(lp275
g28
ag29
aS'0.09'
p276
aa(lp277
g32
ag33
aS'0.09'
p278
aa(lp279
g36
ag37
aS'0.09'
p280
aaaa(lp281
VD0V5E8_9BACT
p282
aVD0V5E8
p283
ag203
aI77133
aS'844'
p284
aS'0.00e+00'
p285
aS'83'
p286
aS'100'
p287
a(lp288
(lp289
g16
ag17
aS'0.91'
p290
aa(lp291
g20
ag21
aS'0.08'
p292
aa(lp293
g24
ag25
aS'0.08'
p294
aa(lp295
g28
ag29
aS'0.08'
p296
aa(lp297
g32
ag33
aS'0.08'
p298
aa(lp299
g36
ag37
aS'0.08'
p300
aaaa(lp301
VD3Y3H2_BACAM
p302
aVD3Y3H2
p303
aVBacillus amyloliquefaciens
p304
aI1390
aS'827'
p305
aS'0.00e+00'
p306
aS'81'
p307
aS'99'
p308
a(lp309
(lp310
g16
ag17
aS'0.91'
p311
aa(lp312
g20
ag21
aS'0.17'
p313
aa(lp314
g32
ag33
aS'0.16'
p315
aa(lp316
g24
ag25
aS'0.16'
p317
aa(lp318
g28
ag29
aS'0.16'
p319
aa(lp320
g36
ag37
aS'0.16'
p321
aaaa(lp322
VA9YDD9_9BACI
p323
aVA9YDD9
p324
aVBacillus sp. YX
p325
aI401058
aS'820'
p326
aS'0.00e+00'
p327
aS'80'
p328
aS'99'
p329
a(lp330
(lp331
g16
ag17
aS'0.91'
p332
aa(lp333
g32
ag33
aS'0.08'
p334
aa(lp335
g20
ag21
aS'0.08'
p336
aa(lp337
g24
ag25
aS'0.08'
p338
aa(lp339
g28
ag29
aS'0.08'
p340
aa(lp341
g36
ag37
aS'0.08'
p342
aaaa(lp343
VAMY_BACAM
p344
aVP00692
p345
ag304
aI1390
aS'818'
p346
aS'0.00e+00'
p347
aS'80'
p348
aS'99'
p349
a(lp350
(lp351
g16
ag17
aS'0.91'
p352
aa(lp353
g32
ag33
aS'0.12'
p354
aa(lp355
g20
ag21
aS'0.12'
p356
aa(lp357
g24
ag25
aS'0.12'
p358
aa(lp359
g28
ag29
aS'0.12'
p360
aa(lp361
g36
ag37
aS'0.12'
p362
aaaa(lp363
VA7DWA9_BACIU
p364
aVA7DWA9
p365
aVBacillus subtilis
p366
aI1423
aS'816'
p367
aS'0.00e+00'
p368
aS'80'
p369
aS'99'
p370
a(lp371
(lp372
g16
ag17
aS'0.91'
p373
aa(lp374
g32
ag33
aS'0.08'
p375
aa(lp376
g20
ag21
aS'0.08'
p377
aa(lp378
g24
ag25
aS'0.08'
p379
aa(lp380
g28
ag29
aS'0.08'
p381
aa(lp382
g36
ag37
aS'0.08'
p383
aaaa(lp384
VD5KR60_BACAM
p385
aVD5KR60
p386
ag304
aI1390
aS'799'
p387
aS'0.00e+00'
p388
aS'78'
p389
aS'99'
p390
a(lp391
(lp392
g16
ag17
aS'0.91'
p393
aa(lp394
g20
ag21
aS'0.08'
p395
aa(lp396
g32
ag33
aS'0.07'
p397
aa(lp398
g24
ag25
aS'0.07'
p399
aa(lp400
g28
ag29
aS'0.07'
p401
aa(lp402
g36
ag37
aS'0.07'
p403
aaaa(lp404
VQ0KKZ7_9BACI
p405
aVQ0KKZ7
p406
aVBacillus sp. JAMB-204
p407
aI274826
aS'792'
p408
aS'0.00e+00'
p409
aS'77'
p410
aS'99'
p411
a(lp412
(lp413
g16
ag17
aS'0.91'
p414
aa(lp415
g32
ag33
aS'0.07'
p416
aa(lp417
g20
ag21
aS'0.07'
p418
aa(lp419
g24
ag25
aS'0.07'
p420
aa(lp421
g28
ag29
aS'0.07'
p422
aa(lp423
g36
ag37
aS'0.07'
p424
aaaa(lp425
VQ5MB94_9BACI
p426
aVQ5MB94
p427
aVBacillus sp. KR-8104
p428
aI306575
aS'769'
p429
aS'0.00e+00'
p430
aS'83'
p431
aS'91'
p432
a(lp433
(lp434
g16
ag17
aS'0.87'
p435
aa(lp436
g20
ag21
aS'0.09'
p437
aa(lp438
g32
ag33
aS'0.08'
p439
aa(lp440
g24
ag25
aS'0.08'
p441
aa(lp442
g28
ag29
aS'0.08'
p443
aa(lp444
g36
ag37
aS'0.08'
p445
aaaa(lp446
VQ9RQT8_9BACT
p447
aVQ9RQT8
p448
aVCytophaga sp.
p449
aI29535
aS'759'
p450
aS'0.00e+00'
p451
aS'73'
p452
aS'100'
p453
a(lp454
(lp455
g16
ag17
aS'0.91'
p456
aa(lp457
g20
ag21
aS'0.07'
p458
aa(lp459
g24
ag25
aS'0.06'
p460
aa(lp461
g28
ag29
aS'0.06'
p462
aa(lp463
g32
ag33
aS'0.06'
p464
aa(lp465
g36
ag37
aS'0.06'
p466
aaaa(lp467
VC2N3V3_BACCE
p468
aVC2N3V3
p469
aVBacillus cereus ATCC 10876
p470
aI526980
aS'753'
p471
aS'0.00e+00'
p472
aS'74'
p473
aS'99'
p474
a(lp475
(lp476
g16
ag17
aS'0.91'
p477
aa(lp478
g20
ag21
aS'0.16'
p479
aa(lp480
g24
ag25
aS'0.16'
p481
aa(lp482
g28
ag29
aS'0.16'
p483
aa(lp484
g32
ag33
aS'0.16'
p485
aa(lp486
g36
ag37
aS'0.16'
p487
aaaa(lp488
VC2P1I2_BACCE
p489
aVC2P1I2
p490
aVBacillus cereus 172560W
p491
aI526967
aS'753'
p492
aS'0.00e+00'
p493
aS'74'
p494
aS'99'
p495
a(lp496
(lp497
g16
ag17
aS'0.91'
p498
aa(lp499
g20
ag21
aS'0.12'
p500
aa(lp501
g24
ag25
aS'0.12'
p502
aa(lp503
g28
ag29
aS'0.12'
p504
aa(lp505
g32
ag33
aS'0.12'
p506
aa(lp507
g36
ag37
aS'0.12'
p508
aaaa(lp509
VC2WQG9_BACCE
p510
aVC2WQG9
p511
aVBacillus cereus Rock4-2
p512
aI526987
aS'751'
p513
aS'0.00e+00'
p514
aS'74'
p515
aS'99'
p516
a(lp517
(lp518
g16
ag17
aS'0.92'
p519
aa(lp520
g20
ag21
aS'0.07'
p521
aa(lp522
g24
ag25
aS'0.07'
p523
aa(lp524
g28
ag29
aS'0.07'
p525
aa(lp526
g32
ag33
aS'0.07'
p527
aa(lp528
g36
ag37
aS'0.07'
p529
aaaa(lp530
VC2RQY5_BACCE
p531
aVC2RQY5
p532
aVBacillus cereus BDRD-ST24
p533
aI526974
aS'751'
p534
aS'0.00e+00'
p535
aS'74'
p536
aS'99'
p537
a(lp538
(lp539
g16
ag17
aS'0.91'
p540
aa(lp541
g20
ag21
aS'0.12'
p542
aa(lp543
g24
ag25
aS'0.12'
p544
aa(lp545
g28
ag29
aS'0.12'
p546
aa(lp547
g32
ag33
aS'0.12'
p548
aa(lp549
g36
ag37
aS'0.12'
p550
aaaa(lp551
VC2RB16_BACCE
p552
aVC2RB16
p553
aVBacillus cereus m1550
p554
aI526969
aS'751'
p555
aS'0.00e+00'
p556
aS'74'
p557
aS'99'
p558
a(lp559
(lp560
g16
ag17
aS'0.92'
p561
aa(lp562
g32
ag33
aS'0.07'
p563
aa(lp564
g20
ag21
aS'0.07'
p565
aa(lp566
g24
ag25
aS'0.07'
p567
aa(lp568
g28
ag29
aS'0.07'
p569
aa(lp570
g36
ag37
aS'0.07'
p571
aaaa(lp572
VC2T9P5_BACCE
p573
aVC2T9P5
p574
aVBacillus cereus BDRD-Cer4
p575
aI526978
aS'751'
p576
aS'0.00e+00'
p577
aS'74'
p578
aS'99'
p579
a(lp580
(lp581
g16
ag17
aS'0.91'
p582
aa(lp583
g20
ag21
aS'0.12'
p584
aa(lp585
g24
ag25
aS'0.12'
p586
aa(lp587
g28
ag29
aS'0.12'
p588
aa(lp589
g32
ag33
aS'0.12'
p590
aa(lp591
g36
ag37
aS'0.12'
p592
aaaa(lp593
VC2YD99_BACCE
p594
aVC2YD99
p595
aVBacillus cereus AH676
p596
aI526991
aS'751'
p597
aS'0.00e+00'
p598
aS'74'
p599
aS'99'
p600
a(lp601
(lp602
g16
ag17
aS'0.92'
p603
aa(lp604
g32
ag33
aS'0.07'
p605
aa(lp606
g20
ag21
aS'0.07'
p607
aa(lp608
g24
ag25
aS'0.07'
p609
aa(lp610
g28
ag29
aS'0.07'
p611
aa(lp612
g36
ag37
aS'0.07'
p613
aaaa(lp614
VC3H3Z9_BACTU
p615
aVC3H3Z9
p616
aVBacillus thuringiensis serovar huazhongensis BGSC 4BD1
p617
aI527030
aS'749'
p618
aS'0.00e+00'
p619
aS'74'
p620
aS'99'
p621
a(lp622
(lp623
g16
ag17
aS'0.92'
p624
aa(lp625
g32
ag33
aS'0.07'
p626
aa(lp627
g20
ag21
aS'0.07'
p628
aa(lp629
g24
ag25
aS'0.07'
p630
aa(lp631
g28
ag29
aS'0.07'
p632
aa(lp633
g36
ag37
aS'0.07'
p634
aaaa(lp635
VC3ENG5_BACTK
p636
aVC3ENG5
p637
aVBacillus thuringiensis serovar kurstaki str. T03a001
p638
aI527023
aS'750'
p639
aS'0.00e+00'
p640
aS'74'
p641
aS'99'
p642
a(lp643
(lp644
g16
ag17
aS'0.91'
p645
aa(lp646
g20
ag21
aS'0.07'
p647
aa(lp648
g24
ag25
aS'0.07'
p649
aa(lp650
g28
ag29
aS'0.07'
p651
aa(lp652
g32
ag33
aS'0.07'
p653
aa(lp654
g36
ag37
aS'0.07'
p655
aaaa(lp656
VQ9AQ54_BACME
p657
aVQ9AQ54
p658
aVBacillus megaterium
p659
aI1404
aS'749'
p660
aS'0.00e+00'
p661
aS'74'
p662
aS'99'
p663
a(lp664
(lp665
g16
ag17
aS'0.92'
p666
aa(lp667
g20
ag21
aS'0.07'
p668
aa(lp669
g24
ag25
aS'0.07'
p670
aa(lp671
g28
ag29
aS'0.07'
p672
aa(lp673
g32
ag33
aS'0.07'
p674
aa(lp675
g36
ag37
aS'0.07'
p676
aaaa(lp677
VC4NYZ6_BACCE
p678
aVC4NYZ6
p679
aVBacillus cereus
p680
aI1396
aS'747'
p681
aS'0.00e+00'
p682
aS'73'
p683
aS'99'
p684
a(lp685
(lp686
g16
ag17
aS'0.91'
p687
aa(lp688
g32
ag33
aS'0.21'
p689
aa(lp690
g20
ag21
aS'0.21'
p691
aa(lp692
g24
ag25
aS'0.21'
p693
aa(lp694
g28
ag29
aS'0.21'
p695
aa(lp696
g36
ag37
aS'0.21'
p697
aaaa(lp698
VB0LVG1_BACCE
p699
aVB0LVG1
p700
ag680
aI1396
aS'747'
p701
aS'0.00e+00'
p702
aS'73'
p703
aS'99'
p704
a(lp705
(lp706
g16
ag17
aS'0.92'
p707
aa(lp708
g32
ag33
aS'0.07'
p709
aa(lp710
g20
ag21
aS'0.07'
p711
aa(lp712
g24
ag25
aS'0.07'
p713
aa(lp714
g28
ag29
aS'0.07'
p715
aa(lp716
g36
ag37
aS'0.07'
p717
aaaa(lp718
VG9Q490_9BACI
p719
aVG9Q490
p720
aVBacillus sp. 7_6_55CFAA_CT2
p721
aI665957
aS'746'
p722
aS'0.00e+00'
p723
aS'73'
p724
aS'99'
p725
a(lp726
(lp727
g16
ag17
aS'0.9'
p728
aa(lp729
g32
ag33
aS'0.34'
p730
aa(lp731
g20
ag21
aS'0.34'
p732
aa(lp733
g24
ag25
aS'0.34'
p734
aa(lp735
g28
ag29
aS'0.34'
p736
aa(lp737
g36
ag37
aS'0.34'
p738
aaaa(lp739
VC3E683_BACTU
p740
aVC3E683
p741
aVBacillus thuringiensis serovar pakistani str. T13001
p742
aI527027
aS'746'
p743
aS'0.00e+00'
p744
aS'73'
p745
aS'99'
p746
a(lp747
(lp748
g16
ag17
aS'0.91'
p749
aa(lp750
g32
ag33
aS'0.07'
p751
aa(lp752
g20
ag21
aS'0.07'
p753
aa(lp754
g24
ag25
aS'0.07'
p755
aa(lp756
g28
ag29
aS'0.07'
p757
aa(lp758
g36
ag37
aS'0.07'
p759
aaaaaasS'downloadfile'
p760
S'/data_more/SIFER_webserver/src/sifter_webserver/sifter_web/output/1738307_download.txt'
p761
s.