(dp0
S'result'
p1
(lp2
(lp3
VA8WRK7_CAEBR
p4
aVA8WRK7
p5
aVCaenorhabditis briggsae
p6
aI6238
a(lp7
(lp8
VGO:0015349
p9
aVthyroid hormone transmembrane transporter activity
p10
aS'0.8'
p11
aa(lp12
VGO:0015132
p13
aVprostaglandin transmembrane transporter activity
p14
aS'0.15'
p15
aa(lp16
VGO:0015238
p17
aVdrug transmembrane transporter activity
p18
aS'0.13'
p19
aa(lp20
VGO:0015125
p21
aVbile acid transmembrane transporter activity
p22
aS'0.13'
p23
aa(lp24
VGO:0015198
p25
aVoligopeptide transporter activity
p26
aS'0.13'
p27
aa(lp28
VGO:0015347
p29
aVsodium-independent organic anion transmembrane transporter activity
p30
aS'0.13'
p31
aaaas.