(dp0
S'result'
p1
(lp2
(lp3
VA7BKV0_9GAMM
p4
aVA7BKV0
p5
aVBeggiatoa sp. SS
p6
aI422288
a(lp7
(lp8
VGO:0000030
p9
aVmannosyltransferase activity
p10
aS'0.73'
p11
aaaa(lp12
VA7BP75_9GAMM
p13
aVA7BP75
p14
ag6
aI422288
a(lp15
(lp16
VGO:0004085
p17
aVbutyryl-CoA dehydrogenase activity
p18
aS'0.51'
p19
aa(lp20
VGO:0008470
p21
aVisovaleryl-CoA dehydrogenase activity
p22
aS'0.46'
p23
aa(lp24
VGO:0017099
p25
aVvery-long-chain-acyl-CoA dehydrogenase activity
p26
aS'0.4'
p27
aaaa(lp28
VA7BM04_9GAMM
p29
aVA7BM04
p30
ag6
aI422288
a(lp31
(lp32
VGO:0017022
p33
aVmyosin binding
p34
aS'0.92'
p35
aa(lp36
VGO:0005432
p37
aVcalcium:sodium antiporter activity
p38
aS'0.2'
p39
aa(lp40
VGO:0030506
p41
aVankyrin binding
p42
aS'0.2'
p43
aa(lp44
VGO:0005509
p45
aVcalcium ion binding
p46
aS'0.2'
p47
aa(lp48
VGO:0044325
p49
aVion channel binding
p50
aS'0.2'
p51
aa(lp52
VGO:0004930
p53
aVG-protein coupled receptor activity
p54
aS'0.2'
p55
aa(lp56
VGO:0050839
p57
aVcell adhesion molecule binding
p58
aS'0.2'
p59
aaaa(lp60
VA7BMX7_9GAMM
p61
aVA7BMX7
p62
ag6
aI422288
a(lp63
(lp64
VGO:0003700
p65
aVsequence-specific DNA binding transcription factor activity
p66
aS'0.84'
p67
aa(lp68
VGO:0005524
p69
aVATP binding
p70
aS'0.53'
p71
aa(lp72
VGO:0003677
p73
aVDNA binding
p74
aS'0.53'
p75
aaaa(lp76
VA7BLX9_9GAMM
p77
aVA7BLX9
p78
ag6
aI422288
a(lp79
(lp80
VGO:0008233
p81
aVpeptidase activity
p82
aS'0.82'
p83
aa(lp84
g73
ag74
aS'0.38'
p85
aaaa(lp86
VA7BKM6_9GAMM
p87
aVA7BKM6
p88
ag6
aI422288
a(lp89
(lp90
VGO:0005515
p91
aVprotein binding
p92
aS'0.75'
p93
aa(lp94
VGO:0090471
p95
aV9,15,9'-tri-cis-zeta-carotene isomerase activity
p96
aS'0.72'
p97
aaaa(lp98
VA7BLD4_9GAMM
p99
aVA7BLD4
p100
ag6
aI422288
a(lp101
(lp102
VGO:0047499
p103
aVcalcium-independent phospholipase A2 activity
p104
aS'0.82'
p105
aa(lp106
VGO:0008603
p107
aVcAMP-dependent protein kinase regulator activity
p108
aS'0.41'
p109
aa(lp110
VGO:0004806
p111
aVtriglyceride lipase activity
p112
aS'0.34'
p113
aa(lp114
VGO:0051265
p115
aVdiolein transacylation activity
p116
aS'0.34'
p117
aa(lp118
g69
ag70
aS'0.34'
p119
aa(lp120
VGO:0051264
p121
aVmono-olein transacylation activity
p122
aS'0.34'
p123
aaaa(lp124
VA7BLD1_9GAMM
p125
aVA7BLD1
p126
ag6
aI422288
a(lp127
(lp128
VGO:0051912
p129
aVCoB--CoM heterodisulfide reductase activity
p130
aS'0.91'
p131
aa(lp132
VGO:0009055
p133
aVelectron carrier activity
p134
aS'0.66'
p135
aaaa(lp136
VA7BL87_9GAMM
p137
aVA7BL87
p138
ag6
aI422288
a(lp139
(lp140
g91
ag92
aS'0.92'
p141
aa(lp142
VGO:0050661
p143
aVNADP binding
p144
aS'0.13'
p145
aa(lp146
VGO:0008750
p147
aVNAD(P)+ transhydrogenase (AB-specific) activity
p148
aS'0.13'
p149
aa(lp150
VGO:0051287
p151
aVNAD binding
p152
aS'0.13'
p153
aa(lp154
VGO:0003957
p155
aVNAD(P)+ transhydrogenase (B-specific) activity
p156
aS'0.13'
p157
aaaa(lp158
VA7BLF7_9GAMM
p159
aVA7BLF7
p160
ag6
aI422288
a(lp161
(lp162
VGO:0008170
p163
aVN-methyltransferase activity
p164
aS'0.79'
p165
aaaa(lp166
VA7BM29_9GAMM
p167
aVA7BM29
p168
ag6
aI422288
a(lp169
(lp170
VGO:0004015
p171
aVadenosylmethionine-8-amino-7-oxononanoate transaminase activity
p172
aS'0.95'
p173
aa(lp174
VGO:0008453
p175
aValanine-glyoxylate transaminase activity
p176
aS'0.31'
p177
aaaa(lp178
VA7BL58_9GAMM
p179
aVA7BL58
p180
ag6
aI422288
a(lp181
(lp182
VGO:0003978
p183
aVUDP-glucose 4-epimerase activity
p184
aS'0.95'
p185
aa(lp186
VGO:0050373
p187
aVUDP-arabinose 4-epimerase activity
p188
aS'0.65'
p189
aaaa(lp190
VA7BN06_9GAMM
p191
aVA7BN06
p192
ag6
aI422288
a(lp193
(lp194
VGO:0031177
p195
aVphosphopantetheine binding
p196
aS'0.79'
p197
aa(lp198
VGO:0004043
p199
aVL-aminoadipate-semialdehyde dehydrogenase activity
p200
aS'0.26'
p201
aa(lp202
VGO:0050564
p203
aVN-(5-amino-5-carboxypentanoyl)-L-cysteinyl-D-valine synthase activity
p204
aS'0.24'
p205
aa(lp206
VGO:0004497
p207
aVmonooxygenase activity
p208
aS'0.24'
p209
aa(lp210
VGO:0016405
p211
aVCoA-ligase activity
p212
aS'0.24'
p213
aa(lp214
VGO:0000036
p215
aVACP phosphopantetheine attachment site binding involved in fatty acid biosynthetic process
p216
aS'0.24'
p217
aa(lp218
VGO:0047475
p219
aVphenylacetate-CoA ligase activity
p220
aS'0.24'
p221
aa(lp222
g69
ag70
aS'0.24'
p223
aa(lp224
VGO:0001848
p225
aVcomplement binding
p226
aS'0.24'
p227
aa(lp228
VGO:0008168
p229
aVmethyltransferase activity
p230
aS'0.24'
p231
aaaa(lp232
VA7BKF1_9GAMM
p233
aVA7BKF1
p234
ag6
aI422288
a(lp235
(lp236
VGO:0008658
p237
aVpenicillin binding
p238
aS'0.86'
p239
aa(lp240
g91
ag92
aS'0.79'
p241
aaaa(lp242
VA7BLS3_9GAMM
p243
aVA7BLS3
p244
ag6
aI422288
a(lp245
(lp246
VGO:0008134
p247
aVtranscription factor binding
p248
aS'0.64'
p249
aa(lp250
VGO:0043141
p251
aVATP-dependent 5'-3' DNA helicase activity
p252
aS'0.6'
p253
aaaa(lp254
VA7BNV8_9GAMM
p255
aVA7BNV8
p256
ag6
aI422288
a(lp257
(lp258
VGO:0042803
p259
aVprotein homodimerization activity
p260
aS'0.83'
p261
aa(lp262
VGO:0008198
p263
aVferrous iron binding
p264
aS'0.28'
p265
aa(lp266
VGO:0016491
p267
aVoxidoreductase activity
p268
aS'0.28'
p269
aaaa(lp270
VA7BML6_9GAMM
p271
aVA7BML6
p272
ag6
aI422288
a(lp273
(lp274
VGO:0005525
p275
aVGTP binding
p276
aS'0.78'
p277
aa(lp278
VGO:0043022
p279
aVribosome binding
p280
aS'0.45'
p281
aa(lp282
VGO:0016887
p283
aVATPase activity
p284
aS'0.44'
p285
aa(lp286
g91
ag92
aS'0.44'
p287
aa(lp288
VGO:0019843
p289
aVrRNA binding
p290
aS'0.44'
p291
aa(lp292
VGO:0043023
p293
aVribosomal large subunit binding
p294
aS'0.44'
p295
aa(lp296
g69
ag70
aS'0.44'
p297
aa(lp298
VGO:0004857
p299
aVenzyme inhibitor activity
p300
aS'0.44'
p301
aaaa(lp302
VA7BMV6_9GAMM
p303
aVA7BMV6
p304
ag6
aI422288
a(lp305
(lp306
VGO:0004315
p307
aV3-oxoacyl-[acyl-carrier-protein] synthase activity
p308
aS'0.68'
p309
aa(lp310
VGO:0042802
p311
aVidentical protein binding
p312
aS'0.48'
p313
aaaa(lp314
VA7BKY6_9GAMM
p315
aVA7BKY6
p316
ag6
aI422288
a(lp317
(lp318
VGO:0033130
p319
aVacetylcholine receptor binding
p320
aS'0.9'
p321
aa(lp322
g311
ag312
aS'0.85'
p323
aa(lp324
VGO:0003777
p325
aVmicrotubule motor activity
p326
aS'0.79'
p327
aaaa(lp328
VA7BMD6_9GAMM
p329
aVA7BMD6
p330
ag6
aI422288
a(lp331
(lp332
g91
ag92
aS'0.79'
p333
aa(lp334
VGO:0000155
p335
aVphosphorelay sensor kinase activity
p336
aS'0.2'
p337
aa(lp338
VGO:0000156
p339
aVphosphorelay response regulator activity
p340
aS'0.19'
p341
aa(lp342
VGO:0004721
p343
aVphosphoprotein phosphatase activity
p344
aS'0.19'
p345
aa(lp346
VGO:0000981
p347
aVsequence-specific DNA binding RNA polymerase II transcription factor activity
p348
aS'0.19'
p349
aa(lp350
VGO:0031517
p351
aVred light photoreceptor activity
p352
aS'0.19'
p353
aa(lp354
VGO:0016868
p355
aVintramolecular transferase activity, phosphotransferases
p356
aS'0.19'
p357
aa(lp358
VGO:0044212
p359
aVtranscription regulatory region DNA binding
p360
aS'0.19'
p361
aa(lp362
VGO:0009927
p363
aVhistidine phosphotransfer kinase activity
p364
aS'0.19'
p365
aaaa(lp366
VA7BKF9_9GAMM
p367
aVA7BKF9
p368
ag6
aI422288
a(lp369
(lp370
VGO:0035798
p371
aV2-alkenal reductase (NADP+) activity
p372
aS'0.87'
p373
aa(lp374
VGO:0035671
p375
aVenone reductase activity
p376
aS'0.87'
p377
aaaa(lp378
VA7BN58_9GAMM
p379
aVA7BN58
p380
ag6
aI422288
a(lp381
(lp382
g203
ag204
aS'0.78'
p383
aa(lp384
g195
ag196
aS'0.16'
p385
aa(lp386
g207
ag208
aS'0.16'
p387
aa(lp388
g211
ag212
aS'0.16'
p389
aa(lp390
g215
ag216
aS'0.16'
p391
aa(lp392
g199
ag200
aS'0.16'
p393
aa(lp394
g219
ag220
aS'0.16'
p395
aa(lp396
g69
ag70
aS'0.16'
p397
aa(lp398
g225
ag226
aS'0.16'
p399
aa(lp400
g229
ag230
aS'0.16'
p401
aaaa(lp402
VA7BLM5_9GAMM
p403
aVA7BLM5
p404
ag6
aI422288
a(lp405
(lp406
VGO:0043237
p407
aVlaminin-1 binding
p408
aS'0.91'
p409
aa(lp410
VGO:0008201
p411
aVheparin binding
p412
aS'0.13'
p413
aa(lp414
VGO:0070051
p415
aVfibrinogen binding
p416
aS'0.12'
p417
aa(lp418
VGO:0070052
p419
aVcollagen V binding
p420
aS'0.12'
p421
aa(lp422
VGO:0005201
p423
aVextracellular matrix structural constituent
p424
aS'0.12'
p425
aa(lp426
VGO:0050431
p427
aVtransforming growth factor beta binding
p428
aS'0.12'
p429
aa(lp430
VGO:0001968
p431
aVfibronectin binding
p432
aS'0.12'
p433
aa(lp434
g45
ag46
aS'0.12'
p435
aa(lp436
VGO:0043395
p437
aVheparan sulfate proteoglycan binding
p438
aS'0.12'
p439
aa(lp440
VGO:0017134
p441
aVfibroblast growth factor binding
p442
aS'0.12'
p443
aa(lp444
VGO:0005499
p445
aVvitamin D binding
p446
aS'0.12'
p447
aa(lp448
VGO:0001786
p449
aVphosphatidylserine binding
p450
aS'0.12'
p451
aa(lp452
VGO:0030169
p453
aVlow-density lipoprotein particle binding
p454
aS'0.12'
p455
aa(lp456
g311
ag312
aS'0.12'
p457
aa(lp458
VGO:0005178
p459
aVintegrin binding
p460
aS'0.12'
p461
aaaa(lp462
VA7BMZ2_9GAMM
p463
aVA7BMZ2
p464
ag6
aI422288
a(lp465
(lp466
VGO:0003979
p467
aVUDP-glucose 6-dehydrogenase activity
p468
aS'0.91'
p469
aa(lp470
g311
ag312
aS'0.87'
p471
aaaa(lp472
VA7BLT2_9GAMM
p473
aVA7BLT2
p474
ag6
aI422288
a(lp475
(lp476
VGO:0015421
p477
aVoligopeptide-transporting ATPase activity
p478
aS'0.89'
p479
aa(lp480
VGO:0015099
p481
aVnickel cation transmembrane transporter activity
p482
aS'0.75'
p483
aaaa(lp484
VA7BLI3_9GAMM
p485
aVA7BLI3
p486
ag6
aI422288
a(lp487
(lp488
VGO:0015288
p489
aVporin activity
p490
aS'0.86'
p491
aa(lp492
VGO:0015546
p493
aVsulfathiazole transmembrane transporter activity
p494
aS'0.39'
p495
aa(lp496
VGO:0015562
p497
aVefflux transmembrane transporter activity
p498
aS'0.33'
p499
aaaa(lp500
VA7BKS4_9GAMM
p501
aVA7BKS4
p502
ag6
aI422288
a(lp503
(lp504
VGO:0003862
p505
aV3-isopropylmalate dehydrogenase activity
p506
aS'0.94'
p507
aa(lp508
VGO:0004657
p509
aVproline dehydrogenase activity
p510
aS'0.09'
p511
aaaa(lp512
VA7BMV3_9GAMM
p513
aVA7BMV3
p514
ag6
aI422288
a(lp515
(lp516
VGO:0005391
p517
aVsodium:potassium-exchanging ATPase activity
p518
aS'0.87'
p519
aa(lp520
VGO:0005507
p521
aVcopper ion binding
p522
aS'0.65'
p523
aa(lp524
VGO:0004008
p525
aVcopper-exporting ATPase activity
p526
aS'0.64'
p527
aa(lp528
g69
ag70
aS'0.51'
p529
aa(lp530
VGO:0016463
p531
aVzinc-exporting ATPase activity
p532
aS'0.49'
p533
aa(lp534
VGO:0008551
p535
aVcadmium-exporting ATPase activity
p536
aS'0.49'
p537
aaaa(lp538
VA7BKH7_9GAMM
p539
aVA7BKH7
p540
ag6
aI422288
a(lp541
(lp542
g311
ag312
aS'0.8'
p543
aa(lp544
VGO:0005518
p545
aVcollagen binding
p546
aS'0.67'
p547
aaaa(lp548
VA7BP13_9GAMM
p549
aVA7BP13
p550
ag6
aI422288
a(lp551
(lp552
VGO:0031071
p553
aVcysteine desulfurase activity
p554
aS'0.68'
p555
aa(lp556
VGO:0097163
p557
aVsulfur carrier activity
p558
aS'0.51'
p559
aa(lp560
g259
ag260
aS'0.48'
p561
aaaa(lp562
VA7BM55_9GAMM
p563
aVA7BM55
p564
ag6
aI422288
a(lp565
(lp566
g91
ag92
aS'0.95'
p567
aa(lp568
VGO:0003896
p569
aVDNA primase activity
p570
aS'0.65'
p571
aa(lp572
VGO:0008270
p573
aVzinc ion binding
p574
aS'0.64'
p575
aaaa(lp576
VA7BMX0_9GAMM
p577
aVA7BMX0
p578
ag6
aI422288
a(lp579
(lp580
g311
ag312
aS'0.85'
p581
aa(lp582
g335
ag336
aS'0.36'
p583
aaaa(lp584
VA7BMR9_9GAMM
p585
aVA7BMR9
p586
ag6
aI422288
a(lp587
(lp588
VGO:0005052
p589
aVperoxisome matrix targeting signal-1 binding
p590
aS'0.88'
p591
aa(lp592
VGO:0003984
p593
aVacetolactate synthase activity
p594
aS'0.57'
p595
aaaa(lp596
VA7BM33_9GAMM
p597
aVA7BM33
p598
ag6
aI422288
a(lp599
(lp600
VGO:0001106
p601
aVRNA polymerase II transcription corepressor activity
p602
aS'0.65'
p603
aa(lp604
VGO:0017112
p605
aVRab guanyl-nucleotide exchange factor activity
p606
aS'0.52'
p607
aaaa(lp608
VA7BLR8_9GAMM
p609
aVA7BLR8
p610
ag6
aI422288
a(lp611
(lp612
g225
ag226
aS'0.68'
p613
aa(lp614
g195
ag196
aS'0.55'
p615
aa(lp616
g203
ag204
aS'0.51'
p617
aa(lp618
VGO:0008374
p619
aVO-acyltransferase activity
p620
aS'0.43'
p621
aaaa(lp622
VA7BP08_9GAMM
p623
aVA7BP08
p624
ag6
aI422288
a(lp625
(lp626
VGO:0008705
p627
aVmethionine synthase activity
p628
aS'0.77'
p629
aa(lp630
VGO:0031419
p631
aVcobalamin binding
p632
aS'0.16'
p633
aa(lp634
g573
ag574
aS'0.16'
p635
aa(lp636
VGO:0008898
p637
aVhomocysteine S-methyltransferase activity
p638
aS'0.16'
p639
aaaa(lp640
VA7BNU2_9GAMM
p641
aVA7BNU2
p642
ag6
aI422288
a(lp643
(lp644
VGO:0008296
p645
aV3'-5'-exodeoxyribonuclease activity
p646
aS'0.81'
p647
aa(lp648
VGO:0030674
p649
aVprotein binding, bridging
p650
aS'0.2'
p651
aa(lp652
VGO:0000014
p653
aVsingle-stranded DNA endodeoxyribonuclease activity
p654
aS'0.16'
p655
aa(lp656
g73
ag74
aS'0.16'
p657
aa(lp658
VGO:0004003
p659
aVATP-dependent DNA helicase activity
p660
aS'0.16'
p661
aaaa(lp662
VA7BP97_9GAMM
p663
aVA7BP97
p664
ag6
aI422288
a(lp665
(lp666
VGO:0003993
p667
aVacid phosphatase activity
p668
aS'0.92'
p669
aa(lp670
VGO:0008254
p671
aV3'-nucleotidase activity
p672
aS'0.26'
p673
aa(lp674
VGO:0004309
p675
aVexopolyphosphatase activity
p676
aS'0.26'
p677
aa(lp678
VGO:0008253
p679
aV5'-nucleotidase activity
p680
aS'0.26'
p681
aaaa(lp682
VA7BND1_9GAMM
p683
aVA7BND1
p684
ag6
aI422288
a(lp685
(lp686
g311
ag312
aS'0.91'
p687
aa(lp688
VGO:0046982
p689
aVprotein heterodimerization activity
p690
aS'0.78'
p691
aaaa(lp692
VA7BNB4_9GAMM
p693
aVA7BNB4
p694
ag6
aI422288
a(lp695
(lp696
VGO:0031625
p697
aVubiquitin protein ligase binding
p698
aS'0.91'
p699
aa(lp700
VGO:0003899
p701
aVDNA-directed RNA polymerase activity
p702
aS'0.38'
p703
aa(lp704
g73
ag74
aS'0.38'
p705
aaaa(lp706
VA7BME1_9GAMM
p707
aVA7BME1
p708
ag6
aI422288
a(lp709
(lp710
VGO:0015307
p711
aVdrug:hydrogen antiporter activity
p712
aS'0.93'
p713
aa(lp714
g91
ag92
aS'0.42'
p715
aaaa(lp716
VA7BNR9_9GAMM
p717
aVA7BNR9
p718
ag6
aI422288
a(lp719
(lp720
VGO:0043431
p721
aV2-octaprenyl-3-methyl-5-hydroxy-6-methoxy-1,4-benzoquinone methyltransferase activity
p722
aS'0.82'
p723
aa(lp724
VGO:0030798
p725
aVtrans-aconitate 2-methyltransferase activity
p726
aS'0.63'
p727
aaaa(lp728
VA7BMH3_9GAMM
p729
aVA7BMH3
p730
ag6
aI422288
a(lp731
(lp732
VGO:0004592
p733
aVpantoate-beta-alanine ligase activity
p734
aS'0.91'
p735
aa(lp736
g259
ag260
aS'0.21'
p737
aa(lp738
VGO:0030145
p739
aVmanganese ion binding
p740
aS'0.21'
p741
aa(lp742
g69
ag70
aS'0.21'
p743
aa(lp744
VGO:0000287
p745
aVmagnesium ion binding
p746
aS'0.21'
p747
aaaa(lp748
VA7BLQ9_9GAMM
p749
aVA7BLQ9
p750
ag6
aI422288
a(lp751
(lp752
g259
ag260
aS'0.83'
p753
aa(lp754
g263
ag264
aS'0.28'
p755
aa(lp756
g267
ag268
aS'0.28'
p757
aaaa(lp758
VA7BMZ1_9GAMM
p759
aVA7BMZ1
p760
ag6
aI422288
a(lp761
(lp762
g497
ag498
aS'0.81'
p763
aa(lp764
g91
ag92
aS'0.81'
p765
aaaa(lp766
VA7BMT5_9GAMM
p767
aVA7BMT5
p768
ag6
aI422288
a(lp769
(lp770
g73
ag74
aS'0.51'
p771
aa(lp772
VGO:0045127
p773
aVN-acetylglucosamine kinase activity
p774
aS'0.38'
p775
aaaa(lp776
VA7BNR2_9GAMM
p777
aVA7BNR2
p778
ag6
aI422288
a(lp779
(lp780
g275
ag276
aS'0.93'
p781
aa(lp782
VGO:0030942
p783
aVendoplasmic reticulum signal peptide binding
p784
aS'0.28'
p785
aaaa(lp786
VA7BLY3_9GAMM
p787
aVA7BLY3
p788
ag6
aI422288
a(lp789
(lp790
g283
ag284
aS'0.55'
p791
aa(lp792
VGO:0004141
p793
aVdethiobiotin synthase activity
p794
aS'0.54'
p795
aa(lp796
g69
ag70
aS'0.44'
p797
aaaa(lp798
VA7BN69_9GAMM
p799
aVA7BN69
p800
ag6
aI422288
a(lp801
(lp802
VGO:0043014
p803
aValpha-tubulin binding
p804
aS'0.46'
p805
aa(lp806
VGO:0004842
p807
aVubiquitin-protein ligase activity
p808
aS'0.46'
p809
aa(lp810
VGO:0003727
p811
aVsingle-stranded RNA binding
p812
aS'0.4'
p813
aaaa(lp814
VA7BNJ1_9GAMM
p815
aVA7BNJ1
p816
ag6
aI422288
a(lp817
(lp818
g311
ag312
aS'0.88'
p819
aa(lp820
g335
ag336
aS'0.84'
p821
aaaa(lp822
VA7BMR7_9GAMM
p823
aVA7BMR7
p824
ag6
aI422288
a(lp825
(lp826
VGO:0003886
p827
aVDNA (cytosine-5-)-methyltransferase activity
p828
aS'0.92'
p829
aa(lp830
VGO:0003714
p831
aVtranscription corepressor activity
p832
aS'0.28'
p833
aa(lp834
g73
ag74
aS'0.28'
p835
aa(lp836
g91
ag92
aS'0.28'
p837
aaaa(lp838
VA7BM30_9GAMM
p839
aVA7BM30
p840
ag6
aI422288
a(lp841
(lp842
g171
ag172
aS'0.94'
p843
aa(lp844
g175
ag176
aS'0.31'
p845
aaaa(lp846
VA7BP19_9GAMM
p847
aVA7BP19
p848
ag6
aI422288
a(lp849
(lp850
g311
ag312
aS'0.85'
p851
aa(lp852
g335
ag336
aS'0.36'
p853
aaaa(lp854
VA7BLU0_9GAMM
p855
aVA7BLU0
p856
ag6
aI422288
a(lp857
(lp858
VGO:0035226
p859
aVglutamate-cysteine ligase catalytic subunit binding
p860
aS'0.44'
p861
aa(lp862
VGO:0032866
p863
aVD-xylose:NADP reductase activity
p864
aS'0.37'
p865
aaaa(lp866
VA7BPE7_9GAMM
p867
aVA7BPE7
p868
ag6
aI422288
a(lp869
(lp870
g219
ag220
aS'0.79'
p871
aa(lp872
g69
ag70
aS'0.16'
p873
aa(lp874
g195
ag196
aS'0.15'
p875
aa(lp876
g225
ag226
aS'0.15'
p877
aa(lp878
g203
ag204
aS'0.14'
p879
aa(lp880
g207
ag208
aS'0.14'
p881
aa(lp882
g211
ag212
aS'0.14'
p883
aa(lp884
g215
ag216
aS'0.14'
p885
aa(lp886
g199
ag200
aS'0.14'
p887
aa(lp888
g229
ag230
aS'0.14'
p889
aaaa(lp890
VA7BP91_9GAMM
p891
aVA7BP91
p892
ag6
aI422288
a(lp893
(lp894
VGO:0016807
p895
aVcysteine-type carboxypeptidase activity
p896
aS'0.83'
p897
aa(lp898
VGO:0004222
p899
aVmetalloendopeptidase activity
p900
aS'0.29'
p901
aa(lp902
VGO:0008745
p903
aVN-acetylmuramoyl-L-alanine amidase activity
p904
aS'0.28'
p905
aa(lp906
VGO:0016755
p907
aVtransferase activity, transferring amino-acyl groups
p908
aS'0.28'
p909
aa(lp910
VGO:0071972
p911
aVpeptidoglycan L,D-transpeptidase activity
p912
aS'0.28'
p913
aa(lp914
VGO:0008047
p915
aVenzyme activator activity
p916
aS'0.28'
p917
aa(lp918
g545
ag546
aS'0.28'
p919
aa(lp920
g573
ag574
aS'0.28'
p921
aa(lp922
VGO:0004252
p923
aVserine-type endopeptidase activity
p924
aS'0.28'
p925
aa(lp926
VGO:0033922
p927
aVpeptidoglycan beta-N-acetylmuramidase activity
p928
aS'0.28'
p929
aaaa(lp930
VA7BKT2_9GAMM
p931
aVA7BKT2
p932
ag6
aI422288
a(lp933
(lp934
VGO:0004674
p935
aVprotein serine/threonine kinase activity
p936
aS'0.78'
p937
aa(lp938
VGO:0004673
p939
aVprotein histidine kinase activity
p940
aS'0.3'
p941
aa(lp942
VGO:0050897
p943
aVcobalt ion binding
p944
aS'0.29'
p945
aa(lp946
g339
ag340
aS'0.29'
p947
aa(lp948
VGO:0035612
p949
aVAP-2 adaptor complex binding
p950
aS'0.29'
p951
aa(lp952
VGO:0016151
p953
aVnickel cation binding
p954
aS'0.29'
p955
aa(lp956
g739
ag740
aS'0.29'
p957
aa(lp958
VGO:0005112
p959
aVNotch binding
p960
aS'0.29'
p961
aa(lp962
VGO:0042834
p963
aVpeptidoglycan binding
p964
aS'0.29'
p965
aa(lp966
g259
ag260
aS'0.29'
p967
aaaa(lp968
VA7BL59_9GAMM
p969
aVA7BL59
p970
ag6
aI422288
a(lp971
(lp972
VGO:0003963
p973
aVRNA-3'-phosphate cyclase activity
p974
aS'0.91'
p975
aa(lp976
VGO:0003723
p977
aVRNA binding
p978
aS'0.8'
p979
aaaa(lp980
VA7BM14_9GAMM
p981
aVA7BM14
p982
ag6
aI422288
a(lp983
(lp984
VGO:0003678
p985
aVDNA helicase activity
p986
aS'0.9'
p987
aa(lp988
g311
ag312
aS'0.89'
p989
aaaa(lp990
VA7BML5_9GAMM
p991
aVA7BML5
p992
ag6
aI422288
a(lp993
(lp994
g311
ag312
aS'0.77'
p995
aa(lp996
VGO:0003746
p997
aVtranslation elongation factor activity
p998
aS'0.48'
p999
aa(lp1000
VGO:0019003
p1001
aVGDP binding
p1002
aS'0.41'
p1003
aa(lp1004
VGO:0003924
p1005
aVGTPase activity
p1006
aS'0.41'
p1007
aa(lp1008
VGO:0003743
p1009
aVtranslation initiation factor activity
p1010
aS'0.41'
p1011
aa(lp1012
VGO:0000049
p1013
aVtRNA binding
p1014
aS'0.41'
p1015
aa(lp1016
VGO:0035368
p1017
aVselenocysteine insertion sequence binding
p1018
aS'0.41'
p1019
aa(lp1020
g275
ag276
aS'0.41'
p1021
aaaa(lp1022
VA7BMP5_9GAMM
p1023
aVA7BMP5
p1024
ag6
aI422288
a(lp1025
(lp1026
g91
ag92
aS'0.68'
p1027
aa(lp1028
VGO:0005548
p1029
aVphospholipid transporter activity
p1030
aS'0.4'
p1031
aaaa(lp1032
VA7BN44_9GAMM
p1033
aVA7BN44
p1034
ag6
aI422288
a(lp1035
(lp1036
VGO:0004077
p1037
aVbiotin-[acetyl-CoA-carboxylase] ligase activity
p1038
aS'0.95'
p1039
aa(lp1040
VGO:0004080
p1041
aVbiotin-[propionyl-CoA-carboxylase (ATP-hydrolyzing)] ligase activity
p1042
aS'0.51'
p1043
aa(lp1044
VGO:0017118
p1045
aVlipoyltransferase activity
p1046
aS'0.46'
p1047
aa(lp1048
VGO:0009374
p1049
aVbiotin binding
p1050
aS'0.39'
p1051
aa(lp1052
VGO:0019899
p1053
aVenzyme binding
p1054
aS'0.39'
p1055
aa(lp1056
g73
ag74
aS'0.39'
p1057
aaaa(lp1058
VA7BKN1_9GAMM
p1059
aVA7BKN1
p1060
ag6
aI422288
a(lp1061
(lp1062
VGO:0008767
p1063
aVUDP-galactopyranose mutase activity
p1064
aS'0.97'
p1065
aaaa(lp1066
VA7BKN4_9GAMM
p1067
aVA7BKN4
p1068
ag6
aI422288
a(lp1069
(lp1070
g319
ag320
aS'0.92'
p1071
aa(lp1072
g311
ag312
aS'0.86'
p1073
aaaa(lp1074
VA7BNH1_9GAMM
p1075
aVA7BNH1
p1076
ag6
aI422288
a(lp1077
(lp1078
g91
ag92
aS'0.73'
p1079
aa(lp1080
g489
ag490
aS'0.65'
p1081
aaaa(lp1082
VA7BM73_9GAMM
p1083
aVA7BM73
p1084
ag6
aI422288
a(lp1085
(lp1086
g259
ag260
aS'0.82'
p1087
aa(lp1088
g263
ag264
aS'0.25'
p1089
aa(lp1090
g267
ag268
aS'0.25'
p1091
aaaa(lp1092
VA7BLE5_9GAMM
p1093
aVA7BLE5
p1094
ag6
aI422288
a(lp1095
(lp1096
VGO:0016746
p1097
aVtransferase activity, transferring acyl groups
p1098
aS'0.98'
p1099
aaaa(lp1100
VA7BNP1_9GAMM
p1101
aVA7BNP1
p1102
ag6
aI422288
a(lp1103
(lp1104
VGO:0003855
p1105
aV3-dehydroquinate dehydratase activity
p1106
aS'0.97'
p1107
aaaa(lp1108
VA7BNT4_9GAMM
p1109
aVA7BNT4
p1110
ag6
aI422288
a(lp1111
(lp1112
VGO:0015106
p1113
aVbicarbonate transmembrane transporter activity
p1114
aS'0.91'
p1115
aa(lp1116
g311
ag312
aS'0.16'
p1117
aa(lp1118
VGO:0015301
p1119
aVanion:anion antiporter activity
p1120
aS'0.16'
p1121
aa(lp1122
VGO:0043856
p1123
aVanti-sigma factor antagonist activity
p1124
aS'0.16'
p1125
aa(lp1126
VGO:0003712
p1127
aVtranscription cofactor activity
p1128
aS'0.16'
p1129
aa(lp1130
VGO:0005254
p1131
aVchloride channel activity
p1132
aS'0.16'
p1133
aa(lp1134
VGO:0019001
p1135
aVguanyl nucleotide binding
p1136
aS'0.15'
p1137
aa(lp1138
g65
ag66
aS'0.15'
p1139
aa(lp1140
g745
ag746
aS'0.15'
p1141
aa(lp1142
VGO:0004035
p1143
aValkaline phosphatase activity
p1144
aS'0.15'
p1145
aa(lp1146
VGO:0045152
p1147
aVantisigma factor binding
p1148
aS'0.15'
p1149
aa(lp1150
VGO:0015116
p1151
aVsulfate transmembrane transporter activity
p1152
aS'0.15'
p1153
aa(lp1154
g739
ag740
aS'0.15'
p1155
aa(lp1156
VGO:0019531
p1157
aVoxalate transmembrane transporter activity
p1158
aS'0.15'
p1159
aaaa(lp1160
VA7BP78_9GAMM
p1161
aVA7BP78
p1162
ag6
aI422288
a(lp1163
(lp1164
VGO:0016531
p1165
aVcopper chaperone activity
p1166
aS'0.86'
p1167
aa(lp1168
VGO:0032767
p1169
aVcopper-dependent protein binding
p1170
aS'0.43'
p1171
aaaa(lp1172
VA7BKH3_9GAMM
p1173
aVA7BKH3
p1174
ag6
aI422288
a(lp1175
(lp1176
VGO:0004725
p1177
aVprotein tyrosine phosphatase activity
p1178
aS'0.91'
p1179
aa(lp1180
g91
ag92
aS'0.5'
p1181
aaaa(lp1182
VA7BMQ8_9GAMM
p1183
aVA7BMQ8
p1184
ag6
aI422288
a(lp1185
(lp1186
g493
ag494
aS'0.89'
p1187
aa(lp1188
g489
ag490
aS'0.39'
p1189
aa(lp1190
VGO:0005375
p1191
aVcopper ion transmembrane transporter activity
p1192
aS'0.34'
p1193
aa(lp1194
g521
ag522
aS'0.34'
p1195
aaaa(lp1196
VA7BMS2_9GAMM
p1197
aVA7BMS2
p1198
ag6
aI422288
a(lp1199
(lp1200
g827
ag828
aS'0.92'
p1201
aa(lp1202
g831
ag832
aS'0.33'
p1203
aa(lp1204
g73
ag74
aS'0.33'
p1205
aa(lp1206
g91
ag92
aS'0.33'
p1207
aaaa(lp1208
VA7BMT6_9GAMM
p1209
aVA7BMT6
p1210
ag6
aI422288
a(lp1211
(lp1212
g335
ag336
aS'0.69'
p1213
aa(lp1214
g91
ag92
aS'0.39'
p1215
aaaa(lp1216
VA7BKU5_9GAMM
p1217
aVA7BKU5
p1218
ag6
aI422288
a(lp1219
(lp1220
g225
ag226
aS'0.6'
p1221
aa(lp1222
g195
ag196
aS'0.56'
p1223
aaaa(lp1224
VA7BNF2_9GAMM
p1225
aVA7BNF2
p1226
ag6
aI422288
a(lp1227
(lp1228
VGO:0003972
p1229
aVRNA ligase (ATP) activity
p1230
aS'0.92'
p1231
aa(lp1232
g739
ag740
aS'0.53'
p1233
aaaa(lp1234
VA7BLT3_9GAMM
p1235
aVA7BLT3
p1236
ag6
aI422288
a(lp1237
(lp1238
g477
ag478
aS'0.42'
p1239
aa(lp1240
VGO:0042936
p1241
aVdipeptide transporter activity
p1242
aS'0.08'
p1243
aa(lp1244
VGO:0015640
p1245
aVpeptidoglycan peptide transporter activity
p1246
aS'0.07'
p1247
aa(lp1248
g481
ag482
aS'0.07'
p1249
aa(lp1250
VGO:0015232
p1251
aVheme transporter activity
p1252
aS'0.07'
p1253
aaaa(lp1254
VA7BNK8_9GAMM
p1255
aVA7BNK8
p1256
ag6
aI422288
a(lp1257
(lp1258
VGO:0047589
p1259
aV5-aminovalerate transaminase activity
p1260
aS'0.42'
p1261
aa(lp1262
VGO:0030170
p1263
aVpyridoxal phosphate binding
p1264
aS'0.14'
p1265
aaaa(lp1266
VA7BPC9_9GAMM
p1267
aVA7BPC9
p1268
ag6
aI422288
a(lp1269
(lp1270
g859
ag860
aS'0.44'
p1271
aa(lp1272
g863
ag864
aS'0.37'
p1273
aaaa(lp1274
VA7BML9_9GAMM
p1275
aVA7BML9
p1276
ag6
aI422288
a(lp1277
(lp1278
VGO:0008294
p1279
aVcalcium- and calmodulin-responsive adenylate cyclase activity
p1280
aS'0.4'
p1281
aa(lp1282
VGO:0051117
p1283
aVATPase binding
p1284
aS'0.05'
p1285
aa(lp1286
VGO:0009881
p1287
aVphotoreceptor activity
p1288
aS'0.05'
p1289
aa(lp1290
VGO:0004383
p1291
aVguanylate cyclase activity
p1292
aS'0.05'
p1293
aa(lp1294
g739
ag740
aS'0.05'
p1295
aaaa(lp1296
VA7BKQ5_9GAMM
p1297
aVA7BKQ5
p1298
ag6
aI422288
a(lp1299
(lp1300
VGO:0004198
p1301
aVcalcium-dependent cysteine-type endopeptidase activity
p1302
aS'0.47'
p1303
aa(lp1304
VGO:0004871
p1305
aVsignal transducer activity
p1306
aS'0.25'
p1307
aaaa(lp1308
VA7BPB3_9GAMM
p1309
aVA7BPB3
p1310
ag6
aI422288
a(lp1311
(lp1312
g91
ag92
aS'0.88'
p1313
aa(lp1314
g977
ag978
aS'0.21'
p1315
aa(lp1316
VGO:0052621
p1317
aVdiguanylate cyclase activity
p1318
aS'0.21'
p1319
aa(lp1320
VGO:0019825
p1321
aVoxygen binding
p1322
aS'0.21'
p1323
aa(lp1324
VGO:0020037
p1325
aVheme binding
p1326
aS'0.21'
p1327
aaaa(lp1328
VA7BM17_9GAMM
p1329
aVA7BM17
p1330
ag6
aI422288
a(lp1331
(lp1332
VGO:0004066
p1333
aVasparagine synthase (glutamine-hydrolyzing) activity
p1334
aS'0.79'
p1335
aaaa(lp1336
VA7BMD4_9GAMM
p1337
aVA7BMD4
p1338
ag6
aI422288
a(lp1339
(lp1340
g91
ag92
aS'0.95'
p1341
aa(lp1342
VGO:0004814
p1343
aVarginine-tRNA ligase activity
p1344
aS'0.85'
p1345
aaaa(lp1346
VA7BM42_9GAMM
p1347
aVA7BM42
p1348
ag6
aI422288
a(lp1349
(lp1350
VGO:0005242
p1351
aVinward rectifier potassium channel activity
p1352
aS'0.83'
p1353
aa(lp1354
VGO:0016286
p1355
aVsmall conductance calcium-activated potassium channel activity
p1356
aS'0.21'
p1357
aa(lp1358
g259
ag260
aS'0.21'
p1359
aa(lp1360
VGO:0019903
p1361
aVprotein phosphatase binding
p1362
aS'0.2'
p1363
aa(lp1364
VGO:0015271
p1365
aVoutward rectifier potassium channel activity
p1366
aS'0.2'
p1367
aa(lp1368
VGO:0051393
p1369
aValpha-actinin binding
p1370
aS'0.2'
p1371
aaaa(lp1372
VA7BPC4_9GAMM
p1373
aVA7BPC4
p1374
ag6
aI422288
a(lp1375
(lp1376
g259
ag260
aS'0.41'
p1377
aa(lp1378
VGO:0004176
p1379
aVATP-dependent peptidase activity
p1380
aS'0.33'
p1381
aa(lp1382
VGO:0044183
p1383
aVprotein binding involved in protein folding
p1384
aS'0.26'
p1385
aaaa(lp1386
VA7BKM8_9GAMM
p1387
aVA7BKM8
p1388
ag6
aI422288
a(lp1389
(lp1390
g33
ag34
aS'0.82'
p1391
aa(lp1392
g37
ag38
aS'0.09'
p1393
aa(lp1394
g41
ag42
aS'0.09'
p1395
aa(lp1396
g45
ag46
aS'0.09'
p1397
aa(lp1398
g49
ag50
aS'0.09'
p1399
aa(lp1400
g53
ag54
aS'0.09'
p1401
aa(lp1402
g57
ag58
aS'0.09'
p1403
aaaa(lp1404
VA7BLK4_9GAMM
p1405
aVA7BLK4
p1406
ag6
aI422288
a(lp1407
(lp1408
g521
ag522
aS'0.83'
p1409
aa(lp1410
g311
ag312
aS'0.5'
p1411
aa(lp1412
g1191
ag1192
aS'0.46'
p1413
aaaa(lp1414
VA7BNA3_9GAMM
p1415
aVA7BNA3
p1416
ag6
aI422288
a(lp1417
(lp1418
VGO:0008932
p1419
aVlytic endotransglycosylase activity
p1420
aS'0.84'
p1421
aa(lp1422
VGO:0016829
p1423
aVlyase activity
p1424
aS'0.05'
p1425
aa(lp1426
VGO:0004553
p1427
aVhydrolase activity, hydrolyzing O-glycosyl compounds
p1428
aS'0.05'
p1429
aaaa(lp1430
VA7BN24_9GAMM
p1431
aVA7BN24
p1432
ag6
aI422288
a(lp1433
(lp1434
g91
ag92
aS'0.73'
p1435
aaaa(lp1436
VA7BLS6_9GAMM
p1437
aVA7BLS6
p1438
ag6
aI422288
a(lp1439
(lp1440
VGO:0004867
p1441
aVserine-type endopeptidase inhibitor activity
p1442
aS'0.75'
p1443
aa(lp1444
VGO:0004888
p1445
aVtransmembrane signaling receptor activity
p1446
aS'0.56'
p1447
aaaa(lp1448
VA7BLW2_9GAMM
p1449
aVA7BLW2
p1450
ag6
aI422288
a(lp1451
(lp1452
VGO:0003735
p1453
aVstructural constituent of ribosome
p1454
aS'0.91'
p1455
aa(lp1456
g91
ag92
aS'0.81'
p1457
aaaa(lp1458
VA7BLX8_9GAMM
p1459
aVA7BLX8
p1460
ag6
aI422288
a(lp1461
(lp1462
VGO:0043874
p1463
aVacireductone synthase activity
p1464
aS'0.62'
p1465
aa(lp1466
VGO:0004713
p1467
aVprotein tyrosine kinase activity
p1468
aS'0.42'
p1469
aa(lp1470
g91
ag92
aS'0.36'
p1471
aa(lp1472
VGO:0008877
p1473
aVglucose-1-phosphatase activity
p1474
aS'0.35'
p1475
aa(lp1476
g745
ag746
aS'0.35'
p1477
aa(lp1478
g739
ag740
aS'0.35'
p1479
aa(lp1480
VGO:0008477
p1481
aVpurine nucleosidase activity
p1482
aS'0.35'
p1483
aa(lp1484
VGO:0050483
p1485
aVIMP 5'-nucleotidase activity
p1486
aS'0.35'
p1487
aa(lp1488
VGO:0050484
p1489
aVGMP 5'-nucleotidase activity
p1490
aS'0.35'
p1491
aa(lp1492
VGO:0050124
p1493
aVN-acylneuraminate-9-phosphatase activity
p1494
aS'0.35'
p1495
aaaa(lp1496
VA7BN73_9GAMM
p1497
aVA7BN73
p1498
ag6
aI422288
a(lp1499
(lp1500
VGO:0004386
p1501
aVhelicase activity
p1502
aS'0.78'
p1503
aaaa(lp1504
VA7BKD6_9GAMM
p1505
aVA7BKD6
p1506
ag6
aI422288
a(lp1507
(lp1508
VGO:0004099
p1509
aVchitin deacetylase activity
p1510
aS'0.93'
p1511
aa(lp1512
VGO:0016798
p1513
aVhydrolase activity, acting on glycosyl bonds
p1514
aS'0.25'
p1515
aaaa(lp1516
VA7BLQ6_9GAMM
p1517
aVA7BLQ6
p1518
ag6
aI422288
a(lp1519
(lp1520
VGO:0004591
p1521
aVoxoglutarate dehydrogenase (succinyl-transferring) activity
p1522
aS'0.93'
p1523
aa(lp1524
g259
ag260
aS'0.28'
p1525
aaaa(lp1526
VA7BNY4_9GAMM
p1527
aVA7BNY4
p1528
ag6
aI422288
a(lp1529
(lp1530
g339
ag340
aS'0.69'
p1531
aa(lp1532
g939
ag940
aS'0.69'
p1533
aa(lp1534
g935
ag936
aS'0.55'
p1535
aaaa(lp1536
VA7BM19_9GAMM
p1537
aVA7BM19
p1538
ag6
aI422288
a(lp1539
(lp1540
VGO:0008188
p1541
aVneuropeptide receptor activity
p1542
aS'0.92'
p1543
aa(lp1544
VGO:0019901
p1545
aVprotein kinase binding
p1546
aS'0.68'
p1547
aa(lp1548
g49
ag50
aS'0.68'
p1549
aa(lp1550
VGO:0019904
p1551
aVprotein domain specific binding
p1552
aS'0.68'
p1553
aaaa(lp1554
VA7BLD3_9GAMM
p1555
aVA7BLD3
p1556
ag6
aI422288
a(lp1557
(lp1558
g311
ag312
aS'0.9'
p1559
aaaa(lp1560
VA7BNF0_9GAMM
p1561
aVA7BNF0
p1562
ag6
aI422288
a(lp1563
(lp1564
VGO:0042623
p1565
aVATPase activity, coupled
p1566
aS'0.9'
p1567
aa(lp1568
VGO:0008569
p1569
aVminus-end-directed microtubule motor activity
p1570
aS'0.7'
p1571
aaaa(lp1572
VA7BLJ1_9GAMM
p1573
aVA7BLJ1
p1574
ag6
aI422288
a(lp1575
(lp1576
g195
ag196
aS'0.79'
p1577
aa(lp1578
g199
ag200
aS'0.27'
p1579
aa(lp1580
g203
ag204
aS'0.25'
p1581
aa(lp1582
g207
ag208
aS'0.25'
p1583
aa(lp1584
g211
ag212
aS'0.25'
p1585
aa(lp1586
g215
ag216
aS'0.25'
p1587
aa(lp1588
g219
ag220
aS'0.25'
p1589
aa(lp1590
g69
ag70
aS'0.25'
p1591
aa(lp1592
g225
ag226
aS'0.25'
p1593
aa(lp1594
g229
ag230
aS'0.25'
p1595
aaaa(lp1596
VA7BKL7_9GAMM
p1597
aVA7BKL7
p1598
ag6
aI422288
a(lp1599
(lp1600
g91
ag92
aS'0.78'
p1601
aa(lp1602
g573
ag574
aS'0.44'
p1603
aaaa(lp1604
VA7BKS7_9GAMM
p1605
aVA7BKS7
p1606
ag6
aI422288
a(lp1607
(lp1608
g33
ag34
aS'0.92'
p1609
aa(lp1610
g45
ag46
aS'0.23'
p1611
aa(lp1612
g37
ag38
aS'0.22'
p1613
aa(lp1614
g41
ag42
aS'0.22'
p1615
aa(lp1616
g49
ag50
aS'0.22'
p1617
aa(lp1618
g53
ag54
aS'0.22'
p1619
aa(lp1620
g57
ag58
aS'0.22'
p1621
aaaa(lp1622
VA7BL31_9GAMM
p1623
aVA7BL31
p1624
ag6
aI422288
a(lp1625
(lp1626
VGO:0019863
p1627
aVIgE binding
p1628
aS'0.93'
p1629
aa(lp1630
g311
ag312
aS'0.1'
p1631
aa(lp1632
g745
ag746
aS'0.08'
p1633
aa(lp1634
VGO:0030985
p1635
aVhigh molecular weight kininogen binding
p1636
aS'0.08'
p1637
aa(lp1638
VGO:0004634
p1639
aVphosphopyruvate hydratase activity
p1640
aS'0.08'
p1641
aaaa(lp1642
VA7BPF4_9GAMM
p1643
aVA7BPF4
p1644
ag6
aI422288
a(lp1645
(lp1646
g311
ag312
aS'0.83'
p1647
aa(lp1648
g335
ag336
aS'0.17'
p1649
aa(lp1650
g339
ag340
aS'0.17'
p1651
aa(lp1652
g343
ag344
aS'0.17'
p1653
aa(lp1654
g351
ag352
aS'0.17'
p1655
aa(lp1656
VGO:0004072
p1657
aVaspartate kinase activity
p1658
aS'0.17'
p1659
aa(lp1660
g355
ag356
aS'0.17'
p1661
aa(lp1662
g363
ag364
aS'0.17'
p1663
aaaa(lp1664
VA7BLI0_9GAMM
p1665
aVA7BLI0
p1666
ag6
aI422288
a(lp1667
(lp1668
g311
ag312
aS'0.84'
p1669
aaaa(lp1670
VA7BNC4_9GAMM
p1671
aVA7BNC4
p1672
ag6
aI422288
a(lp1673
(lp1674
g437
ag438
aS'0.24'
p1675
aa(lp1676
g1361
ag1362
aS'0.2'
p1677
aa(lp1678
VGO:0019865
p1679
aVimmunoglobulin binding
p1680
aS'0.16'
p1681
aaaa(lp1682
VA7BNI4_9GAMM
p1683
aVA7BNI4
p1684
ag6
aI422288
a(lp1685
(lp1686
g1009
ag1010
aS'0.68'
p1687
aa(lp1688
g601
ag602
aS'0.55'
p1689
aa(lp1690
VGO:0036033
p1691
aVmediator complex binding
p1692
aS'0.54'
p1693
aaaa(lp1694
VA7BMB5_9GAMM
p1695
aVA7BMB5
p1696
ag6
aI422288
a(lp1697
(lp1698
VGO:0004588
p1699
aVorotate phosphoribosyltransferase activity
p1700
aS'0.95'
p1701
aa(lp1702
g745
ag746
aS'0.25'
p1703
aaaa(lp1704
VA7BLJ2_9GAMM
p1705
aVA7BLJ2
p1706
ag6
aI422288
a(lp1707
(lp1708
VGO:0004312
p1709
aVfatty acid synthase activity
p1710
aS'0.91'
p1711
aa(lp1712
g195
ag196
aS'0.72'
p1713
aaaa(lp1714
VA7BLU2_9GAMM
p1715
aVA7BLU2
p1716
ag6
aI422288
a(lp1717
(lp1718
g545
ag546
aS'0.68'
p1719
aa(lp1720
g1445
ag1446
aS'0.51'
p1721
aaaa(lp1722
VA7BM68_9GAMM
p1723
aVA7BM68
p1724
ag6
aI422288
a(lp1725
(lp1726
g1317
ag1318
aS'0.91'
p1727
aa(lp1728
g339
ag340
aS'0.28'
p1729
aa(lp1730
g739
ag740
aS'0.27'
p1731
aa(lp1732
g745
ag746
aS'0.27'
p1733
aa(lp1734
g1143
ag1144
aS'0.27'
p1735
aaaa(lp1736
VA7BMC4_9GAMM
p1737
aVA7BMC4
p1738
ag6
aI422288
a(lp1739
(lp1740
g311
ag312
aS'0.9'
p1741
aaaa(lp1742
VA7BLV1_9GAMM
p1743
aVA7BLV1
p1744
ag6
aI422288
a(lp1745
(lp1746
VGO:0008831
p1747
aVdTDP-4-dehydrorhamnose reductase activity
p1748
aS'0.92'
p1749
aa(lp1750
VGO:0048270
p1751
aVmethionine adenosyltransferase regulator activity
p1752
aS'0.06'
p1753
aa(lp1754
g91
ag92
aS'0.06'
p1755
aaaa(lp1756
VA7BNZ0_9GAMM
p1757
aVA7BNZ0
p1758
ag6
aI422288
a(lp1759
(lp1760
g477
ag478
aS'0.79'
p1761
aa(lp1762
g1245
ag1246
aS'0.29'
p1763
aaaa(lp1764
VA7BNE1_9GAMM
p1765
aVA7BNE1
p1766
ag6
aI422288
a(lp1767
(lp1768
g91
ag92
aS'0.7'
p1769
aaaa(lp1770
VA7BMA7_9GAMM
p1771
aVA7BMA7
p1772
ag6
aI422288
a(lp1773
(lp1774
VGO:0015420
p1775
aVcobalamin-transporting ATPase activity
p1776
aS'0.79'
p1777
aa(lp1778
VGO:0015343
p1779
aVsiderophore transmembrane transporter activity
p1780
aS'0.58'
p1781
aaaa(lp1782
VA7BKH4_9GAMM
p1783
aVA7BKH4
p1784
ag6
aI422288
a(lp1785
(lp1786
VGO:0016712
p1787
aVoxidoreductase activity, acting on paired donors, with incorporation or reduction of molecular oxygen, reduced flavin or flavoprotein as one donor, and incorporation of one atom of oxygen
p1788
aS'0.75'
p1789
aa(lp1790
VGO:0050660
p1791
aVflavin adenine dinucleotide binding
p1792
aS'0.68'
p1793
aaaa(lp1794
VA7BNK9_9GAMM
p1795
aVA7BNK9
p1796
ag6
aI422288
a(lp1797
(lp1798
VGO:0008940
p1799
aVnitrate reductase activity
p1800
aS'0.95'
p1801
aa(lp1802
g91
ag92
aS'0.29'
p1803
aaaa(lp1804
VA7BKJ9_9GAMM
p1805
aVA7BKJ9
p1806
ag6
aI422288
a(lp1807
(lp1808
g203
ag204
aS'0.89'
p1809
aa(lp1810
g225
ag226
aS'0.58'
p1811
aa(lp1812
g195
ag196
aS'0.47'
p1813
aaaa(lp1814
VA7BL17_9GAMM
p1815
aVA7BL17
p1816
ag6
aI422288
a(lp1817
(lp1818
VGO:0003755
p1819
aVpeptidyl-prolyl cis-trans isomerase activity
p1820
aS'0.9'
p1821
aa(lp1822
g745
ag746
aS'0.15'
p1823
aa(lp1824
VGO:0004519
p1825
aVendonuclease activity
p1826
aS'0.15'
p1827
aaaa(lp1828
VA7BLS2_9GAMM
p1829
aVA7BLS2
p1830
ag6
aI422288
a(lp1831
(lp1832
g247
ag248
aS'0.64'
p1833
aa(lp1834
g251
ag252
aS'0.6'
p1835
aaaa(lp1836
VA7BLB8_9GAMM
p1837
aVA7BLB8
p1838
ag6
aI422288
a(lp1839
(lp1840
VGO:0008941
p1841
aVnitric oxide dioxygenase activity
p1842
aS'0.9'
p1843
aa(lp1844
VGO:0005504
p1845
aVfatty acid binding
p1846
aS'0.11'
p1847
aa(lp1848
VGO:0071949
p1849
aVFAD binding
p1850
aS'0.11'
p1851
aa(lp1852
g1321
ag1322
aS'0.11'
p1853
aa(lp1854
VGO:0016966
p1855
aVnitric oxide reductase activity
p1856
aS'0.11'
p1857
aa(lp1858
g1325
ag1326
aS'0.11'
p1859
aa(lp1860
VGO:0032843
p1861
aVhydroperoxide reductase activity
p1862
aS'0.11'
p1863
aa(lp1864
VGO:0042602
p1865
aVriboflavin reductase (NADPH) activity
p1866
aS'0.11'
p1867
aa(lp1868
VGO:0005344
p1869
aVoxygen transporter activity
p1870
aS'0.11'
p1871
aaaa(lp1872
VA7BLW0_9GAMM
p1873
aVA7BLW0
p1874
ag6
aI422288
a(lp1875
(lp1876
VGO:0008939
p1877
aVnicotinate-nucleotide-dimethylbenzimidazole phosphoribosyltransferase activity
p1878
aS'0.78'
p1879
aaaa(lp1880
VA7BLA5_9GAMM
p1881
aVA7BLA5
p1882
ag6
aI422288
a(lp1883
(lp1884
VGO:0030331
p1885
aVestrogen receptor binding
p1886
aS'0.82'
p1887
aa(lp1888
VGO:0042826
p1889
aVhistone deacetylase binding
p1890
aS'0.8'
p1891
aaaa(lp1892
VA7BN68_9GAMM
p1893
aVA7BN68
p1894
ag6
aI422288
a(lp1895
(lp1896
g1283
ag1284
aS'0.91'
p1897
aa(lp1898
VGO:0005215
p1899
aVtransporter activity
p1900
aS'0.43'
p1901
aaaa(lp1902
VA7BP65_9GAMM
p1903
aVA7BP65
p1904
ag6
aI422288
a(lp1905
(lp1906
VGO:0009025
p1907
aVtagatose-bisphosphate aldolase activity
p1908
aS'0.89'
p1909
aa(lp1910
VGO:0004332
p1911
aVfructose-bisphosphate aldolase activity
p1912
aS'0.86'
p1913
aaaa(lp1914
VA7BL94_9GAMM
p1915
aVA7BL94
p1916
ag6
aI422288
a(lp1917
(lp1918
g307
ag308
aS'0.77'
p1919
aa(lp1920
VGO:0047760
p1921
aVbutyrate-CoA ligase activity
p1922
aS'0.76'
p1923
aa(lp1924
g199
ag200
aS'0.73'
p1925
aaaa(lp1926
VA7BKF7_9GAMM
p1927
aVA7BKF7
p1928
ag6
aI422288
a(lp1929
(lp1930
g91
ag92
aS'0.76'
p1931
aa(lp1932
VGO:0008137
p1933
aVNADH dehydrogenase (ubiquinone) activity
p1934
aS'0.74'
p1935
aaaa(lp1936
VA7BMN3_9GAMM
p1937
aVA7BMN3
p1938
ag6
aI422288
a(lp1939
(lp1940
g1453
ag1454
aS'0.93'
p1941
aa(lp1942
g573
ag574
aS'0.32'
p1943
aaaa(lp1944
VA7BKU9_9GAMM
p1945
aVA7BKU9
p1946
ag6
aI422288
a(lp1947
(lp1948
VGO:0004190
p1949
aVaspartic-type endopeptidase activity
p1950
aS'0.73'
p1951
aaaa(lp1952
VA7BM22_9GAMM
p1953
aVA7BM22
p1954
ag6
aI422288
a(lp1955
(lp1956
g311
ag312
aS'0.89'
p1957
aa(lp1958
VGO:0000175
p1959
aV3'-5'-exoribonuclease activity
p1960
aS'0.88'
p1961
aaaa(lp1962
VA7BP74_9GAMM
p1963
aVA7BP74
p1964
ag6
aI422288
a(lp1965
(lp1966
g1933
ag1934
aS'0.45'
p1967
aa(lp1968
g215
ag216
aS'0.44'
p1969
aaaa(lp1970
VA7BKR8_9GAMM
p1971
aVA7BKR8
p1972
ag6
aI422288
a(lp1973
(lp1974
g497
ag498
aS'0.78'
p1975
aa(lp1976
g91
ag92
aS'0.78'
p1977
aaaa(lp1978
VA7BKK8_9GAMM
p1979
aVA7BKK8
p1980
ag6
aI422288
a(lp1981
(lp1982
g959
ag960
aS'0.6'
p1983
aa(lp1984
VGO:0051010
p1985
aVmicrotubule plus-end binding
p1986
aS'0.54'
p1987
aa(lp1988
g601
ag602
aS'0.54'
p1989
aaaa(lp1990
VA7BL69_9GAMM
p1991
aVA7BL69
p1992
ag6
aI422288
a(lp1993
(lp1994
VGO:0008892
p1995
aVguanine deaminase activity
p1996
aS'0.93'
p1997
aa(lp1998
VGO:0000034
p1999
aVadenine deaminase activity
p2000
aS'0.3'
p2001
aaaa(lp2002
VA7BMB2_9GAMM
p2003
aVA7BMB2
p2004
ag6
aI422288
a(lp2005
(lp2006
g1541
ag1542
aS'0.81'
p2007
aa(lp2008
g1545
ag1546
aS'0.46'
p2009
aa(lp2010
g49
ag50
aS'0.46'
p2011
aa(lp2012
g1551
ag1552
aS'0.46'
p2013
aaaa(lp2014
VA7BPD2_9GAMM
p2015
aVA7BPD2
p2016
ag6
aI422288
a(lp2017
(lp2018
VGO:0042277
p2019
aVpeptide binding
p2020
aS'0.88'
p2021
aa(lp2022
VGO:0051082
p2023
aVunfolded protein binding
p2024
aS'0.16'
p2025
aaaa(lp2026
VA7BKX3_9GAMM
p2027
aVA7BKX3
p2028
ag6
aI422288
a(lp2029
(lp2030
g1383
ag1384
aS'0.93'
p2031
aa(lp2032
g1565
ag1566
aS'0.86'
p2033
aaaa(lp2034
VA7BLH4_9GAMM
p2035
aVA7BLH4
p2036
ag6
aI422288
a(lp2037
(lp2038
g1123
ag1124
aS'0.71'
p2039
aa(lp2040
g91
ag92
aS'0.67'
p2041
aaaa(lp2042
VA7BNY7_9GAMM
p2043
aVA7BNY7
p2044
ag6
aI422288
a(lp2045
(lp2046
VGO:0031176
p2047
aVendo-1,4-beta-xylanase activity
p2048
aS'0.82'
p2049
aa(lp2050
VGO:0005198
p2051
aVstructural molecule activity
p2052
aS'0.74'
p2053
aaaa(lp2054
VA7BKF0_9GAMM
p2055
aVA7BKF0
p2056
ag6
aI422288
a(lp2057
(lp2058
g91
ag92
aS'0.63'
p2059
aaaa(lp2060
VA7BLX5_9GAMM
p2061
aVA7BLX5
p2062
ag6
aI422288
a(lp2063
(lp2064
VGO:0071111
p2065
aVcyclic-guanylate-specific phosphodiesterase activity
p2066
aS'0.85'
p2067
aa(lp2068
VGO:0009883
p2069
aVred or far-red light photoreceptor activity
p2070
aS'0.15'
p2071
aaaa(lp2072
VA7BNP4_9GAMM
p2073
aVA7BNP4
p2074
ag6
aI422288
a(lp2075
(lp2076
VGO:0004521
p2077
aVendoribonuclease activity
p2078
aS'0.78'
p2079
aaaa(lp2080
VA7BKV3_9GAMM
p2081
aVA7BKV3
p2082
ag6
aI422288
a(lp2083
(lp2084
g307
ag308
aS'0.94'
p2085
aa(lp2086
VGO:0052716
p2087
aVhydroquinone:oxygen oxidoreductase activity
p2088
aS'0.54'
p2089
aaaa(lp2090
VA7BNP2_9GAMM
p2091
aVA7BNP2
p2092
ag6
aI422288
a(lp2093
(lp2094
g319
ag320
aS'0.88'
p2095
aa(lp2096
g311
ag312
aS'0.83'
p2097
aa(lp2098
g803
ag804
aS'0.64'
p2099
aaaa(lp2100
VA7BN52_9GAMM
p2101
aVA7BN52
p2102
ag6
aI422288
a(lp2103
(lp2104
VGO:0016597
p2105
aVamino acid binding
p2106
aS'0.82'
p2107
aa(lp2108
VGO:0015658
p2109
aVbranched-chain amino acid transmembrane transporter activity
p2110
aS'0.75'
p2111
aaaa(lp2112
VA7BM78_9GAMM
p2113
aVA7BM78
p2114
ag6
aI422288
a(lp2115
(lp2116
VGO:0004590
p2117
aVorotidine-5'-phosphate decarboxylase activity
p2118
aS'0.93'
p2119
aa(lp2120
g311
ag312
aS'0.46'
p2121
aaaa(lp2122
VA7BKZ1_9GAMM
p2123
aVA7BKZ1
p2124
ag6
aI422288
a(lp2125
(lp2126
g311
ag312
aS'0.9'
p2127
aaaa(lp2128
VA7BKV8_9GAMM
p2129
aVA7BKV8
p2130
ag6
aI422288
a(lp2131
(lp2132
VGO:0003917
p2133
aVDNA topoisomerase type I activity
p2134
aS'0.95'
p2135
aa(lp2136
g745
ag746
aS'0.27'
p2137
aa(lp2138
g91
ag92
aS'0.22'
p2139
aaaa(lp2140
VA7BNU8_9GAMM
p2141
aVA7BNU8
p2142
ag6
aI422288
a(lp2143
(lp2144
g259
ag260
aS'0.85'
p2145
aa(lp2146
VGO:0070006
p2147
aVmetalloaminopeptidase activity
p2148
aS'0.75'
p2149
aaaa(lp2150
VA7BMG8_9GAMM
p2151
aVA7BMG8
p2152
ag6
aI422288
a(lp2153
(lp2154
VGO:0018861
p2155
aV4-chlorobenzoate-CoA ligase activity
p2156
aS'0.8'
p2157
aa(lp2158
g203
ag204
aS'0.75'
p2159
aaaa(lp2160
VA7BMK1_9GAMM
p2161
aVA7BMK1
p2162
ag6
aI422288
a(lp2163
(lp2164
VGO:0004418
p2165
aVhydroxymethylbilane synthase activity
p2166
aS'0.95'
p2167
aaaa(lp2168
VA7BKS0_9GAMM
p2169
aVA7BKS0
p2170
ag6
aI422288
a(lp2171
(lp2172
g711
ag712
aS'0.87'
p2173
aa(lp2174
g91
ag92
aS'0.84'
p2175
aaaa(lp2176
VA7BKP3_9GAMM
p2177
aVA7BKP3
p2178
ag6
aI422288
a(lp2179
(lp2180
g335
ag336
aS'0.88'
p2181
aa(lp2182
g363
ag364
aS'0.82'
p2183
aa(lp2184
g339
ag340
aS'0.75'
p2185
aaaa(lp2186
VA7BLG3_9GAMM
p2187
aVA7BLG3
p2188
ag6
aI422288
a(lp2189
(lp2190
g311
ag312
aS'0.86'
p2191
aaaa(lp2192
VA7BKE1_9GAMM
p2193
aVA7BKE1
p2194
ag6
aI422288
a(lp2195
(lp2196
g1855
ag1856
aS'0.88'
p2197
aa(lp2198
VGO:0008800
p2199
aVbeta-lactamase activity
p2200
aS'0.36'
p2201
aaaa(lp2202
VA7BNS0_9GAMM
p2203
aVA7BNS0
p2204
ag6
aI422288
a(lp2205
(lp2206
g311
ag312
aS'0.85'
p2207
aa(lp2208
g335
ag336
aS'0.35'
p2209
aaaa(lp2210
VA7BLB4_9GAMM
p2211
aVA7BLB4
p2212
ag6
aI422288
a(lp2213
(lp2214
g319
ag320
aS'0.9'
p2215
aa(lp2216
g325
ag326
aS'0.75'
p2217
aa(lp2218
g311
ag312
aS'0.74'
p2219
aaaa(lp2220
VA7BMV5_9GAMM
p2221
aVA7BMV5
p2222
ag6
aI422288
a(lp2223
(lp2224
VGO:0046820
p2225
aV4-amino-4-deoxychorismate synthase activity
p2226
aS'0.95'
p2227
aa(lp2228
VGO:0004049
p2229
aVanthranilate synthase activity
p2230
aS'0.11'
p2231
aa(lp2232
VGO:0008909
p2233
aVisochorismate synthase activity
p2234
aS'0.1'
p2235
aa(lp2236
g745
ag746
aS'0.1'
p2237
aa(lp2238
VGO:0004106
p2239
aVchorismate mutase activity
p2240
aS'0.1'
p2241
aa(lp2242
g91
ag92
aS'0.1'
p2243
aa(lp2244
VGO:0043904
p2245
aVisochorismate pyruvate lyase activity
p2246
aS'0.1'
p2247
aaaa(lp2248
VA7BNG4_9GAMM
p2249
aVA7BNG4
p2250
ag6
aI422288
a(lp2251
(lp2252
g415
ag416
aS'0.93'
p2253
aa(lp2254
VGO:0050567
p2255
aVglutaminyl-tRNA synthase (glutamine-hydrolyzing) activity
p2256
aS'0.22'
p2257
aa(lp2258
VGO:0017064
p2259
aVfatty acid amide hydrolase activity
p2260
aS'0.22'
p2261
aa(lp2262
VGO:0050537
p2263
aVmandelamide amidase activity
p2264
aS'0.21'
p2265
aa(lp2266
VGO:0004039
p2267
aVallophanate hydrolase activity
p2268
aS'0.21'
p2269
aa(lp2270
VGO:0018750
p2271
aVbiuret amidohydrolase activity
p2272
aS'0.21'
p2273
aa(lp2274
VGO:0004847
p2275
aVurea carboxylase activity
p2276
aS'0.21'
p2277
aaaa(lp2278
VA7BKP1_9GAMM
p2279
aVA7BKP1
p2280
ag6
aI422288
a(lp2281
(lp2282
g65
ag66
aS'0.93'
p2283
aa(lp2284
g339
ag340
aS'0.83'
p2285
aa(lp2286
g91
ag92
aS'0.7'
p2287
aaaa(lp2288
VA7BL70_9GAMM
p2289
aVA7BL70
p2290
ag6
aI422288
a(lp2291
(lp2292
g1995
ag1996
aS'0.94'
p2293
aa(lp2294
g1999
ag2000
aS'0.3'
p2295
aaaa(lp2296
VA7BLI8_9GAMM
p2297
aVA7BLI8
p2298
ag6
aI422288
a(lp2299
(lp2300
VGO:0008144
p2301
aVdrug binding
p2302
aS'0.77'
p2303
aa(lp2304
VGO:0008955
p2305
aVpeptidoglycan glycosyltransferase activity
p2306
aS'0.13'
p2307
aaaa(lp2308
VA7BN56_9GAMM
p2309
aVA7BN56
p2310
ag6
aI422288
a(lp2311
(lp2312
VGO:0005516
p2313
aVcalmodulin binding
p2314
aS'0.87'
p2315
aa(lp2316
g915
ag916
aS'0.46'
p2317
aa(lp2318
VGO:0008135
p2319
aVtranslation factor activity, nucleic acid binding
p2320
aS'0.46'
p2321
aa(lp2322
VGO:0004686
p2323
aVelongation factor-2 kinase activity
p2324
aS'0.46'
p2325
aaaa(lp2326
VA7BKG5_9GAMM
p2327
aVA7BKG5
p2328
ag6
aI422288
a(lp2329
(lp2330
g307
ag308
aS'0.88'
p2331
aa(lp2332
g311
ag312
aS'0.39'
p2333
aaaa(lp2334
VA7BKQ3_9GAMM
p2335
aVA7BKQ3
p2336
ag6
aI422288
a(lp2337
(lp2338
VGO:0009982
p2339
aVpseudouridine synthase activity
p2340
aS'0.95'
p2341
aa(lp2342
g91
ag92
aS'0.08'
p2343
aaaa(lp2344
VA7BKF3_9GAMM
p2345
aVA7BKF3
p2346
ag6
aI422288
a(lp2347
(lp2348
g91
ag92
aS'0.81'
p2349
aa(lp2350
VGO:0008933
p2351
aVlytic transglycosylase activity
p2352
aS'0.81'
p2353
aaaa(lp2354
VA7BNM1_9GAMM
p2355
aVA7BNM1
p2356
ag6
aI422288
a(lp2357
(lp2358
g1885
ag1886
aS'0.79'
p2359
aa(lp2360
g1889
ag1890
aS'0.76'
p2361
aaaa(lp2362
VA7BKP2_9GAMM
p2363
aVA7BKP2
p2364
ag6
aI422288
a(lp2365
(lp2366
g311
ag312
aS'0.86'
p2367
aa(lp2368
VGO:0003991
p2369
aVacetylglutamate kinase activity
p2370
aS'0.34'
p2371
aaaa(lp2372
VA7BMF5_9GAMM
p2373
aVA7BMF5
p2374
ag6
aI422288
a(lp2375
(lp2376
g91
ag92
aS'0.74'
p2377
aa(lp2378
g489
ag490
aS'0.6'
p2379
aaaa(lp2380
VA7BN70_9GAMM
p2381
aVA7BN70
p2382
ag6
aI422288
a(lp2383
(lp2384
VGO:0004598
p2385
aVpeptidylamidoglycolate lyase activity
p2386
aS'0.76'
p2387
aa(lp2388
g807
ag808
aS'0.67'
p2389
aa(lp2390
VGO:0004504
p2391
aVpeptidylglycine monooxygenase activity
p2392
aS'0.57'
p2393
aaaa(lp2394
VA7BL53_9GAMM
p2395
aVA7BL53
p2396
ag6
aI422288
a(lp2397
(lp2398
VGO:0008661
p2399
aV1-deoxy-D-xylulose-5-phosphate synthase activity
p2400
aS'0.58'
p2401
aa(lp2402
VGO:0004802
p2403
aVtransketolase activity
p2404
aS'0.42'
p2405
aa(lp2406
VGO:0030976
p2407
aVthiamine pyrophosphate binding
p2408
aS'0.39'
p2409
aaaa(lp2410
VA7BP35_9GAMM
p2411
aVA7BP35
p2412
ag6
aI422288
a(lp2413
(lp2414
VGO:0004135
p2415
aVamylo-alpha-1,6-glucosidase activity
p2416
aS'0.9'
p2417
aa(lp2418
g91
ag92
aS'0.3'
p2419
aaaa(lp2420
VA7BNQ2_9GAMM
p2421
aVA7BNQ2
p2422
ag6
aI422288
a(lp2423
(lp2424
g259
ag260
aS'0.82'
p2425
aa(lp2426
g263
ag264
aS'0.17'
p2427
aa(lp2428
g267
ag268
aS'0.17'
p2429
aaaa(lp2430
VA7BKL8_9GAMM
p2431
aVA7BKL8
p2432
ag6
aI422288
a(lp2433
(lp2434
g2155
ag2156
aS'0.86'
p2435
aa(lp2436
VGO:0035438
p2437
aVcyclic-di-GMP binding
p2438
aS'0.8'
p2439
aa(lp2440
g307
ag308
aS'0.77'
p2441
aaaa(lp2442
VA7BNS7_9GAMM
p2443
aVA7BNS7
p2444
ag6
aI422288
a(lp2445
(lp2446
g339
ag340
aS'0.67'
p2447
aa(lp2448
g939
ag940
aS'0.67'
p2449
aaaa(lp2450
VA7BLM0_9GAMM
p2451
aVA7BLM0
p2452
ag6
aI422288
a(lp2453
(lp2454
g91
ag92
aS'0.93'
p2455
aa(lp2456
VGO:0031992
p2457
aVenergy transducer activity
p2458
aS'0.25'
p2459
aaaa(lp2460
VA7BN01_9GAMM
p2461
aVA7BN01
p2462
ag6
aI422288
a(lp2463
(lp2464
VGO:0004764
p2465
aVshikimate 3-dehydrogenase (NADP+) activity
p2466
aS'0.94'
p2467
aa(lp2468
VGO:0004765
p2469
aVshikimate kinase activity
p2470
aS'0.35'
p2471
aa(lp2472
g1105
ag1106
aS'0.35'
p2473
aa(lp2474
VGO:0030266
p2475
aVquinate 3-dehydrogenase (NAD+) activity
p2476
aS'0.35'
p2477
aa(lp2478
VGO:0003866
p2479
aV3-phosphoshikimate 1-carboxyvinyltransferase activity
p2480
aS'0.35'
p2481
aa(lp2482
VGO:0070403
p2483
aVNAD+ binding
p2484
aS'0.35'
p2485
aaaa(lp2486
VA7BNC7_9GAMM
p2487
aVA7BNC7
p2488
ag6
aI422288
a(lp2489
(lp2490
g311
ag312
aS'0.82'
p2491
aa(lp2492
g339
ag340
aS'0.37'
p2493
aa(lp2494
g939
ag940
aS'0.37'
p2495
aaaa(lp2496
VA7BMU6_9GAMM
p2497
aVA7BMU6
p2498
ag6
aI422288
a(lp2499
(lp2500
g311
ag312
aS'0.5'
p2501
aa(lp2502
VGO:0019855
p2503
aVcalcium channel inhibitor activity
p2504
aS'0.4'
p2505
aaaa(lp2506
VA7BMX5_9GAMM
p2507
aVA7BMX5
p2508
ag6
aI422288
a(lp2509
(lp2510
g91
ag92
aS'0.93'
p2511
aa(lp2512
g2479
ag2480
aS'0.79'
p2513
aaaa(lp2514
VA7BM47_9GAMM
p2515
aVA7BM47
p2516
ag6
aI422288
a(lp2517
(lp2518
g1441
ag1442
aS'0.83'
p2519
aa(lp2520
VGO:0019966
p2521
aVinterleukin-1 binding
p2522
aS'0.06'
p2523
aa(lp2524
g1053
ag1054
aS'0.06'
p2525
aa(lp2526
VGO:0008009
p2527
aVchemokine activity
p2528
aS'0.06'
p2529
aa(lp2530
VGO:0031715
p2531
aVC5L2 anaphylatoxin chemotactic receptor binding
p2532
aS'0.06'
p2533
aa(lp2534
VGO:0019959
p2535
aVinterleukin-8 binding
p2536
aS'0.06'
p2537
aa(lp2538
VGO:0043120
p2539
aVtumor necrosis factor binding
p2540
aS'0.06'
p2541
aaaa(lp2542
VA7BLZ6_9GAMM
p2543
aVA7BLZ6
p2544
ag6
aI422288
a(lp2545
(lp2546
g91
ag92
aS'0.78'
p2547
aa(lp2548
g339
ag340
aS'0.59'
p2549
aaaa(lp2550
VA7BKV5_9GAMM
p2551
aVA7BKV5
p2552
ag6
aI422288
a(lp2553
(lp2554
VGO:0004803
p2555
aVtransposase activity
p2556
aS'0.8'
p2557
aaaa(lp2558
VA7BKF8_9GAMM
p2559
aVA7BKF8
p2560
ag6
aI422288
a(lp2561
(lp2562
g195
ag196
aS'0.74'
p2563
aa(lp2564
g203
ag204
aS'0.61'
p2565
aaaa(lp2566
VA7BP11_9GAMM
p2567
aVA7BP11
p2568
ag6
aI422288
a(lp2569
(lp2570
VGO:0008694
p2571
aV3-octaprenyl-4-hydroxybenzoate carboxy-lyase activity
p2572
aS'0.78'
p2573
aaaa(lp2574
VA7BN07_9GAMM
p2575
aVA7BN07
p2576
ag6
aI422288
a(lp2577
(lp2578
g2155
ag2156
aS'0.84'
p2579
aa(lp2580
g259
ag260
aS'0.12'
p2581
aa(lp2582
g1921
ag1922
aS'0.12'
p2583
aa(lp2584
VGO:0008668
p2585
aV(2,3-dihydroxybenzoyl)adenylate synthase activity
p2586
aS'0.12'
p2587
aa(lp2588
VGO:0004467
p2589
aVlong-chain fatty acid-CoA ligase activity
p2590
aS'0.12'
p2591
aa(lp2592
VGO:0003996
p2593
aVacyl-CoA ligase activity
p2594
aS'0.12'
p2595
aa(lp2596
VGO:0031955
p2597
aVshort-chain fatty acid-CoA ligase activity
p2598
aS'0.12'
p2599
aa(lp2600
VGO:0043955
p2601
aV3-hydroxypropionyl-CoA synthetase activity
p2602
aS'0.12'
p2603
aa(lp2604
g199
ag200
aS'0.12'
p2605
aa(lp2606
VGO:0070538
p2607
aVoleic acid binding
p2608
aS'0.12'
p2609
aa(lp2610
VGO:0050218
p2611
aVpropionate-CoA ligase activity
p2612
aS'0.12'
p2613
aa(lp2614
VGO:0004321
p2615
aVfatty-acyl-CoA synthase activity
p2616
aS'0.12'
p2617
aa(lp2618
VGO:0003987
p2619
aVacetate-CoA ligase activity
p2620
aS'0.12'
p2621
aaaa(lp2622
VA7BNT0_9GAMM
p2623
aVA7BNT0
p2624
ag6
aI422288
a(lp2625
(lp2626
g73
ag74
aS'0.82'
p2627
aa(lp2628
g91
ag92
aS'0.81'
p2629
aaaa(lp2630
VA7BLZ3_9GAMM
p2631
aVA7BLZ3
p2632
ag6
aI422288
a(lp2633
(lp2634
VGO:0015643
p2635
aVtoxic substance binding
p2636
aS'0.95'
p2637
aa(lp2638
g1053
ag1054
aS'0.4'
p2639
aa(lp2640
g311
ag312
aS'0.39'
p2641
aa(lp2642
VGO:0003779
p2643
aVactin binding
p2644
aS'0.38'
p2645
aa(lp2646
VGO:0060072
p2647
aVlarge conductance calcium-activated potassium channel activity
p2648
aS'0.38'
p2649
aa(lp2650
VGO:0015503
p2651
aVglutathione-regulated potassium exporter activity
p2652
aS'0.38'
p2653
aa(lp2654
VGO:0005249
p2655
aVvoltage-gated potassium channel activity
p2656
aS'0.38'
p2657
aaaa(lp2658
VA7BMP3_9GAMM
p2659
aVA7BMP3
p2660
ag6
aI422288
a(lp2661
(lp2662
VGO:0017168
p2663
aV5-oxoprolinase (ATP-hydrolyzing) activity
p2664
aS'0.9'
p2665
aa(lp2666
VGO:0018710
p2667
aVacetone carboxylase activity
p2668
aS'0.9'
p2669
aaaa(lp2670
VA7BM91_9GAMM
p2671
aVA7BM91
p2672
ag6
aI422288
a(lp2673
(lp2674
g311
ag312
aS'0.91'
p2675
aa(lp2676
g307
ag308
aS'0.9'
p2677
aaaa(lp2678
VA7BKP5_9GAMM
p2679
aVA7BKP5
p2680
ag6
aI422288
a(lp2681
(lp2682
VGO:0016301
p2683
aVkinase activity
p2684
aS'0.78'
p2685
aaaa(lp2686
VA7BMU0_9GAMM
p2687
aVA7BMU0
p2688
ag6
aI422288
a(lp2689
(lp2690
g311
ag312
aS'0.84'
p2691
aaaa(lp2692
VA7BNF9_9GAMM
p2693
aVA7BNF9
p2694
ag6
aI422288
a(lp2695
(lp2696
VGO:0003844
p2697
aV1,4-alpha-glucan branching enzyme activity
p2698
aS'0.93'
p2699
aa(lp2700
g2415
ag2416
aS'0.3'
p2701
aaaa(lp2702
VA7BNA1_9GAMM
p2703
aVA7BNA1
p2704
ag6
aI422288
a(lp2705
(lp2706
g1541
ag1542
aS'0.81'
p2707
aa(lp2708
g1545
ag1546
aS'0.45'
p2709
aa(lp2710
g49
ag50
aS'0.45'
p2711
aa(lp2712
g1551
ag1552
aS'0.45'
p2713
aaaa(lp2714
VA7BLA1_9GAMM
p2715
aVA7BLA1
p2716
ag6
aI422288
a(lp2717
(lp2718
VGO:0008821
p2719
aVcrossover junction endodeoxyribonuclease activity
p2720
aS'0.78'
p2721
aa(lp2722
g91
ag92
aS'0.39'
p2723
aaaa(lp2724
VA7BMY0_9GAMM
p2725
aVA7BMY0
p2726
ag6
aI422288
a(lp2727
(lp2728
g203
ag204
aS'0.79'
p2729
aa(lp2730
g195
ag196
aS'0.21'
p2731
aa(lp2732
g207
ag208
aS'0.21'
p2733
aa(lp2734
g211
ag212
aS'0.21'
p2735
aa(lp2736
g215
ag216
aS'0.21'
p2737
aa(lp2738
g199
ag200
aS'0.21'
p2739
aa(lp2740
g219
ag220
aS'0.21'
p2741
aa(lp2742
g69
ag70
aS'0.21'
p2743
aa(lp2744
g225
ag226
aS'0.21'
p2745
aa(lp2746
g229
ag230
aS'0.21'
p2747
aaaa(lp2748
VA7BNS8_9GAMM
p2749
aVA7BNS8
p2750
ag6
aI422288
a(lp2751
(lp2752
g601
ag602
aS'0.83'
p2753
aa(lp2754
g1691
ag1692
aS'0.79'
p2755
aa(lp2756
VGO:0032947
p2757
aVprotein complex scaffold
p2758
aS'0.65'
p2759
aa(lp2760
VGO:0008656
p2761
aVcysteine-type endopeptidase activator activity involved in apoptotic process
p2762
aS'0.64'
p2763
aa(lp2764
VGO:0042393
p2765
aVhistone binding
p2766
aS'0.6'
p2767
aaaa(lp2768
VA7BNW6_9GAMM
p2769
aVA7BNW6
p2770
ag6
aI422288
a(lp2771
(lp2772
g339
ag340
aS'0.94'
p2773
aa(lp2774
g745
ag746
aS'0.08'
p2775
aa(lp2776
g45
ag46
aS'0.08'
p2777
aa(lp2778
g311
ag312
aS'0.08'
p2779
aa(lp2780
g65
ag66
aS'0.08'
p2781
aa(lp2782
VGO:0001046
p2783
aVcore promoter sequence-specific DNA binding
p2784
aS'0.08'
p2785
aaaa(lp2786
VA7BMX6_9GAMM
p2787
aVA7BMX6
p2788
ag6
aI422288
a(lp2789
(lp2790
g497
ag498
aS'0.76'
p2791
aa(lp2792
VGO:0042927
p2793
aVsiderophore transporter activity
p2794
aS'0.76'
p2795
aaaa(lp2796
VA7BMS8_9GAMM
p2797
aVA7BMS8
p2798
ag6
aI422288
a(lp2799
(lp2800
g311
ag312
aS'0.85'
p2801
aaaa(lp2802
VA7BMD2_9GAMM
p2803
aVA7BMD2
p2804
ag6
aI422288
a(lp2805
(lp2806
g33
ag34
aS'0.82'
p2807
aa(lp2808
g45
ag46
aS'0.11'
p2809
aa(lp2810
g37
ag38
aS'0.1'
p2811
aa(lp2812
g41
ag42
aS'0.1'
p2813
aa(lp2814
g49
ag50
aS'0.1'
p2815
aa(lp2816
g53
ag54
aS'0.1'
p2817
aa(lp2818
g57
ag58
aS'0.1'
p2819
aaaa(lp2820
VA7BML7_9GAMM
p2821
aVA7BML7
p2822
ag6
aI422288
a(lp2823
(lp2824
g697
ag698
aS'0.71'
p2825
aa(lp2826
VGO:0031994
p2827
aVinsulin-like growth factor I binding
p2828
aS'0.31'
p2829
aaaa(lp2830
VA7BP02_9GAMM
p2831
aVA7BP02
p2832
ag6
aI422288
a(lp2833
(lp2834
g259
ag260
aS'0.59'
p2835
aa(lp2836
g1379
ag1380
aS'0.35'
p2837
aa(lp2838
g1383
ag1384
aS'0.35'
p2839
aaaa(lp2840
VA7BNU4_9GAMM
p2841
aVA7BNU4
p2842
ag6
aI422288
a(lp2843
(lp2844
g199
ag200
aS'0.77'
p2845
aa(lp2846
g203
ag204
aS'0.75'
p2847
aa(lp2848
g195
ag196
aS'0.74'
p2849
aa(lp2850
g207
ag208
aS'0.74'
p2851
aa(lp2852
g211
ag212
aS'0.74'
p2853
aa(lp2854
g215
ag216
aS'0.74'
p2855
aa(lp2856
g219
ag220
aS'0.74'
p2857
aa(lp2858
g69
ag70
aS'0.74'
p2859
aa(lp2860
g225
ag226
aS'0.74'
p2861
aa(lp2862
g229
ag230
aS'0.74'
p2863
aaaa(lp2864
VA7BNN2_9GAMM
p2865
aVA7BNN2
p2866
ag6
aI422288
a(lp2867
(lp2868
g91
ag92
aS'0.72'
p2869
aaaa(lp2870
VA7BP58_9GAMM
p2871
aVA7BP58
p2872
ag6
aI422288
a(lp2873
(lp2874
g339
ag340
aS'0.75'
p2875
aa(lp2876
g939
ag940
aS'0.75'
p2877
aaaa(lp2878
VA7BND8_9GAMM
p2879
aVA7BND8
p2880
ag6
aI422288
a(lp2881
(lp2882
VGO:0002161
p2883
aVaminoacyl-tRNA editing activity
p2884
aS'0.75'
p2885
aa(lp2886
VGO:0001141
p2887
aVbacterial-type RNA polymerase core promoter proximal region sequence-specific DNA binding transcription factor activity involved in negative regulation of transcription
p2888
aS'0.17'
p2889
aa(lp2890
g311
ag312
aS'0.17'
p2891
aa(lp2892
VGO:0004813
p2893
aValanine-tRNA ligase activity
p2894
aS'0.17'
p2895
aa(lp2896
g573
ag574
aS'0.17'
p2897
aaaa(lp2898
VA7BLD7_9GAMM
p2899
aVA7BLD7
p2900
ag6
aI422288
a(lp2901
(lp2902
g899
ag900
aS'0.91'
p2903
aa(lp2904
g915
ag916
aS'0.55'
p2905
aaaa(lp2906
VA7BPE6_9GAMM
p2907
aVA7BPE6
p2908
ag6
aI422288
a(lp2909
(lp2910
g195
ag196
aS'0.79'
p2911
aa(lp2912
g199
ag200
aS'0.15'
p2913
aa(lp2914
g203
ag204
aS'0.12'
p2915
aa(lp2916
g207
ag208
aS'0.12'
p2917
aa(lp2918
g211
ag212
aS'0.12'
p2919
aa(lp2920
g215
ag216
aS'0.12'
p2921
aa(lp2922
g219
ag220
aS'0.12'
p2923
aa(lp2924
g69
ag70
aS'0.12'
p2925
aa(lp2926
g225
ag226
aS'0.12'
p2927
aa(lp2928
g229
ag230
aS'0.12'
p2929
aaaa(lp2930
VA7BLN5_9GAMM
p2931
aVA7BLN5
p2932
ag6
aI422288
a(lp2933
(lp2934
VGO:0050355
p2935
aVtriphosphatase activity
p2936
aS'0.81'
p2937
aa(lp2938
VGO:0050333
p2939
aVthiamin-triphosphatase activity
p2940
aS'0.77'
p2941
aaaa(lp2942
VA7BNV6_9GAMM
p2943
aVA7BNV6
p2944
ag6
aI422288
a(lp2945
(lp2946
g69
ag70
aS'0.76'
p2947
aa(lp2948
g91
ag92
aS'0.69'
p2949
aaaa(lp2950
VA7BKI1_9GAMM
p2951
aVA7BKI1
p2952
ag6
aI422288
a(lp2953
(lp2954
g2077
ag2078
aS'0.81'
p2955
aa(lp2956
g91
ag92
aS'0.75'
p2957
aaaa(lp2958
VA7BKM4_9GAMM
p2959
aVA7BKM4
p2960
ag6
aI422288
a(lp2961
(lp2962
VGO:0004075
p2963
aVbiotin carboxylase activity
p2964
aS'0.92'
p2965
aa(lp2966
g1053
ag1054
aS'0.4'
p2967
aaaa(lp2968
VA7BKF4_9GAMM
p2969
aVA7BKF4
p2970
ag6
aI422288
a(lp2971
(lp2972
g91
ag92
aS'0.85'
p2973
aa(lp2974
VGO:0015648
p2975
aVlipid-linked peptidoglycan transporter activity
p2976
aS'0.16'
p2977
aaaa(lp2978
VA7BMB3_9GAMM
p2979
aVA7BMB3
p2980
ag6
aI422288
a(lp2981
(lp2982
g1541
ag1542
aS'0.92'
p2983
aa(lp2984
g1545
ag1546
aS'0.68'
p2985
aa(lp2986
g49
ag50
aS'0.68'
p2987
aa(lp2988
g1551
ag1552
aS'0.68'
p2989
aaaa(lp2990
VA7BLY2_9GAMM
p2991
aVA7BLY2
p2992
ag6
aI422288
a(lp2993
(lp2994
g311
ag312
aS'0.73'
p2995
aaaa(lp2996
VA7BMU2_9GAMM
p2997
aVA7BMU2
p2998
ag6
aI422288
a(lp2999
(lp3000
g91
ag92
aS'0.93'
p3001
aa(lp3002
VGO:0016725
p3003
aVoxidoreductase activity, acting on CH or CH2 groups
p3004
aS'0.29'
p3005
aa(lp3006
g133
ag134
aS'0.27'
p3007
aa(lp3008
VGO:0018468
p3009
aValcohol dehydrogenase (acceptor) activity
p3010
aS'0.27'
p3011
aa(lp3012
g45
ag46
aS'0.27'
p3013
aa(lp3014
g1325
ag1326
aS'0.27'
p3015
aa(lp3016
VGO:0070968
p3017
aVpyrroloquinoline quinone binding
p3018
aS'0.27'
p3019
aaaa(lp3020
VA7BP17_9GAMM
p3021
aVA7BP17
p3022
ag6
aI422288
a(lp3023
(lp3024
VGO:0009007
p3025
aVsite-specific DNA-methyltransferase (adenine-specific) activity
p3026
aS'0.79'
p3027
aaaa(lp3028
VA7BLN9_9GAMM
p3029
aVA7BLN9
p3030
ag6
aI422288
a(lp3031
(lp3032
VGO:0004473
p3033
aVmalate dehydrogenase (oxaloacetate-decarboxylating) (NADP+) activity
p3034
aS'0.91'
p3035
aa(lp3036
VGO:0008959
p3037
aVphosphate acetyltransferase activity
p3038
aS'0.76'
p3039
aaaa(lp3040
VA7BNK3_9GAMM
p3041
aVA7BNK3
p3042
ag6
aI422288
a(lp3043
(lp3044
g827
ag828
aS'0.92'
p3045
aa(lp3046
g831
ag832
aS'0.26'
p3047
aa(lp3048
g73
ag74
aS'0.26'
p3049
aa(lp3050
g91
ag92
aS'0.26'
p3051
aaaa(lp3052
VA7BKL5_9GAMM
p3053
aVA7BKL5
p3054
ag6
aI422288
a(lp3055
(lp3056
VGO:0008079
p3057
aVtranslation termination factor activity
p3058
aS'0.82'
p3059
aa(lp3060
g279
ag280
aS'0.82'
p3061
aaaa(lp3062
VA7BNQ0_9GAMM
p3063
aVA7BNQ0
p3064
ag6
aI422288
a(lp3065
(lp3066
VGO:0045296
p3067
aVcadherin binding
p3068
aS'0.83'
p3069
aa(lp3070
g689
ag690
aS'0.3'
p3071
aa(lp3072
g259
ag260
aS'0.3'
p3073
aa(lp3074
VGO:0005506
p3075
aViron ion binding
p3076
aS'0.29'
p3077
aa(lp3078
VGO:0008601
p3079
aVprotein phosphatase type 2A regulator activity
p3080
aS'0.29'
p3081
aa(lp3082
VGO:0003823
p3083
aVantigen binding
p3084
aS'0.29'
p3085
aa(lp3086
VGO:0019135
p3087
aVdeoxyhypusine monooxygenase activity
p3088
aS'0.29'
p3089
aaaa(lp3090
VA7BM45_9GAMM
p3091
aVA7BM45
p3092
ag6
aI422288
a(lp3093
(lp3094
VGO:0008676
p3095
aV3-deoxy-8-phosphooctulonate synthase activity
p3096
aS'0.93'
p3097
aa(lp3098
VGO:0003849
p3099
aV3-deoxy-7-phosphoheptulonate synthase activity
p3100
aS'0.78'
p3101
aaaa(lp3102
VA7BNL3_9GAMM
p3103
aVA7BNL3
p3104
ag6
aI422288
a(lp3105
(lp3106
g437
ag438
aS'0.24'
p3107
aa(lp3108
g1361
ag1362
aS'0.2'
p3109
aa(lp3110
g1679
ag1680
aS'0.16'
p3111
aaaa(lp3112
VA7BMF8_9GAMM
p3113
aVA7BMF8
p3114
ag6
aI422288
a(lp3115
(lp3116
g311
ag312
aS'0.84'
p3117
aa(lp3118
g335
ag336
aS'0.6'
p3119
aaaa(lp3120
VA7BM23_9GAMM
p3121
aVA7BM23
p3122
ag6
aI422288
a(lp3123
(lp3124
g711
ag712
aS'0.88'
p3125
aa(lp3126
g91
ag92
aS'0.85'
p3127
aaaa(lp3128
VA7BL85_9GAMM
p3129
aVA7BL85
p3130
ag6
aI422288
a(lp3131
(lp3132
g311
ag312
aS'0.87'
p3133
aaaa(lp3134
VA7BMC2_9GAMM
p3135
aVA7BMC2
p3136
ag6
aI422288
a(lp3137
(lp3138
VGO:0004653
p3139
aVpolypeptide N-acetylgalactosaminyltransferase activity
p3140
aS'0.93'
p3141
aa(lp3142
g45
ag46
aS'0.21'
p3143
aa(lp3144
g739
ag740
aS'0.21'
p3145
aaaa(lp3146
VA7BKX4_9GAMM
p3147
aVA7BKX4
p3148
ag6
aI422288
a(lp3149
(lp3150
VGO:0051087
p3151
aVchaperone binding
p3152
aS'0.82'
p3153
aa(lp3154
VGO:0070728
p3155
aVleucine binding
p3156
aS'0.8'
p3157
aaaa(lp3158
VA7BKJ2_9GAMM
p3159
aVA7BKJ2
p3160
ag6
aI422288
a(lp3161
(lp3162
g311
ag312
aS'0.93'
p3163
aa(lp3164
g335
ag336
aS'0.34'
p3165
aaaa(lp3166
VA7BN95_9GAMM
p3167
aVA7BN95
p3168
ag6
aI422288
a(lp3169
(lp3170
VGO:0016788
p3171
aVhydrolase activity, acting on ester bonds
p3172
aS'0.73'
p3173
aaaa(lp3174
VA7BLS4_9GAMM
p3175
aVA7BLS4
p3176
ag6
aI422288
a(lp3177
(lp3178
VGO:0051539
p3179
aV4 iron, 4 sulfur cluster binding
p3180
aS'0.91'
p3181
aa(lp3182
VGO:0016869
p3183
aVintramolecular transferase activity, transferring amino groups
p3184
aS'0.26'
p3185
aa(lp3186
VGO:0043621
p3187
aVprotein self-association
p3188
aS'0.21'
p3189
aa(lp3190
VGO:0051989
p3191
aVcoproporphyrinogen dehydrogenase activity
p3192
aS'0.2'
p3193
aaaa(lp3194
VA7BKJ7_9GAMM
p3195
aVA7BKJ7
p3196
ag6
aI422288
a(lp3197
(lp3198
g311
ag312
aS'0.95'
p3199
aa(lp3200
g307
ag308
aS'0.22'
p3201
aaaa(lp3202
VA7BLL7_9GAMM
p3203
aVA7BLL7
p3204
ag6
aI422288
a(lp3205
(lp3206
g65
ag66
aS'0.94'
p3207
aa(lp3208
VGO:0043565
p3209
aVsequence-specific DNA binding
p3210
aS'0.88'
p3211
aaaa(lp3212
VA7BKR1_9GAMM
p3213
aVA7BKR1
p3214
ag6
aI422288
a(lp3215
(lp3216
VGO:0035527
p3217
aV3-hydroxypropionate dehydrogenase (NADP+) activity
p3218
aS'0.79'
p3219
aa(lp3220
VGO:0047560
p3221
aV3-dehydrosphinganine reductase activity
p3222
aS'0.15'
p3223
aaaa(lp3224
VA7BNN8_9GAMM
p3225
aVA7BNN8
p3226
ag6
aI422288
a(lp3227
(lp3228
VGO:0004143
p3229
aVdiacylglycerol kinase activity
p3230
aS'0.78'
p3231
aaaa(lp3232
VA7BKZ8_9GAMM
p3233
aVA7BKZ8
p3234
ag6
aI422288
a(lp3235
(lp3236
VGO:0009378
p3237
aVfour-way junction helicase activity
p3238
aS'0.78'
p3239
aa(lp3240
g91
ag92
aS'0.33'
p3241
aaaa(lp3242
VA7BP15_9GAMM
p3243
aVA7BP15
p3244
ag6
aI422288
a(lp3245
(lp3246
VGO:0070573
p3247
aVmetallodipeptidase activity
p3248
aS'0.83'
p3249
aa(lp3250
VGO:0045148
p3251
aVtripeptide aminopeptidase activity
p3252
aS'0.46'
p3253
aa(lp3254
g573
ag574
aS'0.35'
p3255
aaaa(lp3256
VA7BKV9_9GAMM
p3257
aVA7BKV9
p3258
ag6
aI422288
a(lp3259
(lp3260
g2133
ag2134
aS'0.92'
p3261
aa(lp3262
g91
ag92
aS'0.71'
p3263
aaaa(lp3264
VA7BN72_9GAMM
p3265
aVA7BN72
p3266
ag6
aI422288
a(lp3267
(lp3268
g1501
ag1502
aS'0.78'
p3269
aaaa(lp3270
VA7BLT5_9GAMM
p3271
aVA7BLT5
p3272
ag6
aI422288
a(lp3273
(lp3274
g437
ag438
aS'0.86'
p3275
aa(lp3276
VGO:0004722
p3277
aVprotein serine/threonine phosphatase activity
p3278
aS'0.63'
p3279
aaaa(lp3280
VA7BLV8_9GAMM
p3281
aVA7BLV8
p3282
ag6
aI422288
a(lp3283
(lp3284
g1279
ag1280
aS'0.4'
p3285
aa(lp3286
g1283
ag1284
aS'0.05'
p3287
aa(lp3288
g1287
ag1288
aS'0.05'
p3289
aa(lp3290
g1291
ag1292
aS'0.05'
p3291
aa(lp3292
g739
ag740
aS'0.05'
p3293
aaaa(lp3294
VA7BMU5_9GAMM
p3295
aVA7BMU5
p3296
ag6
aI422288
a(lp3297
(lp3298
g1885
ag1886
aS'0.83'
p3299
aa(lp3300
g1889
ag1890
aS'0.81'
p3301
aaaa(lp3302
VA7BLN8_9GAMM
p3303
aVA7BLN8
p3304
ag6
aI422288
a(lp3305
(lp3306
g3033
ag3034
aS'0.92'
p3307
aa(lp3308
g3037
ag3038
aS'0.83'
p3309
aaaa(lp3310
VA7BN75_9GAMM
p3311
aVA7BN75
p3312
ag6
aI422288
a(lp3313
(lp3314
g2155
ag2156
aS'0.79'
p3315
aa(lp3316
g203
ag204
aS'0.74'
p3317
aaaa(lp3318
VA7BNX9_9GAMM
p3319
aVA7BNX9
p3320
ag6
aI422288
a(lp3321
(lp3322
g339
ag340
aS'0.76'
p3323
aa(lp3324
g939
ag940
aS'0.76'
p3325
aaaa(lp3326
VA7BKF2_9GAMM
p3327
aVA7BKF2
p3328
ag6
aI422288
a(lp3329
(lp3330
g91
ag92
aS'0.9'
p3331
aa(lp3332
g237
ag238
aS'0.82'
p3333
aa(lp3334
g2351
ag2352
aS'0.68'
p3335
aaaa(lp3336
VA7BLK9_9GAMM
p3337
aVA7BLK9
p3338
ag6
aI422288
a(lp3339
(lp3340
g2155
ag2156
aS'0.79'
p3341
aa(lp3342
g219
ag220
aS'0.74'
p3343
aaaa(lp3344
VA7BP14_9GAMM
p3345
aVA7BP14
p3346
ag6
aI422288
a(lp3347
(lp3348
VGO:0008999
p3349
aVribosomal-protein-alanine N-acetyltransferase activity
p3350
aS'0.93'
p3351
aa(lp3352
VGO:0030552
p3353
aVcAMP binding
p3354
aS'0.69'
p3355
aaaa(lp3356
VA7BKW7_9GAMM
p3357
aVA7BKW7
p3358
ag6
aI422288
a(lp3359
(lp3360
g1865
ag1866
aS'0.84'
p3361
aa(lp3362
VGO:0003713
p3363
aVtranscription coactivator activity
p3364
aS'0.32'
p3365
aaaa(lp3366
VA7BN05_9GAMM
p3367
aVA7BN05
p3368
ag6
aI422288
a(lp3369
(lp3370
VGO:0047110
p3371
aVphenylglyoxylate dehydrogenase (acylating) activity
p3372
aS'0.92'
p3373
aa(lp3374
g151
ag152
aS'0.67'
p3375
aaaa(lp3376
VA7BMV1_9GAMM
p3377
aVA7BMV1
p3378
ag6
aI422288
a(lp3379
(lp3380
g1279
ag1280
aS'0.4'
p3381
aa(lp3382
g1283
ag1284
aS'0.06'
p3383
aa(lp3384
g1287
ag1288
aS'0.06'
p3385
aa(lp3386
g1291
ag1292
aS'0.06'
p3387
aa(lp3388
g739
ag740
aS'0.06'
p3389
aaaa(lp3390
VA7BN88_9GAMM
p3391
aVA7BN88
p3392
ag6
aI422288
a(lp3393
(lp3394
VGO:0016866
p3395
aVintramolecular transferase activity
p3396
aS'0.87'
p3397
aa(lp3398
VGO:0004409
p3399
aVhomoaconitate hydratase activity
p3400
aS'0.86'
p3401
aaaa(lp3402
VA7BP32_9GAMM
p3403
aVA7BP32
p3404
ag6
aI422288
a(lp3405
(lp3406
g65
ag66
aS'0.83'
p3407
aa(lp3408
g69
ag70
aS'0.5'
p3409
aa(lp3410
g73
ag74
aS'0.5'
p3411
aaaa(lp3412
VA7BLK1_9GAMM
p3413
aVA7BLK1
p3414
ag6
aI422288
a(lp3415
(lp3416
g91
ag92
aS'0.91'
p3417
aa(lp3418
g133
ag134
aS'0.81'
p3419
aaaa(lp3420
VA7BLG8_9GAMM
p3421
aVA7BLG8
p3422
ag6
aI422288
a(lp3423
(lp3424
g525
ag526
aS'0.8'
p3425
aa(lp3426
g745
ag746
aS'0.03'
p3427
aaaa(lp3428
VA7BKZ7_9GAMM
p3429
aVA7BKZ7
p3430
ag6
aI422288
a(lp3431
(lp3432
VGO:0016290
p3433
aVpalmitoyl-CoA hydrolase activity
p3434
aS'0.65'
p3435
aa(lp3436
g311
ag312
aS'0.65'
p3437
aaaa(lp3438
VA7BKH6_9GAMM
p3439
aVA7BKH6
p3440
ag6
aI422288
a(lp3441
(lp3442
g1445
ag1446
aS'0.37'
p3443
aa(lp3444
g2827
ag2828
aS'0.13'
p3445
aa(lp3446
g311
ag312
aS'0.11'
p3447
aaaa(lp3448
VA7BN31_9GAMM
p3449
aVA7BN31
p3450
ag6
aI422288
a(lp3451
(lp3452
g91
ag92
aS'0.7'
p3453
aaaa(lp3454
VA7BNK7_9GAMM
p3455
aVA7BNK7
p3456
ag6
aI422288
a(lp3457
(lp3458
g2457
ag2458
aS'0.89'
p3459
aa(lp3460
g91
ag92
aS'0.88'
p3461
aaaa(lp3462
VA7BLY8_9GAMM
p3463
aVA7BLY8
p3464
ag6
aI422288
a(lp3465
(lp3466
g325
ag326
aS'0.81'
p3467
aa(lp3468
g319
ag320
aS'0.4'
p3469
aa(lp3470
g2313
ag2314
aS'0.38'
p3471
aaaa(lp3472
VA7BNH2_9GAMM
p3473
aVA7BNH2
p3474
ag6
aI422288
a(lp3475
(lp3476
g1545
ag1546
aS'0.95'
p3477
aa(lp3478
VGO:0070181
p3479
aVSSU rRNA binding
p3480
aS'0.13'
p3481
aa(lp3482
VGO:0051018
p3483
aVprotein kinase A binding
p3484
aS'0.1'
p3485
aa(lp3486
VGO:0051059
p3487
aVNF-kappaB binding
p3488
aS'0.1'
p3489
aaaa(lp3490
VA7BLJ5_9GAMM
p3491
aVA7BLJ5
p3492
ag6
aI422288
a(lp3493
(lp3494
g91
ag92
aS'0.7'
p3495
aa(lp3496
g339
ag340
aS'0.66'
p3497
aaaa(lp3498
VA7BLP9_9GAMM
p3499
aVA7BLP9
p3500
ag6
aI422288
a(lp3501
(lp3502
g91
ag92
aS'0.82'
p3503
aa(lp3504
VGO:0044020
p3505
aVhistone methyltransferase activity (H4-R3 specific)
p3506
aS'0.59'
p3507
aa(lp3508
VGO:0036009
p3509
aVprotein-glutamine N-methyltransferase activity
p3510
aS'0.52'
p3511
aa(lp3512
VGO:0008989
p3513
aVrRNA (guanine-N1-)-methyltransferase activity
p3514
aS'0.51'
p3515
aa(lp3516
g573
ag574
aS'0.51'
p3517
aa(lp3518
g3363
ag3364
aS'0.51'
p3519
aaaa(lp3520
VA7BN53_9GAMM
p3521
aVA7BN53
p3522
ag6
aI422288
a(lp3523
(lp3524
g339
ag340
aS'0.91'
p3525
aa(lp3526
g2783
ag2784
aS'0.82'
p3527
aaaa(lp3528
VA7BL48_9GAMM
p3529
aVA7BL48
p3530
ag6
aI422288
a(lp3531
(lp3532
g3277
ag3278
aS'0.93'
p3533
aa(lp3534
g739
ag740
aS'0.27'
p3535
aa(lp3536
g1143
ag1144
aS'0.27'
p3537
aa(lp3538
g745
ag746
aS'0.27'
p3539
aa(lp3540
g91
ag92
aS'0.27'
p3541
aaaa(lp3542
VA7BKJ8_9GAMM
p3543
aVA7BKJ8
p3544
ag6
aI422288
a(lp3545
(lp3546
g199
ag200
aS'0.78'
p3547
aa(lp3548
g203
ag204
aS'0.45'
p3549
aa(lp3550
g195
ag196
aS'0.42'
p3551
aa(lp3552
g207
ag208
aS'0.42'
p3553
aa(lp3554
g211
ag212
aS'0.42'
p3555
aa(lp3556
g215
ag216
aS'0.42'
p3557
aa(lp3558
g219
ag220
aS'0.42'
p3559
aa(lp3560
g69
ag70
aS'0.42'
p3561
aa(lp3562
g225
ag226
aS'0.42'
p3563
aa(lp3564
g229
ag230
aS'0.42'
p3565
aaaa(lp3566
VA7BN18_9GAMM
p3567
aVA7BN18
p3568
ag6
aI422288
a(lp3569
(lp3570
VGO:0000986
p3571
aVbacterial-type RNA polymerase core promoter proximal region sequence-specific DNA binding
p3572
aS'0.94'
p3573
aa(lp3574
VGO:0016717
p3575
aVoxidoreductase activity, acting on paired donors, with oxidation of a pair of donors resulting in the reduction of molecular oxygen to two molecules of water
p3576
aS'0.18'
p3577
aa(lp3578
g745
ag746
aS'0.18'
p3579
aa(lp3580
VGO:0000309
p3581
aVnicotinamide-nucleotide adenylyltransferase activity
p3582
aS'0.18'
p3583
aa(lp3584
VGO:0016702
p3585
aVoxidoreductase activity, acting on single donors with incorporation of molecular oxygen, incorporation of two atoms of oxygen
p3586
aS'0.18'
p3587
aa(lp3588
g263
ag264
aS'0.18'
p3589
aaaa(lp3590
VA7BKG7_9GAMM
p3591
aVA7BKG7
p3592
ag6
aI422288
a(lp3593
(lp3594
g307
ag308
aS'0.9'
p3595
aa(lp3596
g311
ag312
aS'0.85'
p3597
aaaa(lp3598
VA7BL86_9GAMM
p3599
aVA7BL86
p3600
ag6
aI422288
a(lp3601
(lp3602
g91
ag92
aS'0.92'
p3603
aa(lp3604
g143
ag144
aS'0.14'
p3605
aa(lp3606
g147
ag148
aS'0.14'
p3607
aa(lp3608
g151
ag152
aS'0.14'
p3609
aa(lp3610
g155
ag156
aS'0.14'
p3611
aaaa(lp3612
VA7BMV4_9GAMM
p3613
aVA7BMV4
p3614
ag6
aI422288
a(lp3615
(lp3616
g899
ag900
aS'0.93'
p3617
aa(lp3618
VGO:0008235
p3619
aVmetalloexopeptidase activity
p3620
aS'0.73'
p3621
aaaa(lp3622
VA7BKP0_9GAMM
p3623
aVA7BKP0
p3624
ag6
aI422288
a(lp3625
(lp3626
g335
ag336
aS'0.79'
p3627
aaaa(lp3628
VA7BLC5_9GAMM
p3629
aVA7BLC5
p3630
ag6
aI422288
a(lp3631
(lp3632
g1985
ag1986
aS'0.8'
p3633
aa(lp3634
g601
ag602
aS'0.57'
p3635
aaaa(lp3636
VA7BP27_9GAMM
p3637
aVA7BP27
p3638
ag6
aI422288
a(lp3639
(lp3640
g803
ag804
aS'0.46'
p3641
aa(lp3642
VGO:0016262
p3643
aVprotein N-acetylglucosaminyltransferase activity
p3644
aS'0.45'
p3645
aaaa(lp3646
VA7BNY2_9GAMM
p3647
aVA7BNY2
p3648
ag6
aI422288
a(lp3649
(lp3650
g33
ag34
aS'0.82'
p3651
aa(lp3652
g37
ag38
aS'0.12'
p3653
aa(lp3654
g41
ag42
aS'0.12'
p3655
aa(lp3656
g45
ag46
aS'0.12'
p3657
aa(lp3658
g49
ag50
aS'0.12'
p3659
aa(lp3660
g53
ag54
aS'0.12'
p3661
aa(lp3662
g57
ag58
aS'0.12'
p3663
aaaa(lp3664
VA7BL40_9GAMM
p3665
aVA7BL40
p3666
ag6
aI422288
a(lp3667
(lp3668
g203
ag204
aS'0.88'
p3669
aa(lp3670
g195
ag196
aS'0.33'
p3671
aaaa(lp3672
VA7BL29_9GAMM
p3673
aVA7BL29
p3674
ag6
aI422288
a(lp3675
(lp3676
VGO:0004618
p3677
aVphosphoglycerate kinase activity
p3678
aS'0.78'
p3679
aa(lp3680
g69
ag70
aS'0.19'
p3681
aa(lp3682
g91
ag92
aS'0.19'
p3683
aaaa(lp3684
VA7BMN4_9GAMM
p3685
aVA7BMN4
p3686
ag6
aI422288
a(lp3687
(lp3688
VGO:0008097
p3689
aV5S rRNA binding
p3690
aS'0.92'
p3691
aa(lp3692
g91
ag92
aS'0.62'
p3693
aaaa(lp3694
VA7BP84_9GAMM
p3695
aVA7BP84
p3696
ag6
aI422288
a(lp3697
(lp3698
g259
ag260
aS'0.89'
p3699
aa(lp3700
VGO:0004766
p3701
aVspermidine synthase activity
p3702
aS'0.84'
p3703
aaaa(lp3704
VA7BP81_9GAMM
p3705
aVA7BP81
p3706
ag6
aI422288
a(lp3707
(lp3708
VGO:0004551
p3709
aVnucleotide diphosphatase activity
p3710
aS'0.9'
p3711
aa(lp3712
g1825
ag1826
aS'0.21'
p3713
aa(lp3714
VGO:0047429
p3715
aVnucleoside-triphosphate diphosphatase activity
p3716
aS'0.17'
p3717
aa(lp3718
g247
ag248
aS'0.17'
p3719
aa(lp3720
VGO:0005158
p3721
aVinsulin receptor binding
p3722
aS'0.17'
p3723
aa(lp3724
VGO:0004622
p3725
aVlysophospholipase activity
p3726
aS'0.17'
p3727
aa(lp3728
g259
ag260
aS'0.17'
p3729
aa(lp3730
g69
ag70
aS'0.17'
p3731
aa(lp3732
VGO:0004528
p3733
aVphosphodiesterase I activity
p3734
aS'0.17'
p3735
aaaa(lp3736
VA7BKG9_9GAMM
p3737
aVA7BKG9
p3738
ag6
aI422288
a(lp3739
(lp3740
g203
ag204
aS'0.85'
p3741
aa(lp3742
g2155
ag2156
aS'0.85'
p3743
aa(lp3744
g199
ag200
aS'0.75'
p3745
aa(lp3746
g207
ag208
aS'0.64'
p3747
aaaa(lp3748
VA7BMN2_9GAMM
p3749
aVA7BMN2
p3750
ag6
aI422288
a(lp3751
(lp3752
g91
ag92
aS'0.91'
p3753
aa(lp3754
g977
ag978
aS'0.32'
p3755
aaaa(lp3756
VA7BMP7_9GAMM
p3757
aVA7BMP7
p3758
ag6
aI422288
a(lp3759
(lp3760
g1959
ag1960
aS'0.93'
p3761
aa(lp3762
g1053
ag1054
aS'0.32'
p3763
aa(lp3764
VGO:0008997
p3765
aVribonuclease R activity
p3766
aS'0.25'
p3767
aaaa(lp3768
VA7BNQ5_9GAMM
p3769
aVA7BNQ5
p3770
ag6
aI422288
a(lp3771
(lp3772
g2155
ag2156
aS'0.83'
p3773
aa(lp3774
g259
ag260
aS'0.12'
p3775
aa(lp3776
g1921
ag1922
aS'0.12'
p3777
aa(lp3778
g2585
ag2586
aS'0.12'
p3779
aa(lp3780
g2589
ag2590
aS'0.12'
p3781
aa(lp3782
g2593
ag2594
aS'0.12'
p3783
aa(lp3784
g2597
ag2598
aS'0.12'
p3785
aa(lp3786
g2601
ag2602
aS'0.12'
p3787
aa(lp3788
g199
ag200
aS'0.12'
p3789
aa(lp3790
g2607
ag2608
aS'0.12'
p3791
aa(lp3792
g2611
ag2612
aS'0.12'
p3793
aa(lp3794
g2615
ag2616
aS'0.12'
p3795
aa(lp3796
g2619
ag2620
aS'0.12'
p3797
aaaa(lp3798
VA7BNV0_9GAMM
p3799
aVA7BNV0
p3800
ag6
aI422288
a(lp3801
(lp3802
g91
ag92
aS'0.7'
p3803
aaaa(lp3804
VA7BNC1_9GAMM
p3805
aVA7BNC1
p3806
ag6
aI422288
a(lp3807
(lp3808
VGO:0004594
p3809
aVpantothenate kinase activity
p3810
aS'0.78'
p3811
aaaa(lp3812
VA7BMB4_9GAMM
p3813
aVA7BMB4
p3814
ag6
aI422288
a(lp3815
(lp3816
VGO:0003690
p3817
aVdouble-stranded DNA binding
p3818
aS'0.7'
p3819
aa(lp3820
VGO:0003697
p3821
aVsingle-stranded DNA binding
p3822
aS'0.7'
p3823
aaaa(lp3824
VA7BM56_9GAMM
p3825
aVA7BM56
p3826
ag6
aI422288
a(lp3827
(lp3828
VGO:0004709
p3829
aVMAP kinase kinase kinase activity
p3830
aS'0.59'
p3831
aa(lp3832
g745
ag746
aS'0.31'
p3833
aa(lp3834
VGO:0030274
p3835
aVLIM domain binding
p3836
aS'0.26'
p3837
aaaa(lp3838
VA7BNG6_9GAMM
p3839
aVA7BNG6
p3840
ag6
aI422288
a(lp3841
(lp3842
VGO:0003923
p3843
aVGPI-anchor transamidase activity
p3844
aS'0.84'
p3845
aa(lp3846
g311
ag312
aS'0.67'
p3847
aa(lp3848
VGO:0004197
p3849
aVcysteine-type endopeptidase activity
p3850
aS'0.51'
p3851
aaaa(lp3852
VA7BKN0_9GAMM
p3853
aVA7BKN0
p3854
ag6
aI422288
a(lp3855
(lp3856
g1063
ag1064
aS'0.44'
p3857
aa(lp3858
VGO:0016166
p3859
aVphytoene dehydrogenase activity
p3860
aS'0.11'
p3861
aa(lp3862
g259
ag260
aS'0.09'
p3863
aaaa(lp3864
VA7BNB2_9GAMM
p3865
aVA7BNB2
p3866
ag6
aI422288
a(lp3867
(lp3868
g307
ag308
aS'0.83'
p3869
aa(lp3870
g195
ag196
aS'0.53'
p3871
aa(lp3872
g225
ag226
aS'0.49'
p3873
aa(lp3874
g207
ag208
aS'0.48'
p3875
aa(lp3876
g215
ag216
aS'0.48'
p3877
aa(lp3878
g203
ag204
aS'0.46'
p3879
aa(lp3880
g311
ag312
aS'0.45'
p3881
aaaa(lp3882
VA7BP82_9GAMM
p3883
aVA7BP82
p3884
ag6
aI422288
a(lp3885
(lp3886
g69
ag70
aS'0.9'
p3887
aa(lp3888
g311
ag312
aS'0.58'
p3889
aaaa(lp3890
VA7BKU8_9GAMM
p3891
aVA7BKU8
p3892
ag6
aI422288
a(lp3893
(lp3894
g1885
ag1886
aS'0.81'
p3895
aa(lp3896
g1889
ag1890
aS'0.8'
p3897
aaaa(lp3898
VA7BNZ3_9GAMM
p3899
aVA7BNZ3
p3900
ag6
aI422288
a(lp3901
(lp3902
g645
ag646
aS'0.81'
p3903
aa(lp3904
g649
ag650
aS'0.27'
p3905
aa(lp3906
g653
ag654
aS'0.27'
p3907
aa(lp3908
g73
ag74
aS'0.27'
p3909
aa(lp3910
g659
ag660
aS'0.27'
p3911
aaaa(lp3912
VA7BLD0_9GAMM
p3913
aVA7BLD0
p3914
ag6
aI422288
a(lp3915
(lp3916
VGO:0004107
p3917
aVchorismate synthase activity
p3918
aS'0.67'
p3919
aa(lp3920
VGO:0016651
p3921
aVoxidoreductase activity, acting on NAD(P)H
p3922
aS'0.65'
p3923
aa(lp3924
VGO:0010181
p3925
aVFMN binding
p3926
aS'0.65'
p3927
aa(lp3928
g151
ag152
aS'0.65'
p3929
aaaa(lp3930
VA7BLF2_9GAMM
p3931
aVA7BLF2
p3932
ag6
aI422288
a(lp3933
(lp3934
g3843
ag3844
aS'0.88'
p3935
aa(lp3936
g3849
ag3850
aS'0.55'
p3937
aaaa(lp3938
VA7BLT0_9GAMM
p3939
aVA7BLT0
p3940
ag6
aI422288
a(lp3941
(lp3942
g311
ag312
aS'0.84'
p3943
aaaa(lp3944
VA7BN32_9GAMM
p3945
aVA7BN32
p3946
ag6
aI422288
a(lp3947
(lp3948
VGO:0003918
p3949
aVDNA topoisomerase type II (ATP-hydrolyzing) activity
p3950
aS'0.83'
p3951
aa(lp3952
g69
ag70
aS'0.07'
p3953
aaaa(lp3954
VA7BN65_9GAMM
p3955
aVA7BN65
p3956
ag6
aI422288
a(lp3957
(lp3958
VGO:0003873
p3959
aV6-phosphofructo-2-kinase activity
p3960
aS'0.5'
p3961
aa(lp3962
VGO:0046538
p3963
aV2,3-bisphosphoglycerate-dependent phosphoglycerate mutase activity
p3964
aS'0.37'
p3965
aa(lp3966
VGO:0050084
p3967
aVmannitol-1-phosphatase activity
p3968
aS'0.28'
p3969
aaaa(lp3970
VA7BM46_9GAMM
p3971
aVA7BM46
p3972
ag6
aI422288
a(lp3973
(lp3974
VGO:0008422
p3975
aVbeta-glucosidase activity
p3976
aS'0.93'
p3977
aa(lp3978
VGO:0009044
p3979
aVxylan 1,4-beta-xylosidase activity
p3980
aS'0.22'
p3981
aa(lp3982
g415
ag416
aS'0.22'
p3983
aa(lp3984
VGO:0042285
p3985
aVxylosyltransferase activity
p3986
aS'0.22'
p3987
aa(lp3988
VGO:0046556
p3989
aValpha-N-arabinofuranosidase activity
p3990
aS'0.22'
p3991
aa(lp3992
VGO:0004565
p3993
aVbeta-galactosidase activity
p3994
aS'0.22'
p3995
aaaa(lp3996
VA7BMP2_9GAMM
p3997
aVA7BMP2
p3998
ag6
aI422288
a(lp3999
(lp4000
VGO:0070733
p4001
aVprotein adenylyltransferase activity
p4002
aS'0.73'
p4003
aaaa(lp4004
VA7BKT7_9GAMM
p4005
aVA7BKT7
p4006
ag6
aI422288
a(lp4007
(lp4008
VGO:0004475
p4009
aVmannose-1-phosphate guanylyltransferase activity
p4010
aS'0.78'
p4011
aaaa(lp4012
VA7BKK4_9GAMM
p4013
aVA7BKK4
p4014
ag6
aI422288
a(lp4015
(lp4016
g1229
ag1230
aS'0.9'
p4017
aa(lp4018
g739
ag740
aS'0.45'
p4019
aaaa(lp4020
VA7BNW0_9GAMM
p4021
aVA7BNW0
p4022
ag6
aI422288
a(lp4023
(lp4024
VGO:0043125
p4025
aVErbB-3 class receptor binding
p4026
aS'0.62'
p4027
aa(lp4028
VGO:0005154
p4029
aVepidermal growth factor receptor binding
p4030
aS'0.62'
p4031
aa(lp4032
VGO:0005006
p4033
aVepidermal growth factor-activated receptor activity
p4034
aS'0.58'
p4035
aaaa(lp4036
VA7BKX7_9GAMM
p4037
aVA7BKX7
p4038
ag6
aI422288
a(lp4039
(lp4040
g2391
ag2392
aS'0.82'
p4041
aa(lp4042
g2385
ag2386
aS'0.81'
p4043
aa(lp4044
g807
ag808
aS'0.66'
p4045
aaaa(lp4046
VA7BMI9_9GAMM
p4047
aVA7BMI9
p4048
ag6
aI422288
a(lp4049
(lp4050
g2105
ag2106
aS'0.82'
p4051
aa(lp4052
g2109
ag2110
aS'0.72'
p4053
aaaa(lp4054
VA7BN39_9GAMM
p4055
aVA7BN39
p4056
ag6
aI422288
a(lp4057
(lp4058
g311
ag312
aS'0.85'
p4059
aa(lp4060
g335
ag336
aS'0.3'
p4061
aaaa(lp4062
VA7BMW7_9GAMM
p4063
aVA7BMW7
p4064
ag6
aI422288
a(lp4065
(lp4066
VGO:0004148
p4067
aVdihydrolipoyl dehydrogenase activity
p4068
aS'0.41'
p4069
aa(lp4070
g133
ag134
aS'0.32'
p4071
aa(lp4072
VGO:0070402
p4073
aVNADPH binding
p4074
aS'0.32'
p4075
aaaa(lp4076
VA7BM81_9GAMM
p4077
aVA7BM81
p4078
ag6
aI422288
a(lp4079
(lp4080
g4001
ag4002
aS'0.83'
p4081
aa(lp4082
VGO:0048365
p4083
aVRac GTPase binding
p4084
aS'0.19'
p4085
aa(lp4086
VGO:0044605
p4087
aVphosphocholine transferase activity
p4088
aS'0.19'
p4089
aaaa(lp4090
VA7BM84_9GAMM
p4091
aVA7BM84
p4092
ag6
aI422288
a(lp4093
(lp4094
VGO:0097351
p4095
aVtoxin-antitoxin pair type II binding
p4096
aS'0.83'
p4097
aa(lp4098
g2635
ag2636
aS'0.19'
p4099
aa(lp4100
g3209
ag3210
aS'0.19'
p4101
aaaa(lp4102
VA7BPD6_9GAMM
p4103
aVA7BPD6
p4104
ag6
aI422288
a(lp4105
(lp4106
g3619
ag3620
aS'0.91'
p4107
aa(lp4108
g899
ag900
aS'0.83'
p4109
aaaa(lp4110
VA7BMZ9_9GAMM
p4111
aVA7BMZ9
p4112
ag6
aI422288
a(lp4113
(lp4114
g1445
ag1446
aS'0.37'
p4115
aa(lp4116
g2827
ag2828
aS'0.13'
p4117
aa(lp4118
g311
ag312
aS'0.11'
p4119
aaaa(lp4120
VA7BKE8_9GAMM
p4121
aVA7BKE8
p4122
ag6
aI422288
a(lp4123
(lp4124
VGO:0004352
p4125
aVglutamate dehydrogenase (NAD+) activity
p4126
aS'0.9'
p4127
aa(lp4128
g91
ag92
aS'0.9'
p4129
aaaa(lp4130
VA7BL27_9GAMM
p4131
aVA7BL27
p4132
ag6
aI422288
a(lp4133
(lp4134
VGO:0004743
p4135
aVpyruvate kinase activity
p4136
aS'0.91'
p4137
aa(lp4138
g91
ag92
aS'0.42'
p4139
aaaa(lp4140
VA7BKS6_9GAMM
p4141
aVA7BKS6
p4142
ag6
aI422288
a(lp4143
(lp4144
VGO:0008774
p4145
aVacetaldehyde dehydrogenase (acetylating) activity
p4146
aS'0.9'
p4147
aa(lp4148
VGO:0004073
p4149
aVaspartate-semialdehyde dehydrogenase activity
p4150
aS'0.9'
p4151
aaaa(lp4152
VA7BNM5_9GAMM
p4153
aVA7BNM5
p4154
ag6
aI422288
a(lp4155
(lp4156
g259
ag260
aS'0.93'
p4157
aaaa(lp4158
VA7BKU1_9GAMM
p4159
aVA7BKU1
p4160
ag6
aI422288
a(lp4161
(lp4162
g899
ag900
aS'0.83'
p4163
aa(lp4164
g91
ag92
aS'0.75'
p4165
aaaa(lp4166
VA7BKU0_9GAMM
p4167
aVA7BKU0
p4168
ag6
aI422288
a(lp4169
(lp4170
g155
ag156
aS'0.47'
p4171
aa(lp4172
g4067
ag4068
aS'0.47'
p4173
aa(lp4174
VGO:0003955
p4175
aVNAD(P)H dehydrogenase (quinone) activity
p4176
aS'0.43'
p4177
aaaa(lp4178
VA7BLJ7_9GAMM
p4179
aVA7BLJ7
p4180
ag6
aI422288
a(lp4181
(lp4182
g2023
ag2024
aS'0.76'
p4183
aa(lp4184
g2019
ag2020
aS'0.15'
p4185
aa(lp4186
g1819
ag1820
aS'0.15'
p4187
aaaa(lp4188
VA7BKH5_9GAMM
p4189
aVA7BKH5
p4190
ag6
aI422288
a(lp4191
(lp4192
g311
ag312
aS'0.88'
p4193
aa(lp4194
g1445
ag1446
aS'0.55'
p4195
aaaa(lp4196
VA7BNY6_9GAMM
p4197
aVA7BNY6
p4198
ag6
aI422288
a(lp4199
(lp4200
g91
ag92
aS'0.78'
p4201
aa(lp4202
g997
ag998
aS'0.66'
p4203
aaaa(lp4204
VA7BLR5_9GAMM
p4205
aVA7BLR5
p4206
ag6
aI422288
a(lp4207
(lp4208
VGO:0004643
p4209
aVphosphoribosylaminoimidazolecarboxamide formyltransferase activity
p4210
aS'0.91'
p4211
aa(lp4212
VGO:0003937
p4213
aVIMP cyclohydrolase activity
p4214
aS'0.91'
p4215
aaaa(lp4216
VA7BLC2_9GAMM
p4217
aVA7BLC2
p4218
ag6
aI422288
a(lp4219
(lp4220
VGO:0016308
p4221
aV1-phosphatidylinositol-4-phosphate 5-kinase activity
p4222
aS'0.9'
p4223
aa(lp4224
VGO:0008307
p4225
aVstructural constituent of muscle
p4226
aS'0.78'
p4227
aaaa(lp4228
VA7BNL8_9GAMM
p4229
aVA7BNL8
p4230
ag6
aI422288
a(lp4231
(lp4232
VGO:2001070
p4233
aVstarch binding
p4234
aS'0.82'
p4235
aa(lp4236
VGO:0042912
p4237
aVcolicin transmembrane transporter activity
p4238
aS'0.66'
p4239
aa(lp4240
VGO:0015620
p4241
aVferric-enterobactin transmembrane transporter activity
p4242
aS'0.55'
p4243
aa(lp4244
VGO:0022834
p4245
aVligand-gated channel activity
p4246
aS'0.55'
p4247
aaaa(lp4248
VA7BKE6_9GAMM
p4249
aVA7BKE6
p4250
ag6
aI422288
a(lp4251
(lp4252
VGO:0000225
p4253
aVN-acetylglucosaminylphosphatidylinositol deacetylase activity
p4254
aS'0.82'
p4255
aa(lp4256
VGO:0047584
p4257
aV4-oxalmesaconate hydratase activity
p4258
aS'0.19'
p4259
aa(lp4260
g573
ag574
aS'0.19'
p4261
aa(lp4262
VGO:0016779
p4263
aVnucleotidyltransferase activity
p4264
aS'0.18'
p4265
aaaa(lp4266
VA7BM87_9GAMM
p4267
aVA7BM87
p4268
ag6
aI422288
a(lp4269
(lp4270
g91
ag92
aS'0.85'
p4271
aaaa(lp4272
VA7BP62_9GAMM
p4273
aVA7BP62
p4274
ag6
aI422288
a(lp4275
(lp4276
g259
ag260
aS'0.8'
p4277
aa(lp4278
g263
ag264
aS'0.54'
p4279
aa(lp4280
g267
ag268
aS'0.54'
p4281
aaaa(lp4282
VA7BKD2_9GAMM
p4283
aVA7BKD2
p4284
ag6
aI422288
a(lp4285
(lp4286
VGO:0019172
p4287
aVglyoxalase III activity
p4288
aS'0.83'
p4289
aa(lp4290
g259
ag260
aS'0.18'
p4291
aa(lp4292
VGO:0003729
p4293
aVmRNA binding
p4294
aS'0.15'
p4295
aa(lp4296
g81
ag82
aS'0.15'
p4297
aaaa(lp4298
VA7BLP0_9GAMM
p4299
aVA7BLP0
p4300
ag6
aI422288
a(lp4301
(lp4302
g91
ag92
aS'0.86'
p4303
aa(lp4304
g1305
ag1306
aS'0.68'
p4305
aaaa(lp4306
VA7BKM5_9GAMM
p4307
aVA7BKM5
p4308
ag6
aI422288
a(lp4309
(lp4310
g477
ag478
aS'0.93'
p4311
aa(lp4312
VGO:0034634
p4313
aVglutathione transmembrane transporter activity
p4314
aS'0.62'
p4315
aaaa(lp4316
VA7BNW8_9GAMM
p4317
aVA7BNW8
p4318
ag6
aI422288
a(lp4319
(lp4320
VGO:0016620
p4321
aVoxidoreductase activity, acting on the aldehyde or oxo group of donors, NAD or NADP as acceptor
p4322
aS'0.94'
p4323
aa(lp4324
g1657
ag1658
aS'0.37'
p4325
aa(lp4326
VGO:0004412
p4327
aVhomoserine dehydrogenase activity
p4328
aS'0.31'
p4329
aaaa(lp4330
VA7BL84_9GAMM
p4331
aVA7BL84
p4332
ag6
aI422288
a(lp4333
(lp4334
g311
ag312
aS'0.84'
p4335
aa(lp4336
g335
ag336
aS'0.2'
p4337
aa(lp4338
g363
ag364
aS'0.2'
p4339
aa(lp4340
g339
ag340
aS'0.19'
p4341
aa(lp4342
g343
ag344
aS'0.19'
p4343
aa(lp4344
g351
ag352
aS'0.19'
p4345
aa(lp4346
g1657
ag1658
aS'0.19'
p4347
aa(lp4348
g355
ag356
aS'0.19'
p4349
aaaa(lp4350
VA7BMY3_9GAMM
p4351
aVA7BMY3
p4352
ag6
aI422288
a(lp4353
(lp4354
g807
ag808
aS'0.68'
p4355
aa(lp4356
g319
ag320
aS'0.55'
p4357
aaaa(lp4358
VA7BLF9_9GAMM
p4359
aVA7BLF9
p4360
ag6
aI422288
a(lp4361
(lp4362
g4095
ag4096
aS'0.73'
p4363
aaaa(lp4364
VA7BLB7_9GAMM
p4365
aVA7BLB7
p4366
ag6
aI422288
a(lp4367
(lp4368
VGO:0016757
p4369
aVtransferase activity, transferring glycosyl groups
p4370
aS'0.9'
p4371
aa(lp4372
VGO:0019180
p4373
aVdTDP-4-amino-4,6-dideoxygalactose transaminase activity
p4374
aS'0.87'
p4375
aaaa(lp4376
VA7BP64_9GAMM
p4377
aVA7BP64
p4378
ag6
aI422288
a(lp4379
(lp4380
g1907
ag1908
aS'0.88'
p4381
aa(lp4382
g1911
ag1912
aS'0.86'
p4383
aaaa(lp4384
VA7BMX1_9GAMM
p4385
aVA7BMX1
p4386
ag6
aI422288
a(lp4387
(lp4388
VGO:0010340
p4389
aVcarboxyl-O-methyltransferase activity
p4390
aS'0.84'
p4391
aa(lp4392
VGO:0016300
p4393
aVtRNA (uracil) methyltransferase activity
p4394
aS'0.73'
p4395
aaaa(lp4396
VA7BNA5_9GAMM
p4397
aVA7BNA5
p4398
ag6
aI422288
a(lp4399
(lp4400
g259
ag260
aS'0.42'
p4401
aa(lp4402
VGO:0004535
p4403
aVpoly(A)-specific ribonuclease activity
p4404
aS'0.06'
p4405
aa(lp4406
VGO:0008310
p4407
aVsingle-stranded DNA 3'-5' exodeoxyribonuclease activity
p4408
aS'0.06'
p4409
aa(lp4410
VGO:0030619
p4411
aVU1 snRNA binding
p4412
aS'0.06'
p4413
aa(lp4414
VGO:0030620
p4415
aVU2 snRNA binding
p4416
aS'0.06'
p4417
aa(lp4418
VGO:0008852
p4419
aVexodeoxyribonuclease I activity
p4420
aS'0.06'
p4421
aa(lp4422
VGO:0034511
p4423
aVU3 snoRNA binding
p4424
aS'0.06'
p4425
aa(lp4426
g65
ag66
aS'0.06'
p4427
aa(lp4428
VGO:0034611
p4429
aVoligoribonucleotidase activity
p4430
aS'0.06'
p4431
aa(lp4432
g745
ag746
aS'0.06'
p4433
aaaa(lp4434
VA7BLC8_9GAMM
p4435
aVA7BLC8
p4436
ag6
aI422288
a(lp4437
(lp4438
g3809
ag3810
aS'0.92'
p4439
aa(lp4440
VGO:0004849
p4441
aVuridine kinase activity
p4442
aS'0.47'
p4443
aa(lp4444
g259
ag260
aS'0.46'
p4445
aaaa(lp4446
VA7BNQ6_9GAMM
p4447
aVA7BNQ6
p4448
ag6
aI422288
a(lp4449
(lp4450
g203
ag204
aS'0.78'
p4451
aa(lp4452
g229
ag230
aS'0.48'
p4453
aaaa(lp4454
VA7BP31_9GAMM
p4455
aVA7BP31
p4456
ag6
aI422288
a(lp4457
(lp4458
g65
ag66
aS'0.83'
p4459
aa(lp4460
g69
ag70
aS'0.5'
p4461
aa(lp4462
g73
ag74
aS'0.5'
p4463
aaaa(lp4464
VA7BNJ5_9GAMM
p4465
aVA7BNJ5
p4466
ag6
aI422288
a(lp4467
(lp4468
g3277
ag3278
aS'0.91'
p4469
aa(lp4470
g739
ag740
aS'0.19'
p4471
aa(lp4472
g1143
ag1144
aS'0.19'
p4473
aa(lp4474
g745
ag746
aS'0.19'
p4475
aa(lp4476
g91
ag92
aS'0.19'
p4477
aaaa(lp4478
VA7BKI9_9GAMM
p4479
aVA7BKI9
p4480
ag6
aI422288
a(lp4481
(lp4482
VGO:0003864
p4483
aV3-methyl-2-oxobutanoate hydroxymethyltransferase activity
p4484
aS'0.92'
p4485
aa(lp4486
g745
ag746
aS'0.77'
p4487
aaaa(lp4488
VA7BNJ4_9GAMM
p4489
aVA7BNJ4
p4490
ag6
aI422288
a(lp4491
(lp4492
g1279
ag1280
aS'0.38'
p4493
aa(lp4494
g339
ag340
aS'0.19'
p4495
aa(lp4496
g347
ag348
aS'0.17'
p4497
aa(lp4498
g359
ag360
aS'0.17'
p4499
aa(lp4500
g355
ag356
aS'0.17'
p4501
aa(lp4502
g363
ag364
aS'0.17'
p4503
aa(lp4504
g335
ag336
aS'0.17'
p4505
aa(lp4506
g351
ag352
aS'0.17'
p4507
aa(lp4508
g343
ag344
aS'0.17'
p4509
aaaa(lp4510
VA7BMS0_9GAMM
p4511
aVA7BMS0
p4512
ag6
aI422288
a(lp4513
(lp4514
g593
ag594
aS'0.53'
p4515
aa(lp4516
g589
ag590
aS'0.41'
p4517
aaaa(lp4518
VA7BM43_9GAMM
p4519
aVA7BM43
p4520
ag6
aI422288
a(lp4521
(lp4522
g2313
ag2314
aS'0.92'
p4523
aa(lp4524
VGO:0046583
p4525
aVcation efflux transmembrane transporter activity
p4526
aS'0.09'
p4527
aa(lp4528
VGO:0086039
p4529
aVcalcium-transporting ATPase activity involved in regulation of cardiac muscle cell membrane potential
p4530
aS'0.08'
p4531
aa(lp4532
g259
ag260
aS'0.08'
p4533
aa(lp4534
VGO:0008022
p4535
aVprotein C-terminus binding
p4536
aS'0.08'
p4537
aa(lp4538
VGO:0044548
p4539
aVS100 protein binding
p4540
aS'0.08'
p4541
aa(lp4542
g1305
ag1306
aS'0.08'
p4543
aa(lp4544
g45
ag46
aS'0.08'
p4545
aa(lp4546
g1053
ag1054
aS'0.08'
p4547
aa(lp4548
g739
ag740
aS'0.08'
p4549
aa(lp4550
VGO:0015410
p4551
aVmanganese-transporting ATPase activity
p4552
aS'0.08'
p4553
aa(lp4554
VGO:0030165
p4555
aVPDZ domain binding
p4556
aS'0.08'
p4557
aa(lp4558
g69
ag70
aS'0.08'
p4559
aa(lp4560
g517
ag518
aS'0.08'
p4561
aaaa(lp4562
VA7BKK0_9GAMM
p4563
aVA7BKK0
p4564
ag6
aI422288
a(lp4565
(lp4566
g199
ag200
aS'0.69'
p4567
aa(lp4568
g207
ag208
aS'0.35'
p4569
aa(lp4570
g225
ag226
aS'0.35'
p4571
aaaa(lp4572
VA7BM85_9GAMM
p4573
aVA7BM85
p4574
ag6
aI422288
a(lp4575
(lp4576
g3179
ag3180
aS'0.91'
p4577
aa(lp4578
VGO:0070041
p4579
aVrRNA (uridine-C5-)-methyltransferase activity
p4580
aS'0.89'
p4581
aaaa(lp4582
VA7BLH1_9GAMM
p4583
aVA7BLH1
p4584
ag6
aI422288
a(lp4585
(lp4586
g311
ag312
aS'0.84'
p4587
aa(lp4588
g335
ag336
aS'0.61'
p4589
aaaa(lp4590
VA7BNY1_9GAMM
p4591
aVA7BNY1
p4592
ag6
aI422288
a(lp4593
(lp4594
VGO:0050303
p4595
aVlysine 6-dehydrogenase activity
p4596
aS'0.77'
p4597
aa(lp4598
VGO:0047131
p4599
aVsaccharopine dehydrogenase (NAD+, L-glutamate-forming) activity
p4600
aS'0.2'
p4601
aa(lp4602
VGO:0047130
p4603
aVsaccharopine dehydrogenase (NADP+, L-lysine-forming) activity
p4604
aS'0.18'
p4605
aaaa(lp4606
VA7BMS9_9GAMM
p4607
aVA7BMS9
p4608
ag6
aI422288
a(lp4609
(lp4610
g65
ag66
aS'0.94'
p4611
aa(lp4612
g3209
ag3210
aS'0.88'
p4613
aaaa(lp4614
VA7BLP3_9GAMM
p4615
aVA7BLP3
p4616
ag6
aI422288
a(lp4617
(lp4618
g91
ag92
aS'0.75'
p4619
aa(lp4620
g73
ag74
aS'0.68'
p4621
aaaa(lp4622
VA7BMA6_9GAMM
p4623
aVA7BMA6
p4624
ag6
aI422288
a(lp4625
(lp4626
g311
ag312
aS'0.91'
p4627
aa(lp4628
g307
ag308
aS'0.91'
p4629
aaaa(lp4630
VA7BKX0_9GAMM
p4631
aVA7BKX0
p4632
ag6
aI422288
a(lp4633
(lp4634
g2069
ag2070
aS'0.46'
p4635
aa(lp4636
g939
ag940
aS'0.26'
p4637
aa(lp4638
g943
ag944
aS'0.22'
p4639
aa(lp4640
VGO:0008252
p4641
aVnucleotidase activity
p4642
aS'0.22'
p4643
aa(lp4644
VGO:0044682
p4645
aVarchaeal-specific GTP cyclohydrolase activity
p4646
aS'0.22'
p4647
aaaa(lp4648
VA7BMG5_9GAMM
p4649
aVA7BMG5
p4650
ag6
aI422288
a(lp4651
(lp4652
g91
ag92
aS'0.9'
p4653
aaaa(lp4654
VA7BL10_9GAMM
p4655
aVA7BL10
p4656
ag6
aI422288
a(lp4657
(lp4658
g1301
ag1302
aS'0.48'
p4659
aa(lp4660
g1305
ag1306
aS'0.22'
p4661
aaaa(lp4662
VA7BKY4_9GAMM
p4663
aVA7BKY4
p4664
ag6
aI422288
a(lp4665
(lp4666
g259
ag260
aS'0.43'
p4667
aa(lp4668
g1565
ag1566
aS'0.03'
p4669
aa(lp4670
g4221
ag4222
aS'0.03'
p4671
aa(lp4672
VGO:0001530
p4673
aVlipopolysaccharide binding
p4674
aS'0.03'
p4675
aa(lp4676
g2023
ag2024
aS'0.03'
p4677
aa(lp4678
VGO:0043813
p4679
aVphosphatidylinositol-3,5-bisphosphate 5-phosphatase activity
p4680
aS'0.03'
p4681
aa(lp4682
VGO:0002039
p4683
aVp53 binding
p4684
aS'0.03'
p4685
aa(lp4686
g69
ag70
aS'0.03'
p4687
aa(lp4688
VGO:0008565
p4689
aVprotein transporter activity
p4690
aS'0.03'
p4691
aa(lp4692
g3821
ag3822
aS'0.03'
p4693
aa(lp4694
VGO:0015269
p4695
aVcalcium-activated potassium channel activity
p4696
aS'0.03'
p4697
aa(lp4698
VGO:0005253
p4699
aVanion channel activity
p4700
aS'0.03'
p4701
aa(lp4702
g3151
ag3152
aS'0.03'
p4703
aaaa(lp4704
VA7BLY5_9GAMM
p4705
aVA7BLY5
p4706
ag6
aI422288
a(lp4707
(lp4708
VGO:0004329
p4709
aVformate-tetrahydrofolate ligase activity
p4710
aS'0.93'
p4711
aa(lp4712
VGO:0004477
p4713
aVmethenyltetrahydrofolate cyclohydrolase activity
p4714
aS'0.23'
p4715
aa(lp4716
VGO:0004486
p4717
aVmethylenetetrahydrofolate dehydrogenase [NAD(P)+] activity
p4718
aS'0.23'
p4719
aaaa(lp4720
VA7BKK3_9GAMM
p4721
aVA7BKK3
p4722
ag6
aI422288
a(lp4723
(lp4724
g1229
ag1230
aS'0.91'
p4725
aa(lp4726
g739
ag740
aS'0.44'
p4727
aaaa(lp4728
VA7BM32_9GAMM
p4729
aVA7BM32
p4730
ag6
aI422288
a(lp4731
(lp4732
g1691
ag1692
aS'0.39'
p4733
aa(lp4734
g601
ag602
aS'0.36'
p4735
aaaa(lp4736
VA7BLN2_9GAMM
p4737
aVA7BLN2
p4738
ag6
aI422288
a(lp4739
(lp4740
g311
ag312
aS'0.73'
p4741
aaaa(lp4742
VA7BMQ4_9GAMM
p4743
aVA7BMQ4
p4744
ag6
aI422288
a(lp4745
(lp4746
g531
ag532
aS'0.73'
p4747
aa(lp4748
g535
ag536
aS'0.73'
p4749
aa(lp4750
g521
ag522
aS'0.72'
p4751
aa(lp4752
g525
ag526
aS'0.72'
p4753
aa(lp4754
VGO:0015087
p4755
aVcobalt ion transmembrane transporter activity
p4756
aS'0.71'
p4757
aa(lp4758
VGO:0015094
p4759
aVlead ion transmembrane transporter activity
p4760
aS'0.71'
p4761
aa(lp4762
g481
ag482
aS'0.71'
p4763
aa(lp4764
g1169
ag1170
aS'0.69'
p4765
aa(lp4766
g69
ag70
aS'0.68'
p4767
aaaa(lp4768
VA7BLD2_9GAMM
p4769
aVA7BLD2
p4770
ag6
aI422288
a(lp4771
(lp4772
g129
ag130
aS'0.93'
p4773
aa(lp4774
VGO:0019154
p4775
aVglycolate dehydrogenase activity
p4776
aS'0.51'
p4777
aaaa(lp4778
VA7BNL5_9GAMM
p4779
aVA7BNL5
p4780
ag6
aI422288
a(lp4781
(lp4782
g1691
ag1692
aS'0.4'
p4783
aa(lp4784
g601
ag602
aS'0.36'
p4785
aaaa(lp4786
VA7BNN9_9GAMM
p4787
aVA7BNN9
p4788
ag6
aI422288
a(lp4789
(lp4790
g1279
ag1280
aS'0.4'
p4791
aa(lp4792
g1283
ag1284
aS'0.05'
p4793
aa(lp4794
g1287
ag1288
aS'0.05'
p4795
aa(lp4796
g1291
ag1292
aS'0.05'
p4797
aa(lp4798
g739
ag740
aS'0.05'
p4799
aaaa(lp4800
VA7BLA2_9GAMM
p4801
aVA7BLA2
p4802
ag6
aI422288
a(lp4803
(lp4804
VGO:0008863
p4805
aVformate dehydrogenase (NAD+) activity
p4806
aS'0.89'
p4807
aa(lp4808
g133
ag134
aS'0.78'
p4809
aaaa(lp4810
VA7BM60_9GAMM
p4811
aVA7BM60
p4812
ag6
aI422288
a(lp4813
(lp4814
g1541
ag1542
aS'0.88'
p4815
aa(lp4816
VGO:0004181
p4817
aVmetallocarboxypeptidase activity
p4818
aS'0.86'
p4819
aa(lp4820
g1545
ag1546
aS'0.73'
p4821
aa(lp4822
g1551
ag1552
aS'0.73'
p4823
aa(lp4824
g49
ag50
aS'0.73'
p4825
aaaa(lp4826
VA7BPC5_9GAMM
p4827
aVA7BPC5
p4828
ag6
aI422288
a(lp4829
(lp4830
g91
ag92
aS'0.94'
p4831
aaaa(lp4832
VA7BN20_9GAMM
p4833
aVA7BN20
p4834
ag6
aI422288
a(lp4835
(lp4836
VGO:0004164
p4837
aVdiphthine synthase activity
p4838
aS'0.94'
p4839
aa(lp4840
VGO:0070677
p4841
aVrRNA (cytosine-2'-O-)-methyltransferase activity
p4842
aS'0.87'
p4843
aaaa(lp4844
VA7BNL7_9GAMM
p4845
aVA7BNL7
p4846
ag6
aI422288
a(lp4847
(lp4848
g91
ag92
aS'0.92'
p4849
aa(lp4850
g133
ag134
aS'0.23'
p4851
aa(lp4852
g3179
ag3180
aS'0.23'
p4853
aa(lp4854
VGO:0043546
p4855
aVmolybdopterin cofactor binding
p4856
aS'0.23'
p4857
aa(lp4858
VGO:0030151
p4859
aVmolybdenum ion binding
p4860
aS'0.23'
p4861
aa(lp4862
VGO:0018818
p4863
aVacetylene hydratase activity
p4864
aS'0.23'
p4865
aa(lp4866
g3075
ag3076
aS'0.23'
p4867
aaaa(lp4868
VA7BLU1_9GAMM
p4869
aVA7BLU1
p4870
ag6
aI422288
a(lp4871
(lp4872
g1445
ag1446
aS'0.37'
p4873
aa(lp4874
g2827
ag2828
aS'0.13'
p4875
aa(lp4876
g311
ag312
aS'0.11'
p4877
aaaa(lp4878
VA7BME7_9GAMM
p4879
aVA7BME7
p4880
ag6
aI422288
a(lp4881
(lp4882
g679
ag680
aS'0.88'
p4883
aa(lp4884
g2105
ag2106
aS'0.78'
p4885
aa(lp4886
g2109
ag2110
aS'0.69'
p4887
aaaa(lp4888
VA7BL18_9GAMM
p4889
aVA7BL18
p4890
ag6
aI422288
a(lp4891
(lp4892
g1819
ag1820
aS'0.92'
p4893
aa(lp4894
g745
ag746
aS'0.06'
p4895
aa(lp4896
g1825
ag1826
aS'0.06'
p4897
aaaa(lp4898
VA7BNI9_9GAMM
p4899
aVA7BNI9
p4900
ag6
aI422288
a(lp4901
(lp4902
VGO:0047471
p4903
aVmaltose alpha-D-glucosyltransferase activity
p4904
aS'0.88'
p4905
aa(lp4906
VGO:0004575
p4907
aVsucrose alpha-glucosidase activity
p4908
aS'0.21'
p4909
aa(lp4910
g37
ag38
aS'0.21'
p4911
aa(lp4912
VGO:0015174
p4913
aVbasic amino acid transmembrane transporter activity
p4914
aS'0.21'
p4915
aa(lp4916
g45
ag46
aS'0.21'
p4917
aa(lp4918
VGO:0004556
p4919
aValpha-amylase activity
p4920
aS'0.21'
p4921
aa(lp4922
g91
ag92
aS'0.21'
p4923
aa(lp4924
VGO:0008788
p4925
aValpha,alpha-phosphotrehalase activity
p4926
aS'0.21'
p4927
aa(lp4928
VGO:0016161
p4929
aVbeta-amylase activity
p4930
aS'0.21'
p4931
aa(lp4932
VGO:0015184
p4933
aVL-cystine transmembrane transporter activity
p4934
aS'0.21'
p4935
aa(lp4936
VGO:0032450
p4937
aVmaltose alpha-glucosidase activity
p4938
aS'0.21'
p4939
aaaa(lp4940
VA7BKI6_9GAMM
p4941
aVA7BKI6
p4942
ag6
aI422288
a(lp4943
(lp4944
g311
ag312
aS'0.9'
p4945
aaaa(lp4946
VA7BNB8_9GAMM
p4947
aVA7BNB8
p4948
ag6
aI422288
a(lp4949
(lp4950
g311
ag312
aS'0.84'
p4951
aa(lp4952
g1131
ag1132
aS'0.17'
p4953
aa(lp4954
g1445
ag1446
aS'0.16'
p4955
aa(lp4956
VGO:0005245
p4957
aVvoltage-gated calcium channel activity
p4958
aS'0.16'
p4959
aaaa(lp4960
VA7BKL9_9GAMM
p4961
aVA7BKL9
p4962
ag6
aI422288
a(lp4963
(lp4964
g203
ag204
aS'0.82'
p4965
aa(lp4966
g2155
ag2156
aS'0.77'
p4967
aaaa(lp4968
VA7BMK3_9GAMM
p4969
aVA7BMK3
p4970
ag6
aI422288
a(lp4971
(lp4972
VGO:0015439
p4973
aVheme-transporting ATPase activity
p4974
aS'0.8'
p4975
aa(lp4976
VGO:0015437
p4977
aVlipopolysaccharide-transporting ATPase activity
p4978
aS'0.08'
p4979
aa(lp4980
VGO:0034040
p4981
aVlipid-transporting ATPase activity
p4982
aS'0.08'
p4983
aa(lp4984
g2301
ag2302
aS'0.07'
p4985
aa(lp4986
g69
ag70
aS'0.07'
p4987
aa(lp4988
VGO:0008289
p4989
aVlipid binding
p4990
aS'0.07'
p4991
aaaa(lp4992
VA7BLX4_9GAMM
p4993
aVA7BLX4
p4994
ag6
aI422288
a(lp4995
(lp4996
VGO:0004866
p4997
aVendopeptidase inhibitor activity
p4998
aS'0.78'
p4999
aaaa(lp5000
VA7BM07_9GAMM
p5001
aVA7BM07
p5002
ag6
aI422288
a(lp5003
(lp5004
VGO:0009029
p5005
aVtetraacyldisaccharide 4'-kinase activity
p5006
aS'0.78'
p5007
aaaa(lp5008
VA7BMG7_9GAMM
p5009
aVA7BMG7
p5010
ag6
aI422288
a(lp5011
(lp5012
g3037
ag3038
aS'0.91'
p5013
aa(lp5014
g3033
ag3034
aS'0.77'
p5015
aaaa(lp5016
VA7BKL6_9GAMM
p5017
aVA7BKL6
p5018
ag6
aI422288
a(lp5019
(lp5020
g1657
ag1658
aS'0.47'
p5021
aa(lp5022
g311
ag312
aS'0.43'
p5023
aaaa(lp5024
VA7BM65_9GAMM
p5025
aVA7BM65
p5026
ag6
aI422288
a(lp5027
(lp5028
VGO:0008234
p5029
aVcysteine-type peptidase activity
p5030
aS'0.91'
p5031
aa(lp5032
VGO:0008237
p5033
aVmetallopeptidase activity
p5034
aS'0.88'
p5035
aaaa(lp5036
VA7BKS1_9GAMM
p5037
aVA7BKS1
p5038
ag6
aI422288
a(lp5039
(lp5040
g711
ag712
aS'0.87'
p5041
aa(lp5042
g91
ag92
aS'0.84'
p5043
aaaa(lp5044
VA7BKE4_9GAMM
p5045
aVA7BKE4
p5046
ag6
aI422288
a(lp5047
(lp5048
g91
ag92
aS'0.93'
p5049
aa(lp5050
g739
ag740
aS'0.38'
p5051
aa(lp5052
VGO:0034235
p5053
aVGPI anchor binding
p5054
aS'0.38'
p5055
aa(lp5056
VGO:0008081
p5057
aVphosphoric diester hydrolase activity
p5058
aS'0.38'
p5059
aaaa(lp5060
VA7BP40_9GAMM
p5061
aVA7BP40
p5062
ag6
aI422288
a(lp5063
(lp5064
g1361
ag1362
aS'0.83'
p5065
aa(lp5066
VGO:0016879
p5067
aVligase activity, forming carbon-nitrogen bonds
p5068
aS'0.51'
p5069
aa(lp5070
g3817
ag3818
aS'0.44'
p5071
aa(lp5072
VGO:0043047
p5073
aVsingle-stranded telomeric DNA binding
p5074
aS'0.44'
p5075
aaaa(lp5076
VA7BN89_9GAMM
p5077
aVA7BN89
p5078
ag6
aI422288
a(lp5079
(lp5080
g935
ag936
aS'0.77'
p5081
aa(lp5082
g943
ag944
aS'0.36'
p5083
aa(lp5084
g339
ag340
aS'0.36'
p5085
aa(lp5086
g949
ag950
aS'0.36'
p5087
aa(lp5088
g953
ag954
aS'0.36'
p5089
aa(lp5090
g739
ag740
aS'0.36'
p5091
aa(lp5092
g959
ag960
aS'0.36'
p5093
aa(lp5094
g963
ag964
aS'0.36'
p5095
aa(lp5096
g939
ag940
aS'0.36'
p5097
aa(lp5098
g259
ag260
aS'0.36'
p5099
aaaa(lp5100
VA7BL75_9GAMM
p5101
aVA7BL75
p5102
ag6
aI422288
a(lp5103
(lp5104
g4095
ag4096
aS'0.83'
p5105
aaaa(lp5106
VA7BPC6_9GAMM
p5107
aVA7BPC6
p5108
ag6
aI422288
a(lp5109
(lp5110
VGO:0017061
p5111
aVS-methyl-5-thioadenosine phosphorylase activity
p5112
aS'0.92'
p5113
aa(lp5114
VGO:0004731
p5115
aVpurine-nucleoside phosphorylase activity
p5116
aS'0.42'
p5117
aaaa(lp5118
VA7BLE3_9GAMM
p5119
aVA7BLE3
p5120
ag6
aI422288
a(lp5121
(lp5122
VGO:0016767
p5123
aVgeranylgeranyl-diphosphate geranylgeranyltransferase activity
p5124
aS'0.91'
p5125
aa(lp5126
VGO:0004310
p5127
aVfarnesyl-diphosphate farnesyltransferase activity
p5128
aS'0.55'
p5129
aaaa(lp5130
VA7BLE6_9GAMM
p5131
aVA7BLE6
p5132
ag6
aI422288
a(lp5133
(lp5134
g335
ag336
aS'0.92'
p5135
aa(lp5136
g259
ag260
aS'0.4'
p5137
aaaa(lp5138
VA7BNH3_9GAMM
p5139
aVA7BNH3
p5140
ag6
aI422288
a(lp5141
(lp5142
VGO:0004853
p5143
aVuroporphyrinogen decarboxylase activity
p5144
aS'0.92'
p5145
aa(lp5146
VGO:0044683
p5147
aVmethylthiol:coenzyme M methyltransferase activity
p5148
aS'0.1'
p5149
aa(lp5150
VGO:0043791
p5151
aVdimethylamine methyltransferase activity
p5152
aS'0.09'
p5153
aa(lp5154
g263
ag264
aS'0.09'
p5155
aa(lp5156
g91
ag92
aS'0.09'
p5157
aaaa(lp5158
VA7BLG4_9GAMM
p5159
aVA7BLG4
p5160
ag6
aI422288
a(lp5161
(lp5162
g5029
ag5030
aS'0.79'
p5163
aa(lp5164
g5033
ag5034
aS'0.71'
p5165
aaaa(lp5166
VA7BMS3_9GAMM
p5167
aVA7BMS3
p5168
ag6
aI422288
a(lp5169
(lp5170
g91
ag92
aS'0.79'
p5171
aaaa(lp5172
VA7BN60_9GAMM
p5173
aVA7BN60
p5174
ag6
aI422288
a(lp5175
(lp5176
g335
ag336
aS'0.69'
p5177
aa(lp5178
g91
ag92
aS'0.17'
p5179
aaaa(lp5180
VA7BMB0_9GAMM
p5181
aVA7BMB0
p5182
ag6
aI422288
a(lp5183
(lp5184
g1009
ag1010
aS'0.93'
p5185
aa(lp5186
g1005
ag1006
aS'0.22'
p5187
aa(lp5188
g997
ag998
aS'0.22'
p5189
aaaa(lp5190
VA7BNN1_9GAMM
p5191
aVA7BNN1
p5192
ag6
aI422288
a(lp5193
(lp5194
VGO:0016987
p5195
aVsigma factor activity
p5196
aS'0.86'
p5197
aa(lp5198
g65
ag66
aS'0.73'
p5199
aaaa(lp5200
VA7BNP8_9GAMM
p5201
aVA7BNP8
p5202
ag6
aI422288
a(lp5203
(lp5204
g605
ag606
aS'0.81'
p5205
aa(lp5206
VGO:0003705
p5207
aVRNA polymerase II distal enhancer sequence-specific DNA binding transcription factor activity
p5208
aS'0.69'
p5209
aaaa(lp5210
VA7BLW6_9GAMM
p5211
aVA7BLW6
p5212
ag6
aI422288
a(lp5213
(lp5214
VGO:0071424
p5215
aVrRNA (cytosine-N4-)-methyltransferase activity
p5216
aS'0.78'
p5217
aaaa(lp5218
VA7BMG1_9GAMM
p5219
aVA7BMG1
p5220
ag6
aI422288
a(lp5221
(lp5222
g3371
ag3372
aS'0.93'
p5223
aa(lp5224
g151
ag152
aS'0.81'
p5225
aaaa(lp5226
VA7BLN6_9GAMM
p5227
aVA7BLN6
p5228
ag6
aI422288
a(lp5229
(lp5230
g335
ag336
aS'0.78'
p5231
aa(lp5232
VGO:0009882
p5233
aVblue light photoreceptor activity
p5234
aS'0.54'
p5235
aa(lp5236
g1325
ag1326
aS'0.53'
p5237
aaaa(lp5238
VA7BLU4_9GAMM
p5239
aVA7BLU4
p5240
ag6
aI422288
a(lp5241
(lp5242
g311
ag312
aS'0.87'
p5243
aaaa(lp5244
VA7BM03_9GAMM
p5245
aVA7BM03
p5246
ag6
aI422288
a(lp5247
(lp5248
g203
ag204
aS'0.94'
p5249
aa(lp5250
g225
ag226
aS'0.42'
p5251
aa(lp5252
g207
ag208
aS'0.4'
p5253
aaaa(lp5254
VA7BMV8_9GAMM
p5255
aVA7BMV8
p5256
ag6
aI422288
a(lp5257
(lp5258
g91
ag92
aS'0.92'
p5259
aa(lp5260
VGO:0043794
p5261
aVformate dehydrogenase (coenzyme F420) activity
p5262
aS'0.44'
p5263
aa(lp5264
g3179
ag3180
aS'0.37'
p5265
aa(lp5266
g4855
ag4856
aS'0.36'
p5267
aaaa(lp5268
VA7BNV1_9GAMM
p5269
aVA7BNV1
p5270
ag6
aI422288
a(lp5271
(lp5272
g275
ag276
aS'0.22'
p5273
aa(lp5274
VGO:1901641
p5275
aVITP binding
p5276
aS'0.17'
p5277
aa(lp5278
VGO:0047840
p5279
aVdCTP diphosphatase activity
p5280
aS'0.14'
p5281
aa(lp5282
g259
ag260
aS'0.13'
p5283
aaaa(lp5284
VA7BPF6_9GAMM
p5285
aVA7BPF6
p5286
ag6
aI422288
a(lp5287
(lp5288
g91
ag92
aS'0.92'
p5289
aa(lp5290
g977
ag978
aS'0.67'
p5291
aaaa(lp5292
VA7BNJ3_9GAMM
p5293
aVA7BNJ3
p5294
ag6
aI422288
a(lp5295
(lp5296
g3151
ag3152
aS'0.67'
p5297
aa(lp5298
VGO:0070628
p5299
aVproteasome binding
p5300
aS'0.53'
p5301
aa(lp5302
VGO:0030544
p5303
aVHsp70 protein binding
p5304
aS'0.53'
p5305
aaaa(lp5306
VA7BN02_9GAMM
p5307
aVA7BN02
p5308
ag6
aI422288
a(lp5309
(lp5310
VGO:0034041
p5311
aVsterol-transporting ATPase activity
p5312
aS'0.22'
p5313
aa(lp5314
VGO:0017127
p5315
aVcholesterol transporter activity
p5316
aS'0.18'
p5317
aa(lp5318
VGO:0019905
p5319
aVsyntaxin binding
p5320
aS'0.17'
p5321
aaaa(lp5322
VA7BNP6_9GAMM
p5323
aVA7BNP6
p5324
ag6
aI422288
a(lp5325
(lp5326
g2077
ag2078
aS'0.82'
p5327
aa(lp5328
g91
ag92
aS'0.52'
p5329
aaaa(lp5330
VA7BLC7_9GAMM
p5331
aVA7BLC7
p5332
ag6
aI422288
a(lp5333
(lp5334
VGO:0005153
p5335
aVinterleukin-8 receptor binding
p5336
aS'0.86'
p5337
aa(lp5338
VGO:0004823
p5339
aVleucine-tRNA ligase activity
p5340
aS'0.86'
p5341
aa(lp5342
VGO:0004825
p5343
aVmethionine-tRNA ligase activity
p5344
aS'0.82'
p5345
aaaa(lp5346
VA7BMV0_9GAMM
p5347
aVA7BMV0
p5348
ag6
aI422288
a(lp5349
(lp5350
g1191
ag1192
aS'0.9'
p5351
aa(lp5352
g91
ag92
aS'0.66'
p5353
aaaa(lp5354
VA7BLK8_9GAMM
p5355
aVA7BLK8
p5356
ag6
aI422288
a(lp5357
(lp5358
VGO:0070224
p5359
aVsulfide:quinone oxidoreductase activity
p5360
aS'0.7'
p5361
aaaa(lp5362
VA7BLI9_9GAMM
p5363
aVA7BLI9
p5364
ag6
aI422288
a(lp5365
(lp5366
VGO:0050076
p5367
aVmaleate isomerase activity
p5368
aS'0.92'
p5369
aa(lp5370
VGO:0008881
p5371
aVglutamate racemase activity
p5372
aS'0.29'
p5373
aa(lp5374
VGO:0008657
p5375
aVDNA topoisomerase (ATP-hydrolyzing) inhibitor activity
p5376
aS'0.28'
p5377
aa(lp5378
g91
ag92
aS'0.27'
p5379
aaaa(lp5380
VA7BN22_9GAMM
p5381
aVA7BN22
p5382
ag6
aI422288
a(lp5383
(lp5384
g4535
ag4536
aS'0.71'
p5385
aaaa(lp5386
VA7BMD0_9GAMM
p5387
aVA7BMD0
p5388
ag6
aI422288
a(lp5389
(lp5390
VGO:0008327
p5391
aVmethyl-CpG binding
p5392
aS'0.91'
p5393
aa(lp5394
VGO:0070530
p5395
aVK63-linked polyubiquitin binding
p5396
aS'0.39'
p5397
aa(lp5398
VGO:0036310
p5399
aVannealing helicase activity
p5400
aS'0.39'
p5401
aa(lp5402
VGO:0004520
p5403
aVendodeoxyribonuclease activity
p5404
aS'0.35'
p5405
aa(lp5406
g985
ag986
aS'0.35'
p5407
aaaa(lp5408
VA7BLV7_9GAMM
p5409
aVA7BLV7
p5410
ag6
aI422288
a(lp5411
(lp5412
VGO:0004091
p5413
aVcarboxylesterase activity
p5414
aS'0.73'
p5415
aa(lp5416
VGO:0047078
p5417
aV3-hydroxy-4-oxoquinoline 2,4-dioxygenase activity
p5418
aS'0.04'
p5419
aaaa(lp5420
VA7BMN6_9GAMM
p5421
aVA7BMN6
p5422
ag6
aI422288
a(lp5423
(lp5424
g335
ag336
aS'0.9'
p5425
aa(lp5426
g343
ag344
aS'0.66'
p5427
aaaa(lp5428
VA7BNW9_9GAMM
p5429
aVA7BNW9
p5430
ag6
aI422288
a(lp5431
(lp5432
g605
ag606
aS'0.76'
p5433
aa(lp5434
VGO:0008017
p5435
aVmicrotubule binding
p5436
aS'0.43'
p5437
aa(lp5438
VGO:0070577
p5439
aVhistone acetyl-lysine binding
p5440
aS'0.38'
p5441
aaaa(lp5442
VA7BLX7_9GAMM
p5443
aVA7BLX7
p5444
ag6
aI422288
a(lp5445
(lp5446
g2339
ag2340
aS'0.94'
p5447
aa(lp5448
g91
ag92
aS'0.07'
p5449
aaaa(lp5450
VA7BMG4_9GAMM
p5451
aVA7BMG4
p5452
ag6
aI422288
a(lp5453
(lp5454
g91
ag92
aS'0.95'
p5455
aa(lp5456
g335
ag336
aS'0.06'
p5457
aa(lp5458
g363
ag364
aS'0.06'
p5459
aa(lp5460
VGO:0003696
p5461
aVsatellite DNA binding
p5462
aS'0.06'
p5463
aaaa(lp5464
VA7BKL4_9GAMM
p5465
aVA7BKL4
p5466
ag6
aI422288
a(lp5467
(lp5468
g203
ag204
aS'0.91'
p5469
aa(lp5470
g195
ag196
aS'0.39'
p5471
aa(lp5472
g225
ag226
aS'0.37'
p5473
aa(lp5474
g207
ag208
aS'0.34'
p5475
aaaa(lp5476
VA7BMA9_9GAMM
p5477
aVA7BMA9
p5478
ag6
aI422288
a(lp5479
(lp5480
VGO:0005200
p5481
aVstructural constituent of cytoskeleton
p5482
aS'0.84'
p5483
aa(lp5484
g275
ag276
aS'0.09'
p5485
aaaa(lp5486
VA7BMW1_9GAMM
p5487
aVA7BMW1
p5488
ag6
aI422288
a(lp5489
(lp5490
VGO:0047145
p5491
aVdemethylsterigmatocystin 6-O-methyltransferase activity
p5492
aS'0.91'
p5493
aa(lp5494
VGO:0017096
p5495
aVacetylserotonin O-methyltransferase activity
p5496
aS'0.14'
p5497
aa(lp5498
VGO:0033799
p5499
aVmyricetin 3'-O-methyltransferase activity
p5500
aS'0.13'
p5501
aa(lp5502
VGO:0033800
p5503
aVisoflavone 7-O-methyltransferase activity
p5504
aS'0.13'
p5505
aa(lp5506
VGO:0033802
p5507
aVisoliquiritigenin 2'-O-methyltransferase activity
p5508
aS'0.13'
p5509
aa(lp5510
VGO:0030744
p5511
aVluteolin O-methyltransferase activity
p5512
aS'0.13'
p5513
aa(lp5514
VGO:0030746
p5515
aVisoflavone 4'-O-methyltransferase activity
p5516
aS'0.13'
p5517
aa(lp5518
VGO:0030751
p5519
aVlicodione 2'-O-methyltransferase activity
p5520
aS'0.13'
p5521
aa(lp5522
g259
ag260
aS'0.13'
p5523
aa(lp5524
VGO:0052912
p5525
aV23S rRNA (guanine(748)-N(1))-methyltransferase activity
p5526
aS'0.13'
p5527
aa(lp5528
VGO:0030761
p5529
aV8-hydroxyquercitin 8-O-methyltransferase activity
p5530
aS'0.13'
p5531
aa(lp5532
VGO:0030766
p5533
aV11-O-demethyl-17-O-deacetylvindoline O-methyltransferase activity
p5534
aS'0.13'
p5535
aaaa(lp5536
VA7BMJ0_9GAMM
p5537
aVA7BMJ0
p5538
ag6
aI422288
a(lp5539
(lp5540
VGO:0042954
p5541
aVlipoprotein transporter activity
p5542
aS'0.78'
p5543
aa(lp5544
VGO:0042895
p5545
aVantibiotic transporter activity
p5546
aS'0.78'
p5547
aaaa(lp5548
VA7BLL8_9GAMM
p5549
aVA7BLL8
p5550
ag6
aI422288
a(lp5551
(lp5552
g557
ag558
aS'0.78'
p5553
aaaa(lp5554
VA7BNI6_9GAMM
p5555
aVA7BNI6
p5556
ag6
aI422288
a(lp5557
(lp5558
g307
ag308
aS'0.94'
p5559
aa(lp5560
g2087
ag2088
aS'0.51'
p5561
aaaa(lp5562
VA7BMB8_9GAMM
p5563
aVA7BMB8
p5564
ag6
aI422288
a(lp5565
(lp5566
g2683
ag2684
aS'0.78'
p5567
aaaa(lp5568
VA7BPB6_9GAMM
p5569
aVA7BPB6
p5570
ag6
aI422288
a(lp5571
(lp5572
g339
ag340
aS'0.66'
p5573
aa(lp5574
g939
ag940
aS'0.66'
p5575
aaaa(lp5576
VA7BMB1_9GAMM
p5577
aVA7BMB1
p5578
ag6
aI422288
a(lp5579
(lp5580
VGO:0003810
p5581
aVprotein-glutamine gamma-glutamyltransferase activity
p5582
aS'0.77'
p5583
aa(lp5584
g1001
ag1002
aS'0.07'
p5585
aa(lp5586
VGO:0015035
p5587
aVprotein disulfide oxidoreductase activity
p5588
aS'0.07'
p5589
aa(lp5590
g745
ag746
aS'0.07'
p5591
aa(lp5592
g1005
ag1006
aS'0.07'
p5593
aa(lp5594
VGO:0030246
p5595
aVcarbohydrate binding
p5596
aS'0.07'
p5597
aa(lp5598
VGO:0000224
p5599
aVpeptide-N4-(N-acetyl-beta-glucosaminyl)asparagine amidase activity
p5600
aS'0.07'
p5601
aa(lp5602
g45
ag46
aS'0.07'
p5603
aa(lp5604
g5481
ag5482
aS'0.07'
p5605
aa(lp5606
VGO:0001948
p5607
aVglycoprotein binding
p5608
aS'0.07'
p5609
aa(lp5610
g1551
ag1552
aS'0.07'
p5611
aa(lp5612
g69
ag70
aS'0.07'
p5613
aa(lp5614
g275
ag276
aS'0.07'
p5615
aa(lp5616
VGO:0008483
p5617
aVtransaminase activity
p5618
aS'0.07'
p5619
aa(lp5620
VGO:0051787
p5621
aVmisfolded protein binding
p5622
aS'0.07'
p5623
aa(lp5624
VGO:0047134
p5625
aVprotein-disulfide reductase activity
p5626
aS'0.07'
p5627
aaaa(lp5628
VA7BPD0_9GAMM
p5629
aVA7BPD0
p5630
ag6
aI422288
a(lp5631
(lp5632
g745
ag746
aS'0.93'
p5633
aa(lp5634
VGO:0008965
p5635
aVphosphoenolpyruvate-protein phosphotransferase activity
p5636
aS'0.59'
p5637
aa(lp5638
VGO:0008986
p5639
aVpyruvate, water dikinase activity
p5640
aS'0.46'
p5641
aaaa(lp5642
VA7BKI8_9GAMM
p5643
aVA7BKI8
p5644
ag6
aI422288
a(lp5645
(lp5646
g4483
ag4484
aS'0.92'
p5647
aa(lp5648
g745
ag746
aS'0.77'
p5649
aaaa(lp5650
VA7BL41_9GAMM
p5651
aVA7BL41
p5652
ag6
aI422288
a(lp5653
(lp5654
g91
ag92
aS'0.84'
p5655
aa(lp5656
VGO:0008177
p5657
aVsuccinate dehydrogenase (ubiquinone) activity
p5658
aS'0.67'
p5659
aaaa(lp5660
VA7BNR7_9GAMM
p5661
aVA7BNR7
p5662
ag6
aI422288
a(lp5663
(lp5664
g307
ag308
aS'0.91'
p5665
aa(lp5666
g311
ag312
aS'0.85'
p5667
aaaa(lp5668
VA7BLG9_9GAMM
p5669
aVA7BLG9
p5670
ag6
aI422288
a(lp5671
(lp5672
g517
ag518
aS'0.91'
p5673
aa(lp5674
g4529
ag4530
aS'0.19'
p5675
aa(lp5676
g259
ag260
aS'0.19'
p5677
aa(lp5678
g4535
ag4536
aS'0.19'
p5679
aa(lp5680
g4539
ag4540
aS'0.19'
p5681
aa(lp5682
g1305
ag1306
aS'0.19'
p5683
aa(lp5684
g45
ag46
aS'0.19'
p5685
aa(lp5686
g1053
ag1054
aS'0.19'
p5687
aa(lp5688
g739
ag740
aS'0.19'
p5689
aa(lp5690
g4551
ag4552
aS'0.19'
p5691
aa(lp5692
VGO:0008553
p5693
aVhydrogen-exporting ATPase activity, phosphorylative mechanism
p5694
aS'0.19'
p5695
aa(lp5696
g2313
ag2314
aS'0.19'
p5697
aa(lp5698
g4555
ag4556
aS'0.19'
p5699
aa(lp5700
g69
ag70
aS'0.19'
p5701
aaaa(lp5702
VA7BME0_9GAMM
p5703
aVA7BME0
p5704
ag6
aI422288
a(lp5705
(lp5706
g3571
ag3572
aS'0.92'
p5707
aa(lp5708
g91
ag92
aS'0.14'
p5709
aa(lp5710
g3575
ag3576
aS'0.13'
p5711
aa(lp5712
g745
ag746
aS'0.13'
p5713
aa(lp5714
g3581
ag3582
aS'0.13'
p5715
aa(lp5716
VGO:0004402
p5717
aVhistone acetyltransferase activity
p5718
aS'0.13'
p5719
aa(lp5720
g65
ag66
aS'0.13'
p5721
aa(lp5722
g3585
ag3586
aS'0.13'
p5723
aa(lp5724
g263
ag264
aS'0.13'
p5725
aa(lp5726
g3363
ag3364
aS'0.13'
p5727
aa(lp5728
g229
ag230
aS'0.13'
p5729
aaaa(lp5730
VA7BMP8_9GAMM
p5731
aVA7BMP8
p5732
ag6
aI422288
a(lp5733
(lp5734
g203
ag204
aS'0.93'
p5735
aa(lp5736
g307
ag308
aS'0.18'
p5737
aaaa(lp5738
VA7BNG3_9GAMM
p5739
aVA7BNG3
p5740
ag6
aI422288
a(lp5741
(lp5742
g311
ag312
aS'0.88'
p5743
aa(lp5744
g371
ag372
aS'0.83'
p5745
aa(lp5746
g375
ag376
aS'0.83'
p5747
aaaa(lp5748
VA7BMF4_9GAMM
p5749
aVA7BMF4
p5750
ag6
aI422288
a(lp5751
(lp5752
g307
ag308
aS'0.88'
p5753
aa(lp5754
g311
ag312
aS'0.37'
p5755
aaaas.