(dp0
S'result'
p1
(lp2
(lp3
VF1SU64_PIG
p4
aVF1SU64
p5
aVSus scrofa
p6
aI9823
a(lp7
(lp8
VGO:0019911
p9
aVstructural constituent of myelin sheath
p10
aS'0.82'
p11
aa(lp12
VGO:0008119
p13
aVthiopurine S-methyltransferase activity
p14
aS'0.05'
p15
aaaa(lp16
VF1RMG9_PIG
p17
aVF1RMG9
p18
ag6
aI9823
a(lp19
(lp20
g9
ag10
aS'0.78'
p21
aa(lp22
g13
ag14
aS'0.21'
p23
aa(lp24
VGO:0042169
p25
aVSH2 domain binding
p26
aS'0.18'
p27
aa(lp28
VGO:0015267
p29
aVchannel activity
p30
aS'0.18'
p31
aa(lp32
VGO:0016505
p33
aVpeptidase activator activity involved in apoptotic process
p34
aS'0.18'
p35
aa(lp36
VGO:0015075
p37
aVion transmembrane transporter activity
p38
aS'0.18'
p39
aa(lp40
VGO:0005509
p41
aVcalcium ion binding
p42
aS'0.18'
p43
aa(lp44
VGO:0042802
p45
aVidentical protein binding
p46
aS'0.18'
p47
aa(lp48
VGO:0032403
p49
aVprotein complex binding
p50
aS'0.18'
p51
aa(lp52
VGO:0017075
p53
aVsyntaxin-1 binding
p54
aS'0.18'
p55
aa(lp56
VGO:0047485
p57
aVprotein N-terminus binding
p58
aS'0.18'
p59
aa(lp60
VGO:0015485
p61
aVcholesterol binding
p62
aS'0.18'
p63
aa(lp64
VGO:0019956
p65
aVchemokine binding
p66
aS'0.18'
p67
aaaa(lp68
VF1SKR1_PIG
p69
aVF1SKR1
p70
ag6
aI9823
a(lp71
(lp72
g9
ag10
aS'0.78'
p73
aa(lp74
g13
ag14
aS'0.21'
p75
aa(lp76
g25
ag26
aS'0.18'
p77
aa(lp78
g29
ag30
aS'0.18'
p79
aa(lp80
g33
ag34
aS'0.18'
p81
aa(lp82
g37
ag38
aS'0.18'
p83
aa(lp84
g41
ag42
aS'0.18'
p85
aa(lp86
g45
ag46
aS'0.18'
p87
aa(lp88
g49
ag50
aS'0.18'
p89
aa(lp90
g53
ag54
aS'0.18'
p91
aa(lp92
g57
ag58
aS'0.18'
p93
aa(lp94
g61
ag62
aS'0.18'
p95
aa(lp96
g65
ag66
aS'0.18'
p97
aaaa(lp98
VF1RF33_PIG
p99
aVF1RF33
p100
ag6
aI9823
a(lp101
(lp102
g9
ag10
aS'0.82'
p103
aa(lp104
g13
ag14
aS'0.15'
p105
aaaa(lp106
VF1SKR4_PIG
p107
aVF1SKR4
p108
ag6
aI9823
a(lp109
(lp110
g9
ag10
aS'0.91'
p111
aa(lp112
g13
ag14
aS'0.27'
p113
aa(lp114
g25
ag26
aS'0.21'
p115
aa(lp116
g29
ag30
aS'0.21'
p117
aa(lp118
g33
ag34
aS'0.21'
p119
aa(lp120
g37
ag38
aS'0.21'
p121
aa(lp122
g41
ag42
aS'0.21'
p123
aa(lp124
g45
ag46
aS'0.21'
p125
aa(lp126
g49
ag50
aS'0.21'
p127
aa(lp128
g53
ag54
aS'0.21'
p129
aa(lp130
g57
ag58
aS'0.21'
p131
aa(lp132
g61
ag62
aS'0.21'
p133
aa(lp134
g65
ag66
aS'0.21'
p135
aaaa(lp136
VF1RNK3_PIG
p137
aVF1RNK3
p138
ag6
aI9823
a(lp139
(lp140
g9
ag10
aS'0.91'
p141
aa(lp142
g13
ag14
aS'0.23'
p143
aaaa(lp144
VF1SKR2_PIG
p145
aVF1SKR2
p146
ag6
aI9823
a(lp147
(lp148
g9
ag10
aS'0.91'
p149
aa(lp150
g13
ag14
aS'0.26'
p151
aa(lp152
g25
ag26
aS'0.2'
p153
aa(lp154
g29
ag30
aS'0.2'
p155
aa(lp156
g33
ag34
aS'0.2'
p157
aa(lp158
g37
ag38
aS'0.2'
p159
aa(lp160
g41
ag42
aS'0.2'
p161
aa(lp162
g45
ag46
aS'0.2'
p163
aa(lp164
g49
ag50
aS'0.2'
p165
aa(lp166
g53
ag54
aS'0.2'
p167
aa(lp168
g57
ag58
aS'0.2'
p169
aa(lp170
g61
ag62
aS'0.2'
p171
aa(lp172
g65
ag66
aS'0.2'
p173
aaaa(lp174
VF1S8X5_PIG
p175
aVF1S8X5
p176
ag6
aI9823
a(lp177
(lp178
g9
ag10
aS'0.81'
p179
aa(lp180
g13
ag14
aS'0.14'
p181
aaaa(lp182
VF1SKR8_PIG
p183
aVF1SKR8
p184
ag6
aI9823
a(lp185
(lp186
g9
ag10
aS'0.78'
p187
aa(lp188
g13
ag14
aS'0.27'
p189
aaaa(lp190
VF1S3D3_PIG
p191
aVF1S3D3
p192
ag6
aI9823
a(lp193
(lp194
g9
ag10
aS'0.79'
p195
aa(lp196
g13
ag14
aS'0.3'
p197
aaaa(lp198
VC3UP60_PIG
p199
aVC3UP60
p200
ag6
aI9823
a(lp201
(lp202
g9
ag10
aS'0.83'
p203
aa(lp204
g25
ag26
aS'0.05'
p205
aa(lp206
g65
ag66
aS'0.05'
p207
aa(lp208
g45
ag46
aS'0.04'
p209
aa(lp210
g49
ag50
aS'0.04'
p211
aa(lp212
g53
ag54
aS'0.04'
p213
aa(lp214
g57
ag58
aS'0.04'
p215
aaaasS'downloadfile'
p216
S'/data_more/SIFER_webserver/src/sifter_webserver/sifter_web/output/1911203_download.txt'
p217
s.