(dp0
S'result'
p1
(lp2
(lp3
VA8WRK7_CAEBR
p4
aVA8WRK7
p5
aVCaenorhabditis briggsae
p6
aI6238
a(lp7
(lp8
VGO:0015349
p9
aVthyroid hormone transmembrane transporter activity
p10
aS'0.82'
p11
aa(lp12
VGO:0015132
p13
aVprostaglandin transmembrane transporter activity
p14
aS'0.22'
p15
aa(lp16
VGO:0015125
p17
aVbile acid transmembrane transporter activity
p18
aS'0.19'
p19
aa(lp20
VGO:0015238
p21
aVdrug transmembrane transporter activity
p22
aS'0.18'
p23
aa(lp24
VGO:0015198
p25
aVoligopeptide transporter activity
p26
aS'0.18'
p27
aa(lp28
VGO:0015347
p29
aVsodium-independent organic anion transmembrane transporter activity
p30
aS'0.18'
p31
aaaa(lp32
VH2XWZ2_CIOIN
p33
aVH2XWZ2
p34
aVCiona intestinalis
p35
aI7719
a(lp36
(lp37
g9
ag10
aS'0.81'
p38
aa(lp39
g13
ag14
aS'0.45'
p40
aaaa(lp41
VI1FF21_AMPQE
p42
aVI1FF21
p43
aVAmphimedon queenslandica
p44
aI400682
a(lp45
(lp46
g9
ag10
aS'0.78'
p47
aa(lp48
g17
ag18
aS'0.77'
p49
aaaa(lp50
VB7P3S5_IXOSC
p51
aVB7P3S5
p52
aVIxodes scapularis
p53
aI6945
a(lp54
(lp55
g9
ag10
aS'0.88'
p56
aa(lp57
g17
ag18
aS'0.85'
p58
aa(lp59
g13
ag14
aS'0.76'
p60
aaaa(lp61
VF6SFJ8_ORNAN
p62
aVF6SFJ8
p63
aVOrnithorhynchus anatinus
p64
aI9258
a(lp65
(lp66
g17
ag18
aS'0.91'
p67
aa(lp68
g29
ag30
aS'0.74'
p69
aaaa(lp70
VG5BJ45_HETGA
p71
aVG5BJ45
p72
aVHeterocephalus glaber
p73
aI10181
a(lp74
(lp75
g29
ag30
aS'0.88'
p76
aa(lp77
g17
ag18
aS'0.84'
p78
aaaa(lp79
VA8WRK7
p80
aS'?'
p81
ag81
ag81
a(lp82
aa(lp83
VB7P3S5
p84
ag81
ag81
ag81
a(lp85
aas.