(dp0
S'result'
p1
(lp2
(lp3
V1B48_HUMAN
p4
aVP30486
p5
aVHomo sapiens
p6
aI9606
a(lp7
(lp8
VGO:0042605
p9
aVpeptide antigen binding
p10
aS'0.9'
p11
aa(lp12
VGO:0032395
p13
aVMHC class II receptor activity
p14
aS'0.76'
p15
aa(lp16
VGO:0046982
p17
aVprotein heterodimerization activity
p18
aS'0.75'
p19
aa(lp20
VGO:0030881
p21
aVbeta-2-microglobulin binding
p22
aS'0.75'
p23
aaaasS'downloadfile'
p24
S'/data_more/SIFER_webserver/src/sifter_webserver/sifter_web/output/2268079_download.txt'
p25
s.