(dp0
S'result'
p1
(lp2
(lp3
VGR43A_DROME
p4
aVQ9V4K2
p5
aVDrosophila melanogaster
p6
aI7227
a(lp7
(lp8
VGO:0033038
p9
aVbitter taste receptor activity
p10
aS'0.82'
p11
aa(lp12
VGO:0009882
p13
aVblue light photoreceptor activity
p14
aS'0.05'
p15
aa(lp16
VGO:0046982
p17
aVprotein heterodimerization activity
p18
aS'0.05'
p19
aa(lp20
VGO:0004984
p21
aVolfactory receptor activity
p22
aS'0.05'
p23
aaaasS'downloadfile'
p24
S'/data_more/SIFER_webserver/src/sifter_webserver/sifter_web/output/2381026_download.txt'
p25
s.