(dp0
S'result'
p1
(lp2
(lp3
VA8WRK7_CAEBR
p4
aVA8WRK7
p5
aVCaenorhabditis briggsae
p6
aI6238
a(lp7
(lp8
VGO:0015349
p9
aVthyroid hormone transmembrane transporter activity
p10
aS'0.76'
p11
aa(lp12
VGO:0015132
p13
aVprostaglandin transmembrane transporter activity
p14
aS'0.04'
p15
aaaas.