(dp0
S'result'
p1
(lp2
(lp3
Vseq1
p4
a(lp5
(lp6
VE3MMF1_CAERE
p7
aVE3MMF1
p8
aVCaenorhabditis remanei
p9
aI31234
aS'1258'
p10
aS'0.00e+00'
p11
aS'95'
p12
aS'98'
p13
a(lp14
(lp15
VGO:0015349
p16
aVthyroid hormone transmembrane transporter activity
p17
aS'0.82'
p18
aa(lp19
VGO:0015132
p20
aVprostaglandin transmembrane transporter activity
p21
aS'0.22'
p22
aa(lp23
VGO:0015125
p24
aVbile acid transmembrane transporter activity
p25
aS'0.19'
p26
aa(lp27
VGO:0015238
p28
aVdrug transmembrane transporter activity
p29
aS'0.18'
p30
aa(lp31
VGO:0015198
p32
aVoligopeptide transporter activity
p33
aS'0.18'
p34
aa(lp35
VGO:0015347
p36
aVsodium-independent organic anion transmembrane transporter activity
p37
aS'0.18'
p38
aaaa(lp39
VG0MHZ3_CAEBE
p40
aVG0MHZ3
p41
aVCaenorhabditis brenneri
p42
aI135651
aS'1237'
p43
aS'0.00e+00'
p44
aS'93'
p45
aS'98'
p46
a(lp47
(lp48
g16
ag17
aS'0.82'
p49
aa(lp50
g20
ag21
aS'0.22'
p51
aa(lp52
g24
ag25
aS'0.19'
p53
aa(lp54
g28
ag29
aS'0.18'
p55
aa(lp56
g32
ag33
aS'0.18'
p57
aa(lp58
g36
ag37
aS'0.18'
p59
aaaa(lp60
VQ93550_CAEEL
p61
aVQ93550
p62
aVCaenorhabditis elegans
p63
aI6239
aS'1230'
p64
aS'0.00e+00'
p65
aS'92'
p66
aS'98'
p67
a(lp68
(lp69
g16
ag17
aS'0.82'
p70
aa(lp71
g20
ag21
aS'0.22'
p72
aa(lp73
g28
ag29
aS'0.18'
p74
aa(lp75
g24
ag25
aS'0.18'
p76
aa(lp77
g32
ag33
aS'0.18'
p78
aa(lp79
g36
ag37
aS'0.18'
p80
aaaa(lp81
VE1FKB9_LOALO
p82
aVE1FKB9
p83
aVLoa loa
p84
aI7209
aS'561'
p85
aS'0.00e+00'
p86
aS'45'
p87
aS'95'
p88
a(lp89
(lp90
g16
ag17
aS'0.82'
p91
aa(lp92
g20
ag21
aS'0.21'
p93
aa(lp94
g28
ag29
aS'0.18'
p95
aa(lp96
g24
ag25
aS'0.18'
p97
aa(lp98
g32
ag33
aS'0.18'
p99
aa(lp100
g36
ag37
aS'0.18'
p101
aaaa(lp102
VA8PR64_BRUMA
p103
aVA8PR64
p104
aVBrugia malayi
p105
aI6279
aS'502'
p106
aS'2.35e-166'
p107
aS'43'
p108
aS'99'
p109
a(lp110
(lp111
g16
ag17
aS'0.82'
p112
aa(lp113
g20
ag21
aS'0.22'
p114
aa(lp115
g24
ag25
aS'0.19'
p116
aa(lp117
g28
ag29
aS'0.18'
p118
aa(lp119
g32
ag33
aS'0.18'
p120
aa(lp121
g36
ag37
aS'0.18'
p122
aaaa(lp123
VE5SJE0_TRISP
p124
aVE5SJE0
p125
aVTrichinella spiralis
p126
aI6334
aS'394'
p127
aS'6.13e-125'
p128
aS'40'
p129
aS'84'
p130
a(lp131
(lp132
g16
ag17
aS'0.81'
p133
aa(lp134
g20
ag21
aS'0.22'
p135
aa(lp136
g24
ag25
aS'0.19'
p137
aa(lp138
g36
ag37
aS'0.19'
p139
aa(lp140
g28
ag29
aS'0.18'
p141
aa(lp142
g32
ag33
aS'0.18'
p143
aaaa(lp144
VE5SJD8_TRISP
p145
aVE5SJD8
p146
ag126
aI6334
aS'366'
p147
aS'6.49e-114'
p148
aS'47'
p149
aS'62'
p150
a(lp151
(lp152
g16
ag17
aS'0.81'
p153
aa(lp154
g20
ag21
aS'0.19'
p155
aa(lp156
g24
ag25
aS'0.16'
p157
aa(lp158
g28
ag29
aS'0.15'
p159
aa(lp160
g32
ag33
aS'0.15'
p161
aa(lp162
g36
ag37
aS'0.15'
p163
aaaa(lp164
VC3Y4T6_BRAFL
p165
aVC3Y4T6
p166
aVBranchiostoma floridae
p167
aI7739
aS'274'
p168
aS'3.27e-79'
p169
aS'29'
p170
aS'89'
p171
a(lp172
(lp173
g16
ag17
aS'0.81'
p174
aa(lp175
g20
ag21
aS'0.19'
p176
aaaa(lp177
VA4IIQ0_XENTR
p178
aVA4IIQ0
p179
aVXenopus (Silurana) tropicalis
p180
aI8364
aS'267'
p181
aS'4.54e-76'
p182
aS'28'
p183
aS'96'
p184
a(lp185
(lp186
g20
ag21
aS'0.91'
p187
aa(lp188
g36
ag37
aS'0.48'
p189
aaaa(lp190
VE1C5S3_CHICK
p191
aVE1C5S3
p192
aVGallus gallus
p193
aI9031
aS'260'
p194
aS'2.00e-73'
p195
aS'28'
p196
aS'93'
p197
a(lp198
(lp199
g20
ag21
aS'0.91'
p200
aa(lp201
g36
ag37
aS'0.45'
p202
aaaa(lp203
VA4IG10_DANRE
p204
aVA4IG10
p205
aVDanio rerio
p206
aI7955
aS'259'
p207
aS'3.73e-73'
p208
aS'29'
p209
aS'93'
p210
a(lp211
(lp212
g20
ag21
aS'0.84'
p213
aa(lp214
g36
ag37
aS'0.75'
p215
aaaa(lp216
VF1Q4Y9_DANRE
p217
aVF1Q4Y9
p218
ag206
aI7955
aS'259'
p219
aS'7.22e-73'
p220
aS'29'
p221
aS'93'
p222
a(lp223
(lp224
g20
ag21
aS'0.82'
p225
aa(lp226
g36
ag37
aS'0.75'
p227
aaaa(lp228
VG1SCG0_RABIT
p229
aVG1SCG0
p230
aVOryctolagus cuniculus
p231
aI9986
aS'253'
p232
aS'6.73e-71'
p233
aS'29'
p234
aS'98'
p235
a(lp236
(lp237
g20
ag21
aS'0.91'
p238
aa(lp239
g24
ag25
aS'0.15'
p240
aaaa(lp241
VQ5FX75_CANFA
p242
aVQ5FX75
p243
aVCanis lupus familiaris
p244
aI9615
aS'251'
p245
aS'2.22e-70'
p246
aS'29'
p247
aS'94'
p248
a(lp249
(lp250
g20
ag21
aS'0.91'
p251
aa(lp252
g24
ag25
aS'0.15'
p253
aaaa(lp254
VH9J2D0_BOMMO
p255
aVH9J2D0
p256
aVBombyx mori
p257
aI7091
aS'256'
p258
aS'5.11e-70'
p259
aS'27'
p260
aS'94'
p261
a(lp262
(lp263
g16
ag17
aS'0.79'
p264
aa(lp265
g24
ag25
aS'0.76'
p266
aaaa(lp267
VG5BQA6_HETGA
p268
aVG5BQA6
p269
aVHeterocephalus glaber
p270
aI10181
aS'245'
p271
aS'2.37e-68'
p272
aS'29'
p273
aS'93'
p274
a(lp275
(lp276
g20
ag21
aS'0.91'
p277
aa(lp278
g24
ag25
aS'0.16'
p279
aaaaaasS'downloadfile'
p280
S'/lab/64/app/python/python_mohammad/SIFTER_jobs/webserver/sample_webs/SIFTER_webserver/sifter_web/output/2616866_download.txt'
p281
s.