(dp0
S'result'
p1
(lp2
(lp3
VF1RN62_PIG
p4
aVF1RN62
p5
aVSus scrofa
p6
aI9823
a(lp7
(lp8
VGO:0015349
p9
aVthyroid hormone transmembrane transporter activity
p10
aS'0.79'
p11
aa(lp12
VGO:0015132
p13
aVprostaglandin transmembrane transporter activity
p14
aS'0.77'
p15
aaaa(lp16
VA8WRK7_CAEBR
p17
aVA8WRK7
p18
aVCaenorhabditis briggsae
p19
aI6238
a(lp20
(lp21
g9
ag10
aS'0.82'
p22
aa(lp23
g13
ag14
aS'0.22'
p24
aa(lp25
VGO:0015125
p26
aVbile acid transmembrane transporter activity
p27
aS'0.19'
p28
aa(lp29
VGO:0015238
p30
aVdrug transmembrane transporter activity
p31
aS'0.18'
p32
aa(lp33
VGO:0015198
p34
aVoligopeptide transporter activity
p35
aS'0.18'
p36
aa(lp37
VGO:0015347
p38
aVsodium-independent organic anion transmembrane transporter activity
p39
aS'0.18'
p40
aaaa(lp41
VH3J4I4_STRPU
p42
aVH3J4I4
p43
aVStrongylocentrotus purpuratus
p44
aI7668
a(lp45
(lp46
g9
ag10
aS'0.81'
p47
aa(lp48
g13
ag14
aS'0.37'
p49
aaaa(lp50
VQ8K4K9_RAT
p51
aVQ8K4K9
p52
aVRattus norvegicus
p53
aI10116
a(lp54
(lp55
g9
ag10
aS'0.75'
p56
aa(lp57
g13
ag14
aS'0.71'
p58
aaaa(lp59
VH3IQD9_STRPU
p60
aVH3IQD9
p61
ag44
aI7668
a(lp62
(lp63
g9
ag10
aS'0.84'
p64
aa(lp65
g13
ag14
aS'0.72'
p66
aaaa(lp67
VG1TI46_RABIT
p68
aVG1TI46
p69
aVOryctolagus cuniculus
p70
aI9986
a(lp71
(lp72
g9
ag10
aS'0.82'
p73
aa(lp74
g13
ag14
aS'0.25'
p75
aaaa(lp76
VSO4A1_MOUSE
p77
aVQ8K078
p78
aVMus musculus
p79
aI10090
a(lp80
(lp81
g9
ag10
aS'0.84'
p82
aa(lp83
g13
ag14
aS'0.81'
p84
aaaa(lp85
VG3UKL3_LOXAF
p86
aVG3UKL3
p87
aVLoxodonta africana
p88
aI9785
a(lp89
(lp90
g9
ag10
aS'0.89'
p91
aa(lp92
g13
ag14
aS'0.29'
p93
aaaa(lp94
VB7P3S5_IXOSC
p95
aVB7P3S5
p96
aVIxodes scapularis
p97
aI6945
a(lp98
(lp99
g9
ag10
aS'0.88'
p100
aa(lp101
g26
ag27
aS'0.85'
p102
aa(lp103
g13
ag14
aS'0.76'
p104
aaaa(lp105
VG2HJC6_PANTR
p106
aVG2HJC6
p107
aVPan troglodytes
p108
aI9598
a(lp109
(lp110
g13
ag14
aS'0.91'
p111
aa(lp112
g26
ag27
aS'0.16'
p113
aaaa(lp114
VF1SLA4_PIG
p115
aVF1SLA4
p116
ag6
aI9823
a(lp117
(lp118
g13
ag14
aS'0.82'
p119
aa(lp120
g26
ag27
aS'0.11'
p121
aaaa(lp122
VC9JHU9_HUMAN
p123
aVC9JHU9
p124
aVHomo sapiens
p125
aI9606
a(lp126
(lp127
g26
ag27
aS'0.82'
p128
aa(lp129
g38
ag39
aS'0.12'
p130
aaaa(lp131
VH2Q5K4_PANTR
p132
aVH2Q5K4
p133
ag108
aI9598
a(lp134
(lp135
g26
ag27
aS'0.91'
p136
aa(lp137
g38
ag39
aS'0.7'
p138
aaaa(lp139
VG3QGZ3_GORGO
p140
aVG3QGZ3
p141
aVGorilla gorilla gorilla
p142
aI9595
a(lp143
(lp144
g9
ag10
aS'0.8'
p145
aa(lp146
g13
ag14
aS'0.67'
p147
aaaa(lp148
VB4KXF0_DROMO
p149
aVB4KXF0
p150
aVDrosophila mojavensis
p151
aI7230
a(lp152
(lp153
g9
ag10
aS'0.8'
p154
aa(lp155
g13
ag14
aS'0.78'
p156
aaaa(lp157
VH3INQ6_STRPU
p158
aVH3INQ6
p159
ag44
aI7668
a(lp160
(lp161
g9
ag10
aS'0.89'
p162
aa(lp163
VGO:0004867
p164
aVserine-type endopeptidase inhibitor activity
p165
aS'0.69'
p166
aaaa(lp167
VD3YXA8_MOUSE
p168
aVD3YXA8
p169
ag79
aI10090
a(lp170
(lp171
g9
ag10
aS'0.8'
p172
aa(lp173
g13
ag14
aS'0.76'
p174
aaaa(lp175
VH0YGD2_HUMAN
p176
aV
p177
aVunclassified
p178
aI0
a(lp179
(lp180
g26
ag27
aS'0.81'
p181
aa(lp182
g38
ag39
aS'0.65'
p183
aaaa(lp184
VE1FV67_LOALO
p185
ag177
ag178
aI0
a(lp186
(lp187
g9
ag10
aS'0.81'
p188
aa(lp189
g13
ag14
aS'0.42'
p190
aaaa(lp191
VG7PC00_MACFA
p192
aVG7PC00
p193
aVMacaca fascicularis
p194
aI9541
a(lp195
(lp196
g9
ag10
aS'0.86'
p197
aa(lp198
g13
ag14
aS'0.32'
p199
aaaa(lp200
VG5BJ45_HETGA
p201
aVG5BJ45
p202
aVHeterocephalus glaber
p203
aI10181
a(lp204
(lp205
g38
ag39
aS'0.88'
p206
aa(lp207
g26
ag27
aS'0.84'
p208
aaaa(lp209
VH2LI10_ORYLA
p210
aVH2LI10
p211
aVOryzias latipes
p212
aI8090
a(lp213
(lp214
g26
ag27
aS'0.91'
p215
aa(lp216
g38
ag39
aS'0.7'
p217
aaaa(lp218
VG1KDM6_ANOCA
p219
aVG1KDM6
p220
aVAnolis carolinensis
p221
aI28377
a(lp222
(lp223
g9
ag10
aS'0.91'
p224
aa(lp225
g13
ag14
aS'0.53'
p226
aaaa(lp227
VB4KJ36_DROMO
p228
aVB4KJ36
p229
ag151
aI7230
a(lp230
(lp231
g9
ag10
aS'0.81'
p232
aa(lp233
g13
ag14
aS'0.31'
p234
aa(lp235
g30
ag31
aS'0.29'
p236
aa(lp237
g26
ag27
aS'0.29'
p238
aa(lp239
g34
ag35
aS'0.29'
p240
aa(lp241
g38
ag39
aS'0.29'
p242
aaaa(lp243
VE3WL16_ANODA
p244
aVE3WL16
p245
aVAnopheles darlingi
p246
aI43151
a(lp247
(lp248
g9
ag10
aS'0.82'
p249
aa(lp250
g13
ag14
aS'0.37'
p251
aaaa(lp252
VC3Y4F8_BRAFL
p253
aVC3Y4F8
p254
aVBranchiostoma floridae
p255
aI7739
a(lp256
(lp257
g9
ag10
aS'0.89'
p258
aa(lp259
g13
ag14
aS'0.84'
p260
aaaa(lp261
VSO1A6_RAT
p262
aVQ9QYE2
p263
ag53
aI10116
a(lp264
(lp265
g26
ag27
aS'0.91'
p266
aa(lp267
g38
ag39
aS'0.45'
p268
aaaa(lp269
VH0VF80_CAVPO
p270
aVH0VF80
p271
aVCavia porcellus
p272
aI10141
a(lp273
(lp274
g26
ag27
aS'0.91'
p275
aa(lp276
g38
ag39
aS'0.48'
p277
aaaa(lp278
VH2TWS2_TAKRU
p279
aVH2TWS2
p280
aVTakifugu rubripes
p281
aI31033
a(lp282
(lp283
g9
ag10
aS'0.91'
p284
aa(lp285
g13
ag14
aS'0.34'
p286
aaaa(lp287
VH3IYT3_STRPU
p288
aVH3IYT3
p289
ag44
aI7668
a(lp290
(lp291
g9
ag10
aS'0.9'
p292
aa(lp293
g13
ag14
aS'0.81'
p294
aaaa(lp295
VH2XWZ2_CIOIN
p296
aVH2XWZ2
p297
aVCiona intestinalis
p298
aI7719
a(lp299
(lp300
g9
ag10
aS'0.81'
p301
aa(lp302
g13
ag14
aS'0.45'
p303
aaaa(lp304
VH0ZDV3_TAEGU
p305
aVH0ZDV3
p306
aVTaeniopygia guttata
p307
aI59729
a(lp308
(lp309
g9
ag10
aS'0.79'
p310
aa(lp311
g13
ag14
aS'0.77'
p312
aaaa(lp313
VB7Q7F9_IXOSC
p314
aVB7Q7F9
p315
ag97
aI6945
a(lp316
(lp317
g9
ag10
aS'0.81'
p318
aa(lp319
g13
ag14
aS'0.33'
p320
aa(lp321
g30
ag31
aS'0.31'
p322
aa(lp323
g26
ag27
aS'0.31'
p324
aa(lp325
g34
ag35
aS'0.31'
p326
aa(lp327
g38
ag39
aS'0.31'
p328
aaaa(lp329
VF7FQD4_CALJA
p330
aVF7FQD4
p331
aVCallithrix jacchus
p332
aI9483
a(lp333
(lp334
g38
ag39
aS'0.81'
p335
aa(lp336
g26
ag27
aS'0.35'
p337
aa(lp338
g13
ag14
aS'0.29'
p339
aaaa(lp340
VC3Y4U1_BRAFL
p341
aVC3Y4U1
p342
ag255
aI7739
a(lp343
(lp344
g9
ag10
aS'0.91'
p345
aa(lp346
g13
ag14
aS'0.5'
p347
aaaa(lp348
VH2TWS4_TAKRU
p349
aVH2TWS4
p350
ag281
aI31033
a(lp351
(lp352
g9
ag10
aS'0.91'
p353
aa(lp354
g13
ag14
aS'0.39'
p355
aaaa(lp356
VH3B9U6_LATCH
p357
aVH3B9U6
p358
aVLatimeria chalumnae
p359
aI7897
a(lp360
(lp361
g9
ag10
aS'0.91'
p362
aa(lp363
g13
ag14
aS'0.33'
p364
aaaa(lp365
VH0WWR0_OTOGA
p366
aVH0WWR0
p367
aVOtolemur garnettii
p368
aI30611
a(lp369
(lp370
g9
ag10
aS'0.8'
p371
aa(lp372
g13
ag14
aS'0.74'
p373
aaaa(lp374
VE4YN72_OIKDI
p375
aVE4YN72
p376
aVOikopleura dioica
p377
aI34765
a(lp378
(lp379
g9
ag10
aS'0.82'
p380
aa(lp381
g13
ag14
aS'0.25'
p382
aaaa(lp383
VQ3B7Q4_DANRE
p384
aVQ3B7Q4
p385
aVDanio rerio
p386
aI7955
a(lp387
(lp388
g38
ag39
aS'0.76'
p389
aa(lp390
g13
ag14
aS'0.42'
p391
aaaa(lp392
VG3R1F3_GORGO
p393
aVG3R1F3
p394
ag142
aI9595
a(lp395
(lp396
g9
ag10
aS'0.91'
p397
aa(lp398
g13
ag14
aS'0.5'
p399
aaaa(lp400
VI1FF21_AMPQE
p401
aVI1FF21
p402
aVAmphimedon queenslandica
p403
aI400682
a(lp404
(lp405
g9
ag10
aS'0.78'
p406
aa(lp407
g26
ag27
aS'0.77'
p408
aaaa(lp409
VB7ZAD4_HUMAN
p410
aVB7ZAD4
p411
ag125
aI9606
a(lp412
(lp413
g26
ag27
aS'0.91'
p414
aa(lp415
g38
ag39
aS'0.09'
p416
aaaa(lp417
VD3YY31_MOUSE
p418
aVD3YY31
p419
ag79
aI10090
a(lp420
(lp421
g9
ag10
aS'0.79'
p422
aa(lp423
g13
ag14
aS'0.47'
p424
aa(lp425
g30
ag31
aS'0.37'
p426
aa(lp427
g26
ag27
aS'0.37'
p428
aa(lp429
g34
ag35
aS'0.37'
p430
aa(lp431
g38
ag39
aS'0.37'
p432
aaaa(lp433
VF6SNS4_XENTR
p434
aVF6SNS4
p435
aVXenopus (Silurana) tropicalis
p436
aI8364
a(lp437
(lp438
g9
ag10
aS'0.82'
p439
aa(lp440
g13
ag14
aS'0.46'
p441
aaaa(lp442
VH2ME23_ORYLA
p443
aVH2ME23
p444
ag212
aI8090
a(lp445
(lp446
g13
ag14
aS'0.83'
p447
aa(lp448
g38
ag39
aS'0.78'
p449
aaaa(lp450
VH2LWA1_ORYLA
p451
aVH2LWA1
p452
ag212
aI8090
a(lp453
(lp454
g26
ag27
aS'0.79'
p455
aa(lp456
g38
ag39
aS'0.74'
p457
aaaa(lp458
VH9GK46_ANOCA
p459
aVH9GK46
p460
ag221
aI28377
a(lp461
(lp462
g13
ag14
aS'0.89'
p463
aa(lp464
g38
ag39
aS'0.45'
p465
aaaa(lp466
VH2WEQ3_CAEJA
p467
aVH2WEQ3
p468
aVCaenorhabditis japonica
p469
aI281687
a(lp470
(lp471
g9
ag10
aS'0.92'
p472
aa(lp473
g13
ag14
aS'0.42'
p474
aa(lp475
g30
ag31
aS'0.38'
p476
aa(lp477
g26
ag27
aS'0.38'
p478
aa(lp479
g34
ag35
aS'0.38'
p480
aa(lp481
g38
ag39
aS'0.38'
p482
aaaa(lp483
VF1PII7_CANFA
p484
ag177
ag178
aI0
a(lp485
(lp486
g9
ag10
aS'0.82'
p487
aa(lp488
g13
ag14
aS'0.16'
p489
aa(lp490
g26
ag27
aS'0.13'
p491
aaaa(lp492
VE1BC23_BOVIN
p493
aVE1BC23
p494
aVBos taurus
p495
aI9913
a(lp496
(lp497
g26
ag27
aS'0.91'
p498
aa(lp499
g38
ag39
aS'0.69'
p500
aaaa(lp501
VF6X5N8_CIOIN
p502
aVF6X5N8
p503
ag298
aI7719
a(lp504
(lp505
g13
ag14
aS'0.8'
p506
aa(lp507
g26
ag27
aS'0.31'
p508
aa(lp509
g30
ag31
aS'0.29'
p510
aa(lp511
g9
ag10
aS'0.29'
p512
aa(lp513
g34
ag35
aS'0.29'
p514
aa(lp515
g38
ag39
aS'0.29'
p516
aaaa(lp517
VQ5JAR4_HUMAN
p518
aVQ5JAR4
p519
ag125
aI9606
a(lp520
(lp521
g26
ag27
aS'0.9'
p522
aa(lp523
g38
ag39
aS'0.85'
p524
aaaa(lp525
VA7SWE4_NEMVE
p526
aVA7SWE4
p527
aVNematostella vectensis
p528
aI45351
a(lp529
(lp530
g26
ag27
aS'0.78'
p531
aa(lp532
g9
ag10
aS'0.78'
p533
aaaa(lp534
VF6X587_XENTR
p535
aVF6X587
p536
ag436
aI8364
a(lp537
(lp538
g9
ag10
aS'0.91'
p539
aa(lp540
g13
ag14
aS'0.32'
p541
aaaa(lp542
VD2HW96_AILME
p543
aVD2HW96
p544
aVAiluropoda melanoleuca
p545
aI9646
a(lp546
(lp547
g9
ag10
aS'0.79'
p548
aa(lp549
g13
ag14
aS'0.77'
p550
aaaa(lp551
VH2T322_TAKRU
p552
aVH2T322
p553
ag281
aI31033
a(lp554
(lp555
g9
ag10
aS'0.82'
p556
aa(lp557
g13
ag14
aS'0.17'
p558
aa(lp559
g26
ag27
aS'0.14'
p560
aa(lp561
g30
ag31
aS'0.13'
p562
aa(lp563
g34
ag35
aS'0.13'
p564
aa(lp565
g38
ag39
aS'0.13'
p566
aaaa(lp567
VE0W488_PEDHC
p568
aVE0W488
p569
aVPediculus humanus corporis
p570
aI121224
a(lp571
(lp572
g9
ag10
aS'0.79'
p573
aa(lp574
g26
ag27
aS'0.76'
p575
aaaa(lp576
VH2YEL7_CIOSA
p577
aVH2YEL7
p578
aVCiona savignyi
p579
aI51511
a(lp580
(lp581
g9
ag10
aS'0.8'
p582
aa(lp583
g13
ag14
aS'0.77'
p584
aaaa(lp585
VG3NKK4_GASAC
p586
aVG3NKK4
p587
aVGasterosteus aculeatus
p588
aI69293
a(lp589
(lp590
g9
ag10
aS'0.91'
p591
aa(lp592
g13
ag14
aS'0.5'
p593
aaaa(lp594
VF4WZT5_ACREC
p595
aVF4WZT5
p596
aVAcromyrmex echinatior
p597
aI103372
a(lp598
(lp599
g9
ag10
aS'0.77'
p600
aa(lp601
g26
ag27
aS'0.72'
p602
aa(lp603
VGO:0019900
p604
aVkinase binding
p605
aS'0.63'
p606
aa(lp607
VGO:0008424
p608
aVglycoprotein 6-alpha-L-fucosyltransferase activity
p609
aS'0.62'
p610
aaaa(lp611
VF7C2I8_MACMU
p612
aVF7C2I8
p613
aVMacaca mulatta
p614
aI9544
a(lp615
(lp616
g9
ag10
aS'0.91'
p617
aa(lp618
g13
ag14
aS'0.55'
p619
aaaa(lp620
VSO1A4_MOUSE
p621
aVQ9EP96
p622
ag79
aI10090
a(lp623
(lp624
g26
ag27
aS'0.87'
p625
aa(lp626
g38
ag39
aS'0.42'
p627
aaaa(lp628
VF1NEX3_CHICK
p629
aVF1NEX3
p630
aVGallus gallus
p631
aI9031
a(lp632
(lp633
g9
ag10
aS'0.91'
p634
aa(lp635
g13
ag14
aS'0.53'
p636
aaaa(lp637
VF6SFJ8_ORNAN
p638
aVF6SFJ8
p639
aVOrnithorhynchus anatinus
p640
aI9258
a(lp641
(lp642
g26
ag27
aS'0.91'
p643
aa(lp644
g38
ag39
aS'0.74'
p645
aaaa(lp646
VH3DF25_TETNG
p647
aVH3DF25
p648
aVTetraodon nigroviridis
p649
aI99883
a(lp650
(lp651
g26
ag27
aS'0.9'
p652
aa(lp653
g38
ag39
aS'0.72'
p654
aaaa(lp655
VQ7PI57_ANOGA
p656
aVQ7PI57
p657
aVAnopheles gambiae
p658
aI7165
a(lp659
(lp660
g13
ag14
aS'0.8'
p661
aa(lp662
g9
ag10
aS'0.79'
p663
aaaa(lp664
VA8WJB0_CAEBR
p665
aVA8WJB0
p666
ag19
aI6238
a(lp667
(lp668
g9
ag10
aS'0.82'
p669
aa(lp670
g13
ag14
aS'0.34'
p671
aaaa(lp672
VH2YTS1_CIOSA
p673
aVH2YTS1
p674
ag579
aI51511
a(lp675
(lp676
g13
ag14
aS'0.84'
p677
aa(lp678
g26
ag27
aS'0.49'
p679
aaaa(lp680
VG1QU38_NOMLE
p681
aVG1QU38
p682
aVNomascus leucogenys
p683
aI61853
a(lp684
(lp685
g13
ag14
aS'0.91'
p686
aa(lp687
g26
ag27
aS'0.17'
p688
aaaa(lp689
VC3YC54_BRAFL
p690
aVC3YC54
p691
ag255
aI7739
a(lp692
(lp693
g9
ag10
aS'0.89'
p694
aa(lp695
g13
ag14
aS'0.83'
p696
aaaa(lp697
VB4GHI4_DROPE
p698
aVB4GHI4
p699
aVDrosophila persimilis
p700
aI7234
a(lp701
(lp702
g9
ag10
aS'0.81'
p703
aa(lp704
g13
ag14
aS'0.35'
p705
aa(lp706
g30
ag31
aS'0.33'
p707
aa(lp708
g26
ag27
aS'0.33'
p709
aa(lp710
g34
ag35
aS'0.33'
p711
aa(lp712
g38
ag39
aS'0.33'
p713
aaaa(lp714
VF7I0Q4_CALJA
p715
aVF7I0Q4
p716
ag332
aI9483
a(lp717
(lp718
g9
ag10
aS'0.79'
p719
aa(lp720
g13
ag14
aS'0.77'
p721
aaaa(lp722
VB0W4W5_CULQU
p723
aVB0W4W5
p724
aVCulex quinquefasciatus
p725
aI7176
a(lp726
(lp727
g9
ag10
aS'0.92'
p728
aa(lp729
g13
ag14
aS'0.63'
p730
aaaa(lp731
VB3RLK6_TRIAD
p732
aVB3RLK6
p733
aVTrichoplax adhaerens
p734
aI10228
a(lp735
(lp736
g9
ag10
aS'0.78'
p737
aa(lp738
g13
ag14
aS'0.57'
p739
aa(lp740
g26
ag27
aS'0.52'
p741
aaaa(lp742
VA2ACT3_MOUSE
p743
ag177
ag178
aI0
a(lp744
(lp745
g9
ag10
aS'0.84'
p746
aa(lp747
g13
ag14
aS'0.81'
p748
aaaa(lp749
VQ148W1_MOUSE
p750
aVQ148W1
p751
ag79
aI10090
a(lp752
(lp753
g9
ag10
aS'0.83'
p754
aa(lp755
g13
ag14
aS'0.25'
p756
aaaa(lp757
VE2BWD4_HARSA
p758
aVE2BWD4
p759
aVHarpegnathos saltator
p760
aI610380
a(lp761
(lp762
g9
ag10
aS'0.91'
p763
aa(lp764
g13
ag14
aS'0.47'
p765
aaaa(lp766
VB3KUC7_HUMAN
p767
aVB3KUC7
p768
ag125
aI9606
a(lp769
(lp770
g9
ag10
aS'0.83'
p771
aa(lp772
g13
ag14
aS'0.25'
p773
aaaa(lp774
VB4HYY3_DROSE
p775
aVB4HYY3
p776
aVDrosophila sechellia
p777
aI7238
a(lp778
(lp779
g26
ag27
aS'0.8'
p780
aa(lp781
g9
ag10
aS'0.77'
p782
aaaa(lp783
VG8F3I8_MACFA
p784
aVG8F3I8
p785
ag194
aI9541
a(lp786
(lp787
g38
ag39
aS'0.82'
p788
aa(lp789
g26
ag27
aS'0.36'
p790
aaaa(lp791
VB4N049_DROWI
p792
aVB4N049
p793
aVDrosophila willistoni
p794
aI7260
a(lp795
(lp796
g9
ag10
aS'0.91'
p797
aa(lp798
g13
ag14
aS'0.46'
p799
aaaa(lp800
VG3WUN1_SARHA
p801
aVG3WUN1
p802
aVSarcophilus harrisii
p803
aI9305
a(lp804
(lp805
g9
ag10
aS'0.91'
p806
aa(lp807
g13
ag14
aS'0.4'
p808
aaaa(lp809
VG3TF40_LOXAF
p810
aVG3TF40
p811
ag88
aI9785
a(lp812
(lp813
g9
ag10
aS'0.82'
p814
aa(lp815
g13
ag14
aS'0.25'
p816
aaaa(lp817
VA7T5W1_NEMVE
p818
aVA7T5W1
p819
ag528
aI45351
a(lp820
(lp821
g9
ag10
aS'0.92'
p822
aa(lp823
g13
ag14
aS'0.48'
p824
aaaas.