(dp0
S'result'
p1
(lp2
(lp3
VI1FF21_AMPQE
p4
aVI1FF21
p5
aVAmphimedon queenslandica
p6
aI400682
a(lp7
(lp8
VGO:0015349
p9
aVthyroid hormone transmembrane transporter activity
p10
aS'0.78'
p11
aa(lp12
VGO:0015125
p13
aVbile acid transmembrane transporter activity
p14
aS'0.77'
p15
aaaa(lp16
VA8WRK7_CAEBR
p17
aVA8WRK7
p18
aVCaenorhabditis briggsae
p19
aI6238
a(lp20
(lp21
g9
ag10
aS'0.82'
p22
aa(lp23
VGO:0015132
p24
aVprostaglandin transmembrane transporter activity
p25
aS'0.22'
p26
aa(lp27
g13
ag14
aS'0.19'
p28
aa(lp29
VGO:0015238
p30
aVdrug transmembrane transporter activity
p31
aS'0.18'
p32
aa(lp33
VGO:0015198
p34
aVoligopeptide transporter activity
p35
aS'0.18'
p36
aa(lp37
VGO:0015347
p38
aVsodium-independent organic anion transmembrane transporter activity
p39
aS'0.18'
p40
aaaas.