(dp0
S'nopreds'
p1
(lp2
S'/data_more/SIFER_webserver/src/sifter_webserver/sifter_web/output/3198789_nopreds.txt'
p3
aI29
asS'result'
p4
(lp5
(lp6
VZDHC3_HUMAN
p7
aVQ9NYG2
p8
aVHomo sapiens
p9
aI9606
a(lp10
(lp11
VGO:0019706
p12
aVprotein-cysteine S-palmitoyltransferase activity
p13
aS'0.93'
p14
aa(lp15
VGO:0004871
p16
aVsignal transducer activity
p17
aS'0.01'
p18
aa(lp19
VGO:0000035
p20
aVacyl binding
p21
aS'0.01'
p22
aa(lp23
VGO:0005515
p24
aVprotein binding
p25
aS'0.01'
p26
aa(lp27
VGO:0015095
p28
aVmagnesium ion transmembrane transporter activity
p29
aS'0.01'
p30
aa(lp31
VGO:0003677
p32
aVDNA binding
p33
aS'0.01'
p34
aaaasS'downloadfile'
p35
S'/data_more/SIFER_webserver/src/sifter_webserver/sifter_web/output/3198789_download.txt'
p36
s.