(lp0
(dp1
VI1FF21_AMPQE
p2
(dp3
I3200
F0.19
sI3297
F0.81
sI3165
F0.19
sI3094
F0.19
sI3101
F0.32
sI3295
F0.19
ssVA8WRK7_CAEBR
p4
(dp5
I3200
F0.18
sI3297
F0.82
sI3165
F0.18
sI3094
F0.19
sI3101
F0.22
sI3295
F0.18
ssVF6SFJ8_ORNAN
p6
(dp7
I3200
F0.04
sI3297
F0.04
sI3165
F0.04
sI3094
F0.79
sI3101
F0.04
sI3295
F0.77
ssa(dp8
g2
I400682
sg4
I6238
sg6
I9258
sa(dp9
g2
VI1FF21
p10
sg4
VA8WRK7
p11
sg6
VF6SFJ8
p12
sa.