(lp0
(dp1
VF8VS27_HUMAN
p2
(dp3
I2197
F0.42
sI1999
F0.77
ssVRM09_HUMAN
p4
(dp5
I527
F0.78
ssVQ71RH4_HUMAN
p6
(dp7
I529
F0.9
sI1515
F0.05
sI1999
F0.86
ssVB1AK63_HUMAN
p8
(dp9
I1999
F0.66
ssVE7ETK0_HUMAN
p10
(dp11
I527
F0.75
ssVB3KS61_HUMAN
p12
(dp13
I646
F0.78
ssVA6NGJ0_HUMAN
p14
(dp15
I544
F0.1
sI7464
F0.79
sI6928
F0.8
ssVEF1D_HUMAN
p16
(dp17
I529
F0.89
sI1515
F0.85
sI1999
F0.9
ssVQ59EF3_HUMAN
p18
(dp19
I2114
F0.13
sI136
F0.77
sI138
F0.36
sI4819
F0.13
sI500
F0.13
sI219
F0.13
sI252
F0.12
ssVIF5A1_HUMAN
p20
(dp21
I8118
F0.76
sI4143
F0.75
ssVC9JJV6_HUMAN
p22
(dp23
I6849
F0.06
sI4827
F0.06
sI3748
F0.06
sI8118
F0.06
sI3048
F0.06
sI1997
F0.06
sI6927
F0.06
sI5617
F0.06
sI4146
F0.06
sI2101
F0.09
sI4822
F0.83
sI3414
F0.06
sI3227
F0.06
ssVCKLF4_HUMAN
p24
(dp25
I6849
F0.13
sI4827
F0.13
sI3748
F0.13
sI8118
F0.13
sI3048
F0.13
sI1997
F0.13
sI6927
F0.13
sI5617
F0.13
sI4146
F0.13
sI2101
F0.81
sI4822
F0.14
sI3414
F0.13
sI3227
F0.13
ssVC9JYW4_HUMAN
p26
(dp27
I7557
F0.16
sI2566
F0.91
sI10217
F0.85
sI7562
F0.16
sI7542
F0.16
sI5847
F0.16
ssVR3HD1_HUMAN
p28
(dp29
I5666
F0.76
sI1222
F0.76
sI7016
F0.76
sI522
F0.76
sI2114
F0.76
sI495
F0.76
sI4816
F0.76
sI18
F0.76
sI6998
F0.76
sI2008
F0.76
ssVQ5T2B5_HUMAN
p30
(dp31
I4816
F0.18
sI1858
F0.13
sI5285
F0.13
sI486
F0.13
sI5039
F0.13
sI5168
F0.13
sI5617
F0.9
sI1488
F0.13
sI5335
F0.13
sI1631
F0.13
ssVTC1D4_HUMAN
p32
(dp33
I544
F0.03
sI7464
F0.78
sI6928
F0.79
ssVSO1A2_HUMAN
p34
(dp35
I3297
F0.02
sI10427
F0.01
sI3101
F0.01
sI3094
F0.83
sI3295
F0.06
ssVC9JYN0_HUMAN
p36
(dp37
I6849
F0.06
sI4827
F0.05
sI3748
F0.05
sI8118
F0.05
sI3048
F0.05
sI1997
F0.05
sI6927
F0.05
sI5617
F0.05
sI4146
F0.05
sI2101
F0.83
sI4822
F0.05
sI3414
F0.07
sI3227
F0.05
ssVQ63HP3_HUMAN
p38
(dp39
I3200
F0.05
sI3297
F0.83
sI3165
F0.05
sI3094
F0.07
sI3101
F0.16
sI3295
F0.07
ssVH7C1J0_HUMAN
p40
(dp41
I4816
F0.11
sI1858
F0.11
sI5285
F0.11
sI486
F0.11
sI5039
F0.91
sI5168
F0.11
sI5617
F0.11
sI1488
F0.25
sI5335
F0.11
sI1631
F0.11
ssVE9PG42_HUMAN
p42
(dp43
I5666
F0.76
sI1222
F0.76
sI7016
F0.76
sI522
F0.76
sI2114
F0.76
sI495
F0.76
sI4816
F0.76
sI18
F0.76
sI6998
F0.76
sI2008
F0.76
ssVE9PEZ1_HUMAN
p44
(dp45
I1857
F0.01
sI5039
F0.03
sI10239
F0.01
sI7087
F0.02
sI5168
F0.03
sI5617
F0.43
sI5335
F0.05
sI4027
F0.01
sI4816
F0.91
sI1565
F0.01
sI5285
F0.03
ssVB4DJE6_HUMAN
p46
(dp47
I3297
F0.03
sI10427
F0.01
sI3101
F0.01
sI3094
F0.83
sI3295
F0.08
ssVNAF1_HUMAN
p48
(dp49
I6222
F0.78
sI1999
F0.79
ssVQ75MH1_HUMAN
p50
(dp51
I521
F0.01
sI1999
F0.87
sI527
F0.01
ssVB7ZAD4_HUMAN
p52
(dp53
I3297
F0.03
sI10427
F0.01
sI3101
F0.01
sI3094
F0.83
sI3295
F0.08
ssVQ53S54_HUMAN
p54
(dp55
I4816
F0.4
sI1858
F0.29
sI5285
F0.43
sI486
F0.3
sI5039
F0.74
sI5168
F0.39
sI5617
F0.73
sI1488
F0.54
sI5335
F0.41
sI1631
F0.29
ssVD6RCF4_HUMAN
p56
(dp57
I6928
F0.66
sI9447
F0.62
ssVQ6NUN2_HUMAN
p58
(dp59
I5666
F0.59
sI1222
F0.59
sI7016
F0.59
sI522
F0.59
sI2114
F0.75
sI495
F0.59
sI4816
F0.75
sI18
F0.59
sI6998
F0.59
sI2008
F0.59
ssVH0YEP3_HUMAN
p60
(dp61
I70
F0.05
sI6927
F0.93
sI4976
F0.05
sI915
F0.2
sI2197
F0.05
sI215
F0.05
sI2170
F0.05
sI476
F0.05
ssVQ5VTU5_HUMAN
p62
(dp63
I544
F0.18
sI7464
F0.79
sI6928
F0.79
ssVCKLF8_HUMAN
p64
(dp65
I6849
F0.07
sI4827
F0.07
sI3748
F0.07
sI8118
F0.07
sI3048
F0.07
sI1997
F0.07
sI6927
F0.07
sI5617
F0.07
sI4146
F0.07
sI2101
F0.15
sI4822
F0.82
sI3414
F0.07
sI3227
F0.07
ssVQ5JAR5_HUMAN
p66
(dp67
I3200
F0.02
sI3297
F0.03
sI3165
F0.02
sI3094
F0.81
sI3101
F0.03
sI3295
F0.66
ssVQ5JAR4_HUMAN
p68
(dp69
I3200
F0.04
sI3297
F0.04
sI3165
F0.04
sI3094
F0.92
sI3101
F0.04
sI3295
F0.78
ssVH0Y9Q1_HUMAN
p70
(dp71
I70
F0.24
sI6927
F0.45
sI4976
F0.24
sI915
F0.94
sI2197
F0.24
sI215
F0.04
sI2170
F0.24
sI476
F0.04
ssVSO2A1_HUMAN
p72
(dp73
I3101
F0.83
sI3094
F0.03
ssVPUR6_HUMAN
p74
(dp75
I1308
F0.93
sI1309
F0.87
sI6927
F0.93
ssVE9PPU8_HUMAN
p76
(dp77
I3297
F0.01
sI3101
F0.29
sI3094
F0.45
sI3295
F0.81
ssVB4DS32_HUMAN
p78
(dp79
I2376
F0.01
sI2009
F0.01
sI1699
F0.01
sI2190
F0.87
sI6886
F0.01
ssVE9PIU9_HUMAN
p80
(dp81
I10232
F0.01
sI3101
F0.18
sI3094
F0.25
sI3295
F0.82
ssVF5H060_HUMAN
p82
(dp83
I3200
F0.02
sI3297
F0.06
sI3165
F0.02
sI3094
F0.83
sI3101
F0.03
sI3295
F0.13
ssVF2Z2T2_HUMAN
p84
(dp85
I6928
F0.57
sI482
F0.54
sI4819
F0.57
ssVA3F768_HUMAN
p86
(dp87
I5666
F0.41
sI1222
F0.41
sI7016
F0.42
sI522
F0.41
sI2114
F0.73
sI495
F0.41
sI4816
F0.74
sI18
F0.41
sI6998
F0.42
sI2008
F0.41
ssVSO1B1_HUMAN
p88
(dp89
I10186
F0.01
sI10427
F0.01
sI3094
F0.82
sI3295
F0.23
ssVB4DLA3_HUMAN
p90
(dp91
I4816
F0.01
sI1858
F0.01
sI5285
F0.01
sI486
F0.01
sI5039
F0.01
sI5168
F0.01
sI5617
F0.01
sI1488
F0.92
sI5335
F0.01
sI1631
F0.01
ssVE7EU40_HUMAN
p92
(dp93
I3200
F0.06
sI3297
F0.06
sI3165
F0.06
sI3094
F0.17
sI3101
F0.92
sI3295
F0.06
ssVTEAD4_HUMAN
p94
(dp95
I136
F0.56
sI2114
F0.08
sI4819
F0.08
sI500
F0.03
sI219
F0.03
ssVMADL2_HUMAN
p96
(dp97
I6849
F0.13
sI4827
F0.13
sI3748
F0.13
sI8118
F0.13
sI3048
F0.13
sI1997
F0.13
sI6927
F0.13
sI5617
F0.13
sI4146
F0.13
sI2101
F0.2
sI4822
F0.92
sI3414
F0.13
sI3227
F0.13
ssVB7Z1Y1_HUMAN
p98
(dp99
I4816
F0.11
sI5617
F0.92
sI5285
F0.01
sI4022
F0.01
sI5335
F0.01
ssVQ96L30_HUMAN
p100
(dp101
I6849
F0.24
sI4827
F0.04
sI3748
F0.02
sI8118
F0.16
sI3048
F0.02
sI1997
F0.02
sI6927
F0.03
sI5617
F0.03
sI4146
F0.03
sI2101
F0.81
sI4822
F0.02
sI3414
F0.02
sI3227
F0.02
ssVH3BNA6_HUMAN
p102
(dp103
I6849
F0.24
sI4827
F0.04
sI3748
F0.03
sI8118
F0.17
sI3048
F0.03
sI1997
F0.03
sI6927
F0.04
sI5617
F0.03
sI4146
F0.04
sI2101
F0.82
sI4822
F0.03
sI3414
F0.03
sI3227
F0.03
ssVH7C2F9_HUMAN
p104
(dp105
I5666
F0.76
sI1222
F0.76
sI7016
F0.76
sI522
F0.76
sI2114
F0.76
sI495
F0.76
sI4816
F0.76
sI18
F0.76
sI6998
F0.76
sI2008
F0.76
ssVE9PBB4_HUMAN
p106
(dp107
I5666
F0.76
sI1222
F0.76
sI7016
F0.76
sI522
F0.76
sI2114
F0.76
sI495
F0.76
sI4816
F0.76
sI18
F0.76
sI6998
F0.76
sI2008
F0.76
ssVB4DGA9_HUMAN
p108
(dp109
I3297
F0.01
sI3101
F0.28
sI3094
F0.43
sI3295
F0.82
ssVH7C1L6_HUMAN
p110
(dp111
I1488
F0.05
sI5039
F0.92
ssVMALD2_HUMAN
p112
(dp113
I6849
F0.19
sI4827
F0.19
sI3748
F0.19
sI8118
F0.19
sI3048
F0.19
sI1997
F0.19
sI6927
F0.19
sI5617
F0.19
sI4146
F0.19
sI2101
F0.23
sI4822
F0.78
sI3414
F0.19
sI3227
F0.19
ssVH9KVB1_HUMAN
p114
(dp115
I480
F0.15
sI136
F0.69
sI10058
F0.22
sI7628
F0.26
sI1997
F0.17
sI6928
F0.26
sI4819
F0.2
sI6933
F0.22
sI7063
F0.22
sI2008
F0.15
sI219
F0.24
ssVSPAG7_HUMAN
p116
(dp117
I5666
F0.73
sI1222
F0.73
sI7016
F0.73
sI522
F0.73
sI2114
F0.75
sI495
F0.73
sI4816
F0.76
sI18
F0.73
sI6998
F0.73
sI2008
F0.73
ssVSNG4_HUMAN
p118
(dp119
I6849
F0.12
sI4827
F0.06
sI3748
F0.06
sI8118
F0.08
sI3048
F0.06
sI1997
F0.06
sI6927
F0.06
sI5617
F0.06
sI4146
F0.06
sI2101
F0.83
sI4822
F0.06
sI3414
F0.06
sI3227
F0.06
ssVIF5AL_HUMAN
p120
(dp121
I8118
F0.76
sI4143
F0.33
ssVARP21_HUMAN
p122
(dp123
I5666
F0.76
sI1222
F0.76
sI7016
F0.76
sI522
F0.76
sI2114
F0.76
sI495
F0.76
sI4816
F0.76
sI18
F0.76
sI6998
F0.76
sI2008
F0.76
ssVD3DWK1_HUMAN
p124
(dp125
I529
F0.82
sI1515
F0.78
sI1999
F0.82
ssVCISD1_HUMAN
p126
(dp127
I6928
F0.65
sI9447
F0.62
ssVRL19_HUMAN
p128
(dp129
I516
F0.74
sI527
F0.74
ssVH3BMA8_HUMAN
p130
(dp131
I3200
F0.03
sI3297
F0.04
sI3165
F0.03
sI3094
F0.82
sI3101
F0.04
sI3295
F0.66
ssVB3KU45_HUMAN
p132
(dp133
I4816
F0.85
sI1858
F0.03
sI5285
F0.03
sI486
F0.03
sI5039
F0.03
sI5168
F0.03
sI5617
F0.04
sI1488
F0.78
sI5335
F0.04
sI1631
F0.03
ssVQ96G15_HUMAN
p134
(dp135
I2114
F0.04
sI251
F0.01
sI136
F0.74
sI138
F0.09
sI4819
F0.04
sI500
F0.19
sI219
F0.05
ssVE9PKK7_HUMAN
p136
(dp137
I3984
F0.9
sI4225
F0.92
ssVB5MCD7_HUMAN
p138
(dp139
I6849
F0.15
sI4827
F0.06
sI3748
F0.05
sI8118
F0.09
sI3048
F0.05
sI1997
F0.05
sI6927
F0.05
sI5617
F0.05
sI4146
F0.06
sI2101
F0.83
sI4822
F0.05
sI3414
F0.05
sI3227
F0.05
ssVSO1C1_HUMAN
p140
(dp141
I3200
F0.17
sI3297
F0.17
sI3165
F0.17
sI3094
F0.8
sI3101
F0.17
sI3295
F0.72
ssVQ76N56_HUMAN
p142
(dp143
I521
F0.02
sI1999
F0.86
sI527
F0.01
ssVSNG2L_HUMAN
p144
(dp145
I6849
F0.14
sI4827
F0.07
sI3748
F0.06
sI8118
F0.09
sI3048
F0.06
sI1997
F0.06
sI6927
F0.06
sI5617
F0.06
sI4146
F0.06
sI2101
F0.82
sI4822
F0.06
sI3414
F0.06
sI3227
F0.06
ssVF8VPA7_HUMAN
p146
(dp147
I2197
F0.26
sI1999
F0.78
ssVH7C399_HUMAN
p148
(dp149
I4816
F0.08
sI1858
F0.08
sI5285
F0.08
sI486
F0.08
sI5039
F0.91
sI5168
F0.08
sI5617
F0.08
sI1488
F0.17
sI5335
F0.08
sI1631
F0.08
ssVC9JZL8_HUMAN
p150
(dp151
I6849
F0.19
sI4827
F0.19
sI3748
F0.19
sI8118
F0.19
sI3048
F0.19
sI1997
F0.19
sI6927
F0.19
sI5617
F0.19
sI4146
F0.19
sI2101
F0.2
sI4822
F0.68
sI3414
F0.19
sI3227
F0.19
ssVQ5SZR1_HUMAN
p152
(dp153
I527
F0.78
ssVB4DR09_HUMAN
p154
(dp155
I3200
F0.31
sI3297
F0.92
sI3165
F0.31
sI3094
F0.32
sI3101
F0.48
sI3295
F0.31
ssVB4DGH7_HUMAN
p156
(dp157
I4816
F0.01
sI1858
F0.01
sI5285
F0.01
sI486
F0.01
sI5039
F0.01
sI5168
F0.01
sI5617
F0.31
sI1488
F0.92
sI5335
F0.01
sI1631
F0.01
ssVB4DJH3_HUMAN
p158
(dp159
I3200
F0.02
sI3297
F0.03
sI3165
F0.02
sI3094
F0.32
sI3101
F0.23
sI3295
F0.82
ssVD6RF50_HUMAN
p160
(dp161
I5666
F0.02
sI1222
F0.02
sI7016
F0.02
sI522
F0.02
sI2114
F0.71
sI495
F0.02
sI4816
F0.77
sI18
F0.02
sI6998
F0.02
sI2008
F0.02
ssVC9JHU9_HUMAN
p162
(dp163
I3200
F0.01
sI3297
F0.04
sI3165
F0.01
sI3094
F0.82
sI3101
F0.02
sI3295
F0.12
ssVSO5A1_HUMAN
p164
(dp165
I3200
F0.11
sI3297
F0.83
sI3165
F0.11
sI3094
F0.11
sI3101
F0.25
sI3295
F0.11
ssVQ0VGL9_HUMAN
p166
(dp167
I3200
F0.01
sI3297
F0.01
sI3165
F0.01
sI3094
F0.82
sI3101
F0.01
sI3295
F0.61
ssVB7Z8J8_HUMAN
p168
(dp169
I3200
F0.01
sI3297
F0.01
sI3165
F0.01
sI3094
F0.16
sI3101
F0.92
sI3295
F0.01
ssVB4DT53_HUMAN
p170
(dp171
I2114
F0.01
sI136
F0.74
sI7629
F0.01
sI9423
F0.01
sI6927
F0.02
sI5656
F0.01
sI219
F0.01
sI5647
F0.01
ssVC9K059_HUMAN
p172
(dp173
I3200
F0.01
sI3297
F0.04
sI3165
F0.01
sI3094
F0.83
sI3101
F0.02
sI3295
F0.12
ssVSNG3_HUMAN
p174
(dp175
I6849
F0.28
sI4827
F0.1
sI3748
F0.08
sI8118
F0.21
sI3048
F0.09
sI1997
F0.08
sI6927
F0.09
sI5617
F0.09
sI4146
F0.1
sI2101
F0.81
sI4822
F0.08
sI3414
F0.09
sI3227
F0.09
ssVQ8IWR8_HUMAN
p176
(dp177
I516
F0.67
sI527
F0.74
ssVH0YCA0_HUMAN
p178
(dp179
I4816
F0.04
sI1858
F0.01
sI5285
F0.01
sI486
F0.01
sI5039
F0.01
sI5168
F0.01
sI5617
F0.68
sI1488
F0.01
sI5335
F0.02
sI1631
F0.81
ssVH0YG62_HUMAN
p180
(dp181
I2114
F0.02
sI251
F0.01
sI136
F0.79
sI138
F0.01
sI4819
F0.02
sI500
F0.01
sI219
F0.01
ssVCUL4B_HUMAN
p182
(dp183
I4816
F0.89
sI1858
F0.04
sI5285
F0.89
sI486
F0.04
sI5039
F0.89
sI5168
F0.89
sI5617
F0.9
sI1488
F0.04
sI5335
F0.89
sI1631
F0.04
ssVDYLT3_HUMAN
p184
(dp185
I544
F0.55
sI7464
F0.73
sI6928
F0.74
ssVASND1_HUMAN
p186
(dp187
I3776
F0.53
sI808
F0.75
sI2008
F0.53
sI813
F0.52
ssVD6R9T8_HUMAN
p188
(dp189
I5666
F0.02
sI1222
F0.02
sI7016
F0.03
sI522
F0.02
sI2114
F0.72
sI495
F0.02
sI4816
F0.77
sI18
F0.02
sI6998
F0.02
sI2008
F0.02
ssVMAL2_HUMAN
p190
(dp191
I6849
F0.03
sI4822
F0.74
sI2513
F0.01
sI6927
F0.03
sI5617
F0.03
sI4146
F0.03
sI8118
F0.03
sI2137
F0.01
sI4827
F0.03
ssVF8W9W8_HUMAN
p192
(dp193
I10232
F0.01
sI3243
F0.01
sI10427
F0.01
sI3101
F0.83
sI3094
F0.06
ssVB3KUC7_HUMAN
p194
(dp195
I3200
F0.11
sI3297
F0.83
sI3165
F0.11
sI3094
F0.11
sI3101
F0.25
sI3295
F0.11
ssVSYPL1_HUMAN
p196
(dp197
I6849
F0.19
sI4827
F0.19
sI3748
F0.19
sI8118
F0.19
sI3048
F0.19
sI1997
F0.19
sI6927
F0.19
sI5617
F0.19
sI4146
F0.19
sI2101
F0.79
sI4822
F0.19
sI3414
F0.2
sI3227
F0.19
ssVB5MCM0_HUMAN
p198
(dp199
I2114
F0.01
sI136
F0.25
sI138
F0.07
sI4819
F0.01
sI500
F0.79
sI219
F0.01
sI252
F0.01
ssVB4DQG5_HUMAN
p200
(dp201
I70
F0.11
sI6927
F0.27
sI4976
F0.11
sI915
F0.85
sI2197
F0.11
sI215
F0.01
sI2170
F0.11
sI476
F0.01
ssVB3KPQ3_HUMAN
p202
(dp203
I6849
F0.03
sI4827
F0.03
sI3748
F0.01
sI8118
F0.03
sI3048
F0.01
sI1997
F0.01
sI6927
F0.03
sI5617
F0.03
sI4146
F0.03
sI2101
F0.01
sI4822
F0.81
sI3414
F0.01
sI3227
F0.01
ssVSO1B7_HUMAN
p204
(dp205
I3200
F0.03
sI3297
F0.03
sI3165
F0.03
sI3094
F0.82
sI3101
F0.03
sI3295
F0.66
ssVCHDH_HUMAN
p206
(dp207
I7557
F0.13
sI2566
F0.92
sI10217
F0.86
sI7562
F0.13
sI7542
F0.13
sI5847
F0.13
ssVH0YCZ6_HUMAN
p208
(dp209
I2114
F0.04
sI136
F0.64
sI138
F0.07
sI4819
F0.04
sI500
F0.74
sI219
F0.04
sI252
F0.04
ssVQ53G49_HUMAN
p210
(dp211
I516
F0.72
sI527
F0.74
ssVB4DKT2_HUMAN
p212
(dp213
I4816
F0.05
sI5285
F0.01
sI5039
F0.01
sI5168
F0.01
sI5617
F0.28
sI4022
F0.01
sI5335
F0.01
sI7087
F0.02
ssVC9JGK7_HUMAN
p214
(dp215
I3200
F0.01
sI3297
F0.04
sI3165
F0.01
sI3094
F0.83
sI3101
F0.02
sI3295
F0.12
ssVOCLN_HUMAN
p216
(dp217
I6849
F0.1
sI1985
F0.01
sI3747
F0.01
sI4822
F0.01
sI7585
F0.01
sI6927
F0.1
sI4913
F0.01
sI4146
F0.1
sI5617
F0.1
sI4852
F0.01
sI2101
F0.14
sI8118
F0.1
sI4827
F0.1
ssVF5H094_HUMAN
p218
(dp219
I3200
F0.03
sI3297
F0.03
sI3165
F0.03
sI3094
F0.82
sI3101
F0.03
sI3295
F0.66
ssVH0YGG9_HUMAN
p220
(dp221
I3297
F0.01
sI10427
F0.01
sI3101
F0.01
sI3094
F0.82
sI3295
F0.54
ssVIYD1_HUMAN
p222
(dp223
I10217
F0.01
sI4336
F0.07
sI2897
F0.02
sI1138
F0.89
sI6582
F0.08
sI3799
F0.07
sI6266
F0.07
sI893
F0.07
ssVANC2_HUMAN
p224
(dp225
I4816
F0.01
sI1858
F0.01
sI5285
F0.01
sI486
F0.01
sI5039
F0.01
sI5168
F0.01
sI5617
F0.32
sI1488
F0.78
sI5335
F0.01
sI1631
F0.01
ssVR3HD4_HUMAN
p226
(dp227
I5666
F0.76
sI1222
F0.76
sI7016
F0.76
sI522
F0.76
sI2114
F0.76
sI495
F0.76
sI4816
F0.76
sI18
F0.76
sI6998
F0.76
sI2008
F0.76
ssVH0YE58_HUMAN
p228
(dp229
I529
F0.9
sI1515
F0.03
sI1999
F0.89
ssVSMBP2_HUMAN
p230
(dp231
I5666
F0.77
sI7016
F0.78
sI522
F0.23
sI2114
F0.78
sI495
F0.78
sI4816
F0.74
sI18
F0.77
sI6998
F0.65
sI2008
F0.65
ssVIPO8_HUMAN
p232
(dp233
I2376
F0.87
sI6886
F0.87
ssVH7C2X8_HUMAN
p234
(dp235
I5666
F0.76
sI1222
F0.76
sI7016
F0.76
sI522
F0.76
sI2114
F0.76
sI495
F0.76
sI4816
F0.76
sI18
F0.76
sI6998
F0.76
sI2008
F0.76
ssVIF5A2_HUMAN
p236
(dp237
I8118
F0.75
sI4143
F0.32
ssVQ9H7G6_HUMAN
p238
(dp239
I529
F0.9
sI1515
F0.03
sI1999
F0.86
ssVG3V2B7_HUMAN
p240
(dp241
I3200
F0.12
sI3297
F0.83
sI3165
F0.12
sI3094
F0.12
sI3101
F0.15
sI3295
F0.12
ssVQ5T2B7_HUMAN
p242
(dp243
I4816
F0.11
sI5285
F0.01
sI10239
F0.01
sI7087
F0.02
sI5168
F0.01
sI5617
F0.92
sI1488
F0.01
sI5335
F0.01
sI5039
F0.01
sI1565
F0.01
sI1823
F0.01
ssVPLLP_HUMAN
p244
(dp245
I6849
F0.07
sI4827
F0.07
sI3748
F0.07
sI8118
F0.07
sI3048
F0.07
sI1997
F0.07
sI6927
F0.07
sI5617
F0.07
sI4146
F0.07
sI2101
F0.15
sI4822
F0.82
sI3414
F0.07
sI3227
F0.07
ssVMAL_HUMAN
p246
(dp247
I6849
F0.05
sI4827
F0.05
sI3748
F0.08
sI8118
F0.05
sI6927
F0.05
sI5617
F0.05
sI4146
F0.05
sI4822
F0.82
sI3414
F0.57
sI3227
F0.57
ssVEFTS_HUMAN
p248
(dp249
I2197
F0.45
sI1999
F0.9
ssVCUL7_HUMAN
p250
(dp251
I4816
F0.86
sI1858
F0.01
sI5285
F0.26
sI486
F0.01
sI5039
F0.26
sI5168
F0.26
sI5617
F0.41
sI1488
F0.01
sI5335
F0.28
sI1631
F0.01
ssVF2Z328_HUMAN
p252
(dp253
I544
F0.42
sI7464
F0.75
sI6928
F0.75
ssVTC1D3_HUMAN
p254
(dp255
I544
F0.09
sI7464
F0.8
sI6928
F0.8
ssVA3F769_HUMAN
p256
(dp257
I5666
F0.73
sI1222
F0.73
sI7016
F0.73
sI522
F0.73
sI2114
F0.75
sI495
F0.73
sI4816
F0.75
sI18
F0.73
sI6998
F0.73
sI2008
F0.73
ssVE9PI53_HUMAN
p258
(dp259
I3297
F0.01
sI10427
F0.01
sI3101
F0.15
sI3094
F0.21
sI3295
F0.82
ssVB4DY32_HUMAN
p260
(dp261
I3776
F0.19
sI808
F0.77
sI2008
F0.19
sI813
F0.12
ssVA2I829_HUMAN
p262
(dp263
I5666
F0.32
sI1222
F0.32
sI7016
F0.32
sI522
F0.32
sI2114
F0.72
sI495
F0.32
sI4816
F0.73
sI18
F0.32
sI6998
F0.32
sI2008
F0.32
ssVRS26_HUMAN
p264
(dp265
I521
F0.74
sI1806
F0.01
sI1999
F0.86
ssVH7C4W3_HUMAN
p266
(dp267
I6849
F0.02
sI7585
F0.01
sI1806
F0.01
sI4914
F0.01
sI4852
F0.01
sI2101
F0.06
sI3414
F0.82
sI9877
F0.01
ssVXPO2_HUMAN
p268
(dp269
I2376
F0.33
sI2009
F0.01
sI1699
F0.01
sI2190
F0.87
sI6886
F0.33
ssVE9PN87_HUMAN
p270
(dp271
I10232
F0.01
sI3101
F0.15
sI3094
F0.21
sI3295
F0.82
ssVPEPL1_HUMAN
p272
(dp273
I70
F0.48
sI6927
F0.82
sI4976
F0.48
sI915
F0.52
sI2197
F0.48
sI215
F0.48
sI2170
F0.48
sI476
F0.48
ssVASNS_HUMAN
p274
(dp275
I808
F0.78
ssVCUL1_HUMAN
p276
(dp277
I5168
F0.91
sI5285
F0.91
sI5039
F0.91
sI4816
F0.91
sI5617
F0.91
sI5335
F0.91
ssVB4DHY8_HUMAN
p278
(dp279
I2197
F0.58
sI1999
F0.9
ssVCUL9_HUMAN
p280
(dp281
I4816
F0.89
sI5039
F0.03
sI10239
F0.01
sI7087
F0.02
sI5168
F0.02
sI5617
F0.37
sI4022
F0.01
sI5335
F0.05
sI3227
F0.01
sI1565
F0.01
sI5285
F0.03
ssVTEAD2_HUMAN
p282
(dp283
I2114
F0.01
sI136
F0.43
sI138
F0.05
sI4819
F0.01
sI500
F0.61
sI219
F0.02
ssVAMPL_HUMAN
p284
(dp285
I70
F0.23
sI6927
F0.18
sI4976
F0.23
sI915
F0.75
sI2197
F0.23
sI215
F0.02
sI2170
F0.23
sI476
F0.02
ssVRT16_HUMAN
p286
(dp287
I7088
F0.15
sI1208
F0.14
sI527
F0.6
sI1999
F0.91
ssVB4DM67_HUMAN
p288
(dp289
I2376
F0.09
sI2009
F0.09
sI1699
F0.09
sI2190
F0.85
sI6886
F0.09
ssVQ5VTU3_HUMAN
p290
(dp291
I544
F0.05
sI7464
F0.8
sI6928
F0.8
ssVB4DTB0_HUMAN
p292
(dp293
I3297
F0.01
sI3101
F0.29
sI3094
F0.44
sI3295
F0.82
ssVDYLT1_HUMAN
p294
(dp295
I7464
F0.8
sI6928
F0.81
ssVF5GXY6_HUMAN
p296
(dp297
I3200
F0.02
sI3297
F0.06
sI3165
F0.02
sI3094
F0.82
sI3101
F0.03
sI3295
F0.13
ssVQ2VPV9_HUMAN
p298
(dp299
I10217
F0.01
sI4336
F0.01
sI2897
F0.01
sI1138
F0.95
sI6582
F0.01
sI3799
F0.01
sI6266
F0.01
sI893
F0.01
ssVA8K9U1_HUMAN
p300
(dp301
I4816
F0.92
sI5039
F0.04
sI10239
F0.01
sI7087
F0.02
sI5168
F0.04
sI5617
F0.21
sI4022
F0.01
sI5335
F0.05
sI3227
F0.01
sI1565
F0.01
sI5285
F0.04
ssVC9J5M0_HUMAN
p302
(dp303
I6849
F0.23
sI4827
F0.23
sI3748
F0.23
sI8118
F0.23
sI3048
F0.23
sI1997
F0.23
sI6927
F0.23
sI5617
F0.23
sI4146
F0.23
sI2101
F0.28
sI4822
F0.91
sI3414
F0.23
sI3227
F0.23
ssVRS26L_HUMAN
p304
(dp305
I521
F0.02
sI1999
F0.87
sI527
F0.05
ssVF6RGB9_HUMAN
p306
(dp307
I480
F0.37
sI136
F0.37
sI10058
F0.39
sI7628
F0.39
sI1997
F0.37
sI6928
F0.39
sI4819
F0.39
sI6933
F0.39
sI7063
F0.39
sI2008
F0.37
sI219
F0.38
ssVE9PRY8_HUMAN
p308
(dp309
I529
F0.8
sI1515
F0.61
sI1999
F0.8
ssVEAF6_HUMAN
p310
(dp311
I1999
F0.66
ssVSO4C1_HUMAN
p312
(dp313
I3200
F0.06
sI3297
F0.83
sI3165
F0.06
sI3094
F0.07
sI3101
F0.16
sI3295
F0.07
ssVC9JC07_HUMAN
p314
(dp315
I6849
F0.2
sI4827
F0.2
sI3748
F0.2
sI8118
F0.2
sI3048
F0.2
sI1997
F0.2
sI6927
F0.2
sI5617
F0.2
sI4146
F0.2
sI2101
F0.25
sI4822
F0.92
sI3414
F0.2
sI3227
F0.2
ssVC9J0A2_HUMAN
p316
(dp317
I6849
F0.1
sI4827
F0.09
sI3748
F0.09
sI8118
F0.09
sI3048
F0.09
sI1997
F0.09
sI6927
F0.09
sI5617
F0.09
sI4146
F0.09
sI2101
F0.17
sI4822
F0.09
sI3414
F0.81
sI3227
F0.09
ssVQ05CV5_HUMAN
p318
(dp319
I3200
F0.01
sI3297
F0.01
sI3165
F0.01
sI3094
F0.75
sI3101
F0.01
sI3295
F0.81
ssVCKLF5_HUMAN
p320
(dp321
I6849
F0.15
sI4827
F0.21
sI3748
F0.15
sI8118
F0.15
sI3048
F0.21
sI1997
F0.15
sI6927
F0.15
sI5617
F0.15
sI4146
F0.15
sI2101
F0.68
sI4822
F0.22
sI3414
F0.15
sI3227
F0.15
ssVQ96M12_HUMAN
p322
(dp323
I6849
F0.09
sI4827
F0.09
sI3748
F0.09
sI8118
F0.09
sI3048
F0.09
sI1997
F0.09
sI6927
F0.09
sI5617
F0.09
sI4146
F0.09
sI2101
F0.12
sI4822
F0.8
sI3414
F0.09
sI3227
F0.09
ssVCUL3_HUMAN
p324
(dp325
I5168
F0.8
sI5285
F0.91
sI5039
F0.91
sI4816
F0.8
sI5617
F0.8
sI1488
F0.92
sI5335
F0.8
ssVB4E3M3_HUMAN
p326
(dp327
I3297
F0.01
sI10427
F0.01
sI3101
F0.27
sI3094
F0.41
sI3295
F0.82
ssVE7ESA3_HUMAN
p328
(dp329
I544
F0.21
sI7464
F0.78
sI6928
F0.79
ssVCKLF6_HUMAN
p330
(dp331
I6849
F0.08
sI4827
F0.08
sI3748
F0.08
sI8118
F0.08
sI3048
F0.08
sI1997
F0.08
sI6927
F0.08
sI5617
F0.08
sI4146
F0.08
sI2101
F0.82
sI4822
F0.09
sI3414
F0.08
sI3227
F0.08
ssVF8WEJ5_HUMAN
p332
(dp333
I3776
F0.17
sI808
F0.78
sI2008
F0.17
sI813
F0.03
ssVE9PPJ4_HUMAN
p334
(dp335
I3297
F0.01
sI10427
F0.01
sI3101
F0.27
sI3094
F0.41
sI3295
F0.82
ssVRUNX1_HUMAN
p336
(dp337
I136
F0.74
sI10058
F0.72
sI7628
F0.73
sI1997
F0.65
sI6928
F0.73
sI4819
F0.71
sI6933
F0.72
sI7063
F0.72
sI2008
F0.19
sI219
F0.73
ssVD6RA70_HUMAN
p338
(dp339
I5666
F0.76
sI1222
F0.76
sI7016
F0.76
sI522
F0.76
sI2114
F0.76
sI495
F0.76
sI4816
F0.76
sI18
F0.76
sI6998
F0.76
sI2008
F0.76
ssVE9PPI0_HUMAN
p340
(dp341
I3200
F0.11
sI3297
F0.82
sI3165
F0.11
sI3094
F0.12
sI3101
F0.25
sI3295
F0.12
ssVB4DVE5_HUMAN
p342
(dp343
I2114
F0.01
sI136
F0.74
sI7629
F0.01
sI9423
F0.01
sI6927
F0.02
sI5656
F0.01
sI219
F0.01
sI5647
F0.01
ssVB4DUC5_HUMAN
p344
(dp345
I2376
F0.06
sI2009
F0.06
sI1699
F0.06
sI2190
F0.86
sI6886
F0.06
ssVB4DGY8_HUMAN
p346
(dp347
I3984
F0.9
sI4225
F0.92
ssVF8WDZ3_HUMAN
p348
(dp349
I6849
F0.07
sI4827
F0.07
sI3748
F0.07
sI8118
F0.07
sI3048
F0.07
sI1997
F0.07
sI6927
F0.07
sI5617
F0.07
sI4146
F0.07
sI2101
F0.83
sI4822
F0.08
sI3414
F0.07
sI3227
F0.07
ssVC9JXJ9_HUMAN
p350
(dp351
I10217
F0.12
sI4336
F0.13
sI2897
F0.13
sI1138
F0.93
sI6582
F0.14
sI3799
F0.13
sI6266
F0.13
sI893
F0.13
ssVRS24_HUMAN
p352
(dp353
I527
F0.75
ssVE5KS95_HUMAN
p354
(dp355
I2197
F0.51
sI1999
F0.9
ssVE9PRW4_HUMAN
p356
(dp357
I3297
F0.01
sI3101
F0.29
sI3094
F0.45
sI3295
F0.81
ssVH0YE88_HUMAN
p358
(dp359
I2114
F0.26
sI136
F0.75
sI138
F0.4
sI4819
F0.26
sI500
F0.23
sI219
F0.23
sI252
F0.18
ssVQ5T802_HUMAN
p360
(dp361
I480
F0.37
sI136
F0.38
sI10058
F0.39
sI7628
F0.39
sI1997
F0.37
sI6928
F0.39
sI4819
F0.39
sI6933
F0.39
sI7063
F0.39
sI2008
F0.37
sI219
F0.38
ssVICMT_HUMAN
p362
(dp363
I646
F0.78
ssVQ53GI4_HUMAN
p364
(dp365
I2114
F0.01
sI136
F0.79
sI275
F0.01
sI500
F0.01
sI4819
F0.01
sI219
F0.01
ssVTEAD1_HUMAN
p366
(dp367
I2114
F0.44
sI136
F0.77
sI138
F0.52
sI4819
F0.44
sI500
F0.25
sI219
F0.25
ssVB4DG42_HUMAN
p368
(dp369
I6849
F0.21
sI4827
F0.21
sI3748
F0.21
sI8118
F0.21
sI3048
F0.21
sI1997
F0.21
sI6927
F0.21
sI5617
F0.21
sI4146
F0.21
sI2101
F0.26
sI4822
F0.92
sI3414
F0.21
sI3227
F0.21
ssVB4DM31_HUMAN
p370
(dp371
I2376
F0.06
sI2009
F0.06
sI1699
F0.06
sI2190
F0.86
sI6886
F0.06
ssVD3DQ68_HUMAN
p372
(dp373
I544
F0.13
sI7464
F0.79
sI6928
F0.79
ssVD3DSZ4_HUMAN
p374
(dp375
I3200
F0.11
sI3297
F0.83
sI3165
F0.11
sI3094
F0.14
sI3101
F0.2
sI3295
F0.13
ssVF8WCE4_HUMAN
p376
(dp377
I6849
F0.15
sI4827
F0.06
sI3748
F0.05
sI8118
F0.09
sI3048
F0.05
sI1997
F0.05
sI6927
F0.05
sI5617
F0.05
sI4146
F0.06
sI2101
F0.83
sI4822
F0.05
sI3414
F0.05
sI3227
F0.05
ssVA2A283_HUMAN
p378
(dp379
I6849
F0.15
sI4827
F0.06
sI3748
F0.05
sI8118
F0.09
sI3048
F0.05
sI1997
F0.05
sI6927
F0.06
sI5617
F0.05
sI4146
F0.06
sI2101
F0.83
sI4822
F0.05
sI3414
F0.05
sI3227
F0.05
ssVCUL2_HUMAN
p380
(dp381
I5168
F0.9
sI5285
F0.9
sI5039
F0.9
sI4816
F0.9
sI5617
F0.92
sI5335
F0.92
ssVR3HD2_HUMAN
p382
(dp383
I5666
F0.61
sI1222
F0.61
sI7016
F0.61
sI522
F0.61
sI2114
F0.73
sI495
F0.61
sI4816
F0.75
sI18
F0.61
sI6998
F0.61
sI2008
F0.61
ssVD6RA09_HUMAN
p384
(dp385
I6849
F0.19
sI4827
F0.19
sI3748
F0.19
sI8118
F0.19
sI3048
F0.19
sI1997
F0.19
sI6927
F0.19
sI5617
F0.19
sI4146
F0.19
sI2101
F0.21
sI4822
F0.73
sI3414
F0.19
sI3227
F0.19
ssVE7ERN5_HUMAN
p386
(dp387
I3200
F0.15
sI3297
F0.15
sI3165
F0.15
sI3094
F0.48
sI3101
F0.34
sI3295
F0.77
ssVTC1D2_HUMAN
p388
(dp389
I544
F0.11
sI7464
F0.76
sI6928
F0.76
ssVA8K2G9_HUMAN
p390
(dp391
I3297
F0.01
sI3101
F0.28
sI3094
F0.42
sI3295
F0.82
ssVB4DWF6_HUMAN
p392
(dp393
I6849
F0.06
sI4827
F0.06
sI3748
F0.06
sI8118
F0.06
sI3048
F0.06
sI1997
F0.06
sI6927
F0.06
sI5617
F0.06
sI4146
F0.06
sI2101
F0.83
sI4822
F0.06
sI3414
F0.1
sI3227
F0.06
ssVC9JSB7_HUMAN
p394
(dp395
I3200
F0.01
sI3297
F0.05
sI3165
F0.01
sI3094
F0.83
sI3101
F0.02
sI3295
F0.12
ssVQ3KQZ2_HUMAN
p396
(dp397
I6849
F0.15
sI4827
F0.07
sI3748
F0.06
sI8118
F0.09
sI3048
F0.06
sI1997
F0.06
sI6927
F0.07
sI5617
F0.06
sI4146
F0.07
sI2101
F0.82
sI4822
F0.06
sI3414
F0.07
sI3227
F0.06
ssVIPO7_HUMAN
p398
(dp399
I2376
F0.86
sI1699
F0.85
sI2190
F0.85
sI6886
F0.78
ssVH0YE11_HUMAN
p400
(dp401
I3200
F0.01
sI3297
F0.01
sI3165
F0.01
sI3094
F0.39
sI3101
F0.27
sI3295
F0.82
ssVA8K1V0_HUMAN
p402
(dp403
I5666
F0.76
sI1222
F0.76
sI7016
F0.76
sI522
F0.76
sI2114
F0.76
sI495
F0.76
sI4816
F0.76
sI18
F0.76
sI6998
F0.76
sI2008
F0.76
ssVH0Y7B0_HUMAN
p404
(dp405
I2114
F0.11
sI136
F0.78
sI138
F0.27
sI4819
F0.11
sI500
F0.15
sI219
F0.11
sI252
F0.11
ssVE9PQC9_HUMAN
p406
(dp407
I529
F0.9
sI1515
F0.02
sI1999
F0.86
ssVCKLF7_HUMAN
p408
(dp409
I6849
F0.16
sI4827
F0.16
sI3748
F0.16
sI8118
F0.16
sI3048
F0.16
sI1997
F0.16
sI6927
F0.16
sI5617
F0.16
sI4146
F0.16
sI2101
F0.81
sI4822
F0.16
sI3414
F0.16
sI3227
F0.16
ssVH7C1B6_HUMAN
p410
(dp411
I5666
F0.75
sI1222
F0.75
sI7016
F0.75
sI522
F0.75
sI2114
F0.76
sI495
F0.75
sI4816
F0.76
sI18
F0.75
sI6998
F0.75
sI2008
F0.75
ssVTEAD3_HUMAN
p412
(dp413
I2114
F0.01
sI136
F0.14
sI138
F0.02
sI4819
F0.01
sI500
F0.03
sI219
F0.01
ssVSYPL2_HUMAN
p414
(dp415
I6849
F0.18
sI4827
F0.18
sI3748
F0.18
sI8118
F0.18
sI3048
F0.18
sI1997
F0.18
sI6927
F0.18
sI5617
F0.18
sI4146
F0.18
sI2101
F0.77
sI4822
F0.18
sI3414
F0.19
sI3227
F0.18
ssVH0YFQ8_HUMAN
p416
(dp417
I3200
F0.03
sI3297
F0.03
sI3165
F0.03
sI3094
F0.81
sI3101
F0.03
sI3295
F0.65
ssVMALL_HUMAN
p418
(dp419
I6849
F0.05
sI4827
F0.05
sI3748
F0.01
sI8118
F0.05
sI3048
F0.01
sI1997
F0.01
sI6927
F0.05
sI5617
F0.05
sI4146
F0.05
sI2101
F0.01
sI4822
F0.5
sI3414
F0.01
sI3227
F0.01
ssVB4DPS6_HUMAN
p420
(dp421
I2376
F0.1
sI2009
F0.1
sI1699
F0.1
sI2190
F0.85
sI6886
F0.1
ssVSNG2_HUMAN
p422
(dp423
I6849
F0.15
sI4827
F0.07
sI3748
F0.06
sI8118
F0.09
sI3048
F0.06
sI1997
F0.06
sI6927
F0.06
sI5617
F0.06
sI4146
F0.06
sI2101
F0.82
sI4822
F0.06
sI3414
F0.06
sI3227
F0.06
ssVH0YGS2_HUMAN
p424
(dp425
I2114
F0.04
sI136
F0.79
sI138
F0.06
sI4819
F0.04
sI500
F0.02
sI219
F0.02
sI252
F0.01
ssVE9PKB7_HUMAN
p426
(dp427
I2114
F0.13
sI136
F0.77
sI138
F0.36
sI4819
F0.13
sI500
F0.13
sI219
F0.13
sI252
F0.12
ssVQ9BW34_HUMAN
p428
(dp429
I529
F0.81
sI1515
F0.53
sI1999
F0.81
ssVB3KXQ9_HUMAN
p430
(dp431
I5666
F0.76
sI1222
F0.76
sI7016
F0.76
sI522
F0.76
sI2114
F0.76
sI495
F0.76
sI4816
F0.76
sI18
F0.76
sI6998
F0.76
sI2008
F0.76
ssVMALD1_HUMAN
p432
(dp433
I6849
F0.14
sI4827
F0.14
sI3748
F0.14
sI8118
F0.14
sI3048
F0.14
sI1997
F0.14
sI6927
F0.14
sI5617
F0.14
sI4146
F0.14
sI2101
F0.2
sI4822
F0.79
sI3414
F0.14
sI3227
F0.14
ssVCUL5_HUMAN
p434
(dp435
I4816
F0.46
sI1858
F0.78
sI5285
F0.36
sI5039
F0.36
sI5168
F0.36
sI5617
F0.86
sI5335
F0.85
sI1631
F0.78
ssVA8K865_HUMAN
p436
(dp437
I6849
F0.06
sI4827
F0.06
sI3748
F0.06
sI8118
F0.06
sI3048
F0.06
sI1997
F0.06
sI6927
F0.06
sI5617
F0.06
sI4146
F0.06
sI2101
F0.83
sI4822
F0.06
sI3414
F0.07
sI3227
F0.06
ssVQ7Z4M3_HUMAN
p438
(dp439
I3200
F0.01
sI3297
F0.01
sI3165
F0.01
sI3094
F0.75
sI3101
F0.01
sI3295
F0.81
ssVMYADM_HUMAN
p440
(dp441
I6849
F0.32
sI4827
F0.32
sI3748
F0.32
sI8118
F0.32
sI3048
F0.32
sI1997
F0.32
sI6927
F0.32
sI5617
F0.32
sI4146
F0.32
sI2101
F0.34
sI4822
F0.89
sI3414
F0.32
sI3227
F0.32
ssVQ5T2B4_HUMAN
p442
(dp443
I5168
F0.01
sI5285
F0.01
sI5039
F0.01
sI4816
F0.22
sI5617
F0.91
sI4022
F0.01
sI5335
F0.01
ssVE7ER86_HUMAN
p444
(dp445
I544
F0.21
sI7464
F0.78
sI6928
F0.78
ssVC9JG34_HUMAN
p446
(dp447
I3200
F0.02
sI3297
F0.06
sI3165
F0.02
sI3094
F0.83
sI3101
F0.03
sI3295
F0.13
ssVSO6A1_HUMAN
p448
(dp449
I3200
F0.11
sI3297
F0.83
sI3165
F0.11
sI3094
F0.14
sI3101
F0.2
sI3295
F0.13
ssVC9J4W5_HUMAN
p450
(dp451
I8118
F0.75
sI4143
F0.36
ssVYTDC2_HUMAN
p452
(dp453
I5666
F0.51
sI1222
F0.51
sI7016
F0.51
sI522
F0.51
sI2114
F0.75
sI495
F0.51
sI4816
F0.75
sI18
F0.51
sI6998
F0.51
sI2008
F0.51
ssVC9JUW6_HUMAN
p454
(dp455
I3200
F0.01
sI3297
F0.04
sI3165
F0.01
sI3094
F0.83
sI3101
F0.02
sI3295
F0.12
ssVQ53R84_HUMAN
p456
(dp457
I6849
F0.09
sI4827
F0.09
sI3748
F0.09
sI8118
F0.09
sI3048
F0.09
sI1997
F0.09
sI6927
F0.09
sI5617
F0.09
sI4146
F0.09
sI2101
F0.12
sI4822
F0.8
sI3414
F0.09
sI3227
F0.09
ssVCUL4A_HUMAN
p458
(dp459
I5168
F0.29
sI5285
F0.3
sI5039
F0.29
sI4816
F0.55
sI5617
F0.8
sI5335
F0.33
ssVA6ND22_HUMAN
p460
(dp461
I7088
F0.12
sI1208
F0.12
sI527
F0.14
sI1999
F0.91
ssVA4D0R1_HUMAN
p462
(dp463
I6849
F0.19
sI4827
F0.19
sI3748
F0.19
sI8118
F0.19
sI3048
F0.19
sI1997
F0.19
sI6927
F0.19
sI5617
F0.19
sI4146
F0.19
sI2101
F0.79
sI4822
F0.19
sI3414
F0.2
sI3227
F0.19
ssVA4D0R2_HUMAN
p464
(dp465
I6849
F0.15
sI4827
F0.15
sI3748
F0.15
sI8118
F0.15
sI3048
F0.15
sI1997
F0.15
sI6927
F0.15
sI5617
F0.15
sI4146
F0.15
sI2101
F0.81
sI4822
F0.15
sI3414
F0.17
sI3227
F0.15
ssVF6VN83_HUMAN
p466
(dp467
I10217
F0.26
sI4336
F0.27
sI2897
F0.27
sI1138
F0.92
sI6582
F0.27
sI3799
F0.27
sI6266
F0.27
sI893
F0.27
ssVC9JTF6_HUMAN
p468
(dp469
I3200
F0.01
sI3297
F0.04
sI3165
F0.01
sI3094
F0.83
sI3101
F0.02
sI3295
F0.12
ssVC9J020_HUMAN
p470
(dp471
I3200
F0.21
sI3297
F0.92
sI3165
F0.21
sI3094
F0.26
sI3101
F0.36
sI3295
F0.26
ssVQ0VGM0_HUMAN
p472
(dp473
I3200
F0.01
sI3297
F0.01
sI3165
F0.01
sI3094
F0.75
sI3101
F0.01
sI3295
F0.81
ssVRUNX3_HUMAN
p474
(dp475
I10058
F0.44
sI7628
F0.44
sI6928
F0.44
sI4819
F0.44
sI6933
F0.44
sI7063
F0.44
sI2008
F0.21
sI219
F0.66
ssVCISD2_HUMAN
p476
(dp477
I6928
F0.68
sI9447
F0.67
ssVA4D1M6_HUMAN
p478
(dp479
I529
F0.77
sI1515
F0.16
sI1999
F0.82
ssVF5H4J4_HUMAN
p480
(dp481
I480
F0.28
sI136
F0.29
sI10058
F0.37
sI7628
F0.37
sI1997
F0.28
sI6928
F0.37
sI4819
F0.37
sI6933
F0.37
sI7063
F0.37
sI2008
F0.31
sI219
F0.42
ssVQ6NSD0_HUMAN
p482
(dp483
I3200
F0.01
sI3297
F0.01
sI3165
F0.01
sI3094
F0.82
sI3101
F0.01
sI3295
F0.61
ssVD6RC46_HUMAN
p484
(dp485
I3984
F0.9
sI4225
F0.92
ssVSYPH_HUMAN
p486
(dp487
I6849
F0.01
sI1997
F0.05
sI1806
F0.01
sI4914
F0.01
sI4852
F0.01
sI9877
F0.01
sI3414
F0.49
sI2101
F0.04
ssVF5H543_HUMAN
p488
(dp489
I4336
F0.01
sI2897
F0.01
sI1138
F0.95
sI6582
F0.01
sI3799
F0.01
sI9304
F0.01
sI6266
F0.01
sI893
F0.01
ssVCKLF3_HUMAN
p490
(dp491
I6849
F0.08
sI4827
F0.11
sI3748
F0.07
sI8118
F0.07
sI3048
F0.11
sI1997
F0.07
sI6927
F0.07
sI5617
F0.07
sI4146
F0.07
sI2101
F0.8
sI4822
F0.12
sI3414
F0.07
sI3227
F0.07
ssVGAR1_HUMAN
p492
(dp493
I1857
F0.41
sI6222
F0.69
sI1999
F0.23
ssVC9JG32_HUMAN
p494
(dp495
I2197
F0.26
sI1999
F0.78
ssVB4DLH6_HUMAN
p496
(dp497
I5666
F0.15
sI1222
F0.15
sI7016
F0.15
sI522
F0.15
sI2114
F0.68
sI495
F0.15
sI4816
F0.76
sI18
F0.15
sI6998
F0.15
sI2008
F0.15
ssVH0YE72_HUMAN
p498
(dp499
I529
F0.81
sI1515
F0.69
sI1999
F0.82
ssVEF1B_HUMAN
p500
(dp501
I529
F0.81
sI1515
F0.01
sI1999
F0.88
ssVB5MCG9_HUMAN
p502
(dp503
I5666
F0.75
sI1222
F0.75
sI7016
F0.75
sI522
F0.75
sI2114
F0.76
sI495
F0.75
sI4816
F0.76
sI18
F0.75
sI6998
F0.75
sI2008
F0.75
ssVSO1B3_HUMAN
p504
(dp505
I3297
F0.01
sI10427
F0.01
sI3101
F0.01
sI3094
F0.82
sI3295
F0.46
ssVF5H8K0_HUMAN
p506
(dp507
I3200
F0.01
sI3297
F0.01
sI3165
F0.01
sI3094
F0.82
sI3101
F0.02
sI3295
F0.61
ssVQ6ICS3_HUMAN
p508
(dp509
I544
F0.26
sI7464
F0.77
sI6928
F0.78
ssVE9PBS1_HUMAN
p510
(dp511
I1308
F0.91
sI1309
F0.47
sI6126
F0.16
sI6927
F0.5
ssVB7Z600_HUMAN
p512
(dp513
I4816
F0.01
sI1858
F0.01
sI5285
F0.01
sI486
F0.01
sI5039
F0.92
sI5168
F0.01
sI5617
F0.01
sI1488
F0.11
sI5335
F0.01
sI1631
F0.01
ssVB5MCU0_HUMAN
p514
(dp515
I5666
F0.76
sI1222
F0.76
sI7016
F0.76
sI522
F0.76
sI2114
F0.76
sI495
F0.76
sI4816
F0.76
sI18
F0.76
sI6998
F0.76
sI2008
F0.76
ssVB3KP78_HUMAN
p516
(dp517
I3297
F0.01
sI3094
F0.82
sI10427
F0.01
sI3164
F0.01
sI3101
F0.01
sI3295
F0.58
ssVH7C4A7_HUMAN
p518
(dp519
I2114
F0.01
sI136
F0.25
sI138
F0.07
sI4819
F0.01
sI500
F0.79
sI219
F0.01
sI252
F0.01
ssVE1P5H9_HUMAN
p520
(dp521
I3200
F0.03
sI3297
F0.82
sI3165
F0.03
sI3094
F0.04
sI3101
F0.48
sI3295
F0.03
ssVH7C0P9_HUMAN
p522
(dp523
I5666
F0.76
sI1222
F0.76
sI7016
F0.76
sI522
F0.76
sI2114
F0.76
sI495
F0.76
sI4816
F0.76
sI18
F0.76
sI6998
F0.76
sI2008
F0.76
ssVSO2B1_HUMAN
p524
(dp525
I3297
F0.07
sI3094
F0.53
sI10427
F0.01
sI3164
F0.01
sI3101
F0.38
sI3295
F0.81
ssVC9IYZ1_HUMAN
p526
(dp527
I3776
F0.53
sI808
F0.75
sI2008
F0.53
sI813
F0.52
ssVA4FUP2_HUMAN
p528
(dp529
I2114
F0.12
sI136
F0.91
sI138
F0.41
sI4819
F0.12
sI500
F0.13
sI219
F0.12
sI252
F0.12
ssVB4DUJ1_HUMAN
p530
(dp531
I527
F0.78
ssVC9J7D8_HUMAN
p532
(dp533
I7557
F0.16
sI2566
F0.91
sI10217
F0.85
sI7562
F0.16
sI7542
F0.16
sI5847
F0.16
ssVB4DYR7_HUMAN
p534
(dp535
I6849
F0.06
sI4827
F0.06
sI3748
F0.06
sI8118
F0.06
sI3048
F0.06
sI1997
F0.06
sI6927
F0.06
sI5617
F0.06
sI4146
F0.06
sI2101
F0.83
sI4822
F0.06
sI3414
F0.09
sI3227
F0.06
ssVQ6NSF9_HUMAN
p536
(dp537
I3200
F0.01
sI3297
F0.01
sI3165
F0.01
sI3094
F0.75
sI3101
F0.01
sI3295
F0.81
ssVB2RBV7_HUMAN
p538
(dp539
I4816
F0.42
sI1858
F0.01
sI5285
F0.07
sI486
F0.01
sI5039
F0.06
sI5168
F0.06
sI5617
F0.86
sI1488
F0.01
sI5335
F0.11
sI1631
F0.01
ssVB3KVD8_HUMAN
p540
(dp541
I6849
F0.04
sI4827
F0.03
sI3748
F0.03
sI8118
F0.03
sI3048
F0.03
sI1997
F0.03
sI6927
F0.03
sI5617
F0.03
sI4146
F0.03
sI2101
F0.12
sI4822
F0.03
sI3414
F0.83
sI3227
F0.03
ssVSNG1_HUMAN
p542
(dp543
I6849
F0.23
sI4827
F0.16
sI3748
F0.15
sI8118
F0.18
sI3048
F0.15
sI1997
F0.15
sI6927
F0.15
sI5617
F0.15
sI4146
F0.15
sI2101
F0.8
sI4822
F0.15
sI3414
F0.15
sI3227
F0.15
ssVB4DDZ7_HUMAN
p544
(dp545
I527
F0.78
ssVC9J976_HUMAN
p546
(dp547
I6849
F0.07
sI4827
F0.07
sI3748
F0.07
sI8118
F0.07
sI3048
F0.07
sI1997
F0.07
sI6927
F0.07
sI5617
F0.07
sI4146
F0.07
sI2101
F0.15
sI4822
F0.07
sI3414
F0.82
sI3227
F0.07
ssVE9PQZ1_HUMAN
p548
(dp549
I529
F0.86
sI1515
F0.24
sI1999
F0.82
ssVD3DUQ6_HUMAN
p550
(dp551
I2114
F0.02
sI136
F0.79
sI138
F0.01
sI4819
F0.02
sI500
F0.01
sI219
F0.01
ssVPHLD_HUMAN
p552
(dp553
I1291
F0.73
ssVB2RAR6_HUMAN
p554
(dp555
I529
F0.81
sI1515
F0.79
sI1999
F0.81
ssVB4E032_HUMAN
p556
(dp557
I7088
F0.48
sI1208
F0.47
sI527
F0.66
sI1999
F0.88
ssVH0UI76_HUMAN
p558
(dp559
I70
F0.47
sI6927
F0.83
sI4976
F0.47
sI915
F0.51
sI2197
F0.47
sI215
F0.47
sI2170
F0.47
sI476
F0.47
ssVQ14DL7_HUMAN
p560
(dp561
I6849
F0.05
sI4827
F0.05
sI3748
F0.05
sI8118
F0.05
sI3048
F0.05
sI1997
F0.05
sI6927
F0.05
sI5617
F0.05
sI4146
F0.05
sI2101
F0.83
sI4822
F0.05
sI3414
F0.08
sI3227
F0.05
ssVQ53SQ1_HUMAN
p562
(dp563
I5666
F0.76
sI1222
F0.76
sI7016
F0.76
sI522
F0.76
sI2114
F0.76
sI495
F0.76
sI4816
F0.76
sI18
F0.76
sI6998
F0.76
sI2008
F0.76
ssVH7C4J8_HUMAN
p564
(dp565
I6849
F0.06
sI4827
F0.06
sI3748
F0.06
sI8118
F0.06
sI3048
F0.06
sI1997
F0.06
sI6927
F0.06
sI5617
F0.06
sI4146
F0.06
sI2101
F0.83
sI4822
F0.06
sI3414
F0.08
sI3227
F0.06
ssVF8W6R3_HUMAN
p566
(dp567
I2197
F0.58
sI1999
F0.9
ssVC9JT21_HUMAN
p568
(dp569
I2197
F0.24
sI1999
F0.78
ssVB7Z359_HUMAN
p570
(dp571
I6849
F0.04
sI3747
F0.01
sI1997
F0.01
sI1806
F0.01
sI4913
F0.01
sI4146
F0.01
sI4852
F0.01
sI2101
F0.09
sI3414
F0.82
sI4826
F0.01
ssVB2RDV2_HUMAN
p572
(dp573
I70
F0.18
sI6927
F0.91
sI4976
F0.18
sI915
F0.29
sI2197
F0.18
sI215
F0.18
sI2170
F0.18
sI476
F0.18
ssVH0YEJ9_HUMAN
p574
(dp575
I2114
F0.01
sI136
F0.91
sI138
F0.32
sI4819
F0.01
sI500
F0.01
sI219
F0.01
sI252
F0.01
ssVQ71U35_HUMAN
p576
(dp577
I2114
F0.04
sI136
F0.74
sI138
F0.09
sI4819
F0.04
sI500
F0.19
sI219
F0.05
ssVE9PK01_HUMAN
p578
(dp579
I529
F0.9
sI1515
F0.02
sI1999
F0.86
ssVB3KTW0_HUMAN
p580
(dp581
I5168
F0.01
sI5285
F0.01
sI5039
F0.01
sI4816
F0.92
sI5617
F0.01
sI1488
F0.1
sI5335
F0.01
ssVB4DYL5_HUMAN
p582
(dp583
I3297
F0.01
sI10427
F0.01
sI3101
F0.28
sI3094
F0.42
sI3295
F0.82
ssVNKRF_HUMAN
p584
(dp585
I5666
F0.5
sI1222
F0.5
sI7016
F0.5
sI522
F0.5
sI2114
F0.75
sI495
F0.5
sI4816
F0.75
sI18
F0.5
sI6998
F0.5
sI2008
F0.5
ssVH0YFF9_HUMAN
p586
(dp587
I2114
F0.11
sI136
F0.78
sI138
F0.27
sI4819
F0.11
sI500
F0.15
sI219
F0.11
sI252
F0.11
ssVH0YIX9_HUMAN
p588
(dp589
I5666
F0.76
sI1222
F0.76
sI7016
F0.76
sI522
F0.76
sI2114
F0.76
sI495
F0.76
sI4816
F0.76
sI18
F0.76
sI6998
F0.76
sI2008
F0.76
ssVA8K3T2_HUMAN
p590
(dp591
I6849
F0.12
sI4827
F0.12
sI3748
F0.1
sI8118
F0.12
sI3048
F0.1
sI1997
F0.1
sI6927
F0.12
sI5617
F0.12
sI4146
F0.12
sI2101
F0.77
sI4822
F0.11
sI3414
F0.1
sI3227
F0.1
ssVA8K0N4_HUMAN
p592
(dp593
I6849
F0.07
sI4827
F0.07
sI3748
F0.07
sI8118
F0.07
sI3048
F0.07
sI1997
F0.07
sI6927
F0.07
sI5617
F0.07
sI4146
F0.07
sI2101
F0.15
sI4822
F0.82
sI3414
F0.07
sI3227
F0.07
ssVF8W8U5_HUMAN
p594
(dp595
I480
F0.36
sI136
F0.36
sI10058
F0.4
sI7628
F0.4
sI1997
F0.36
sI6928
F0.4
sI4819
F0.4
sI6933
F0.4
sI7063
F0.4
sI2008
F0.36
sI219
F0.38
ssVB4DMQ4_HUMAN
p596
(dp597
I7557
F0.14
sI2566
F0.92
sI10217
F0.86
sI7562
F0.14
sI7542
F0.14
sI5847
F0.14
ssVQ76N57_HUMAN
p598
(dp599
I521
F0.03
sI1999
F0.87
sI527
F0.07
ssVNFX1_HUMAN
p600
(dp601
I5666
F0.68
sI1222
F0.68
sI7016
F0.68
sI522
F0.68
sI2114
F0.72
sI495
F0.68
sI4816
F0.75
sI18
F0.68
sI6998
F0.68
sI2008
F0.68
ssVQ8IV69_HUMAN
p602
(dp603
I3297
F0.03
sI10427
F0.01
sI3101
F0.01
sI3094
F0.83
sI3295
F0.08
ssVD6RF62_HUMAN
p604
(dp605
I1308
F0.9
sI1309
F0.62
sI6126
F0.19
sI6927
F0.66
ssVSO3A1_HUMAN
p606
(dp607
I3200
F0.12
sI3297
F0.83
sI3165
F0.12
sI3094
F0.12
sI3101
F0.15
sI3295
F0.12
ssVSYNPR_HUMAN
p608
(dp609
I6849
F0.04
sI4827
F0.03
sI3748
F0.03
sI8118
F0.03
sI3048
F0.03
sI1997
F0.03
sI6927
F0.03
sI5617
F0.03
sI4146
F0.03
sI2101
F0.11
sI4822
F0.03
sI3414
F0.83
sI3227
F0.03
ssVQ7Z454_HUMAN
p610
(dp611
I3297
F0.01
sI10427
F0.01
sI3101
F0.01
sI3094
F0.82
sI3295
F0.58
ssVXPA_HUMAN
p612
(dp613
I6928
F0.68
sI482
F0.67
sI4819
F0.68
ssVPLP2_HUMAN
p614
(dp615
I6849
F0.01
sI3048
F0.34
sI6927
F0.01
sI5617
F0.01
sI4146
F0.01
sI2101
F0.03
sI8118
F0.01
sI4827
F0.22
ssVRUNX2_HUMAN
p616
(dp617
I136
F0.01
sI10058
F0.31
sI7628
F0.31
sI6928
F0.31
sI4819
F0.31
sI6933
F0.31
sI7063
F0.31
sI219
F0.16
ssVG5E9G8_HUMAN
p618
(dp619
I5666
F0.48
sI1222
F0.48
sI7016
F0.48
sI522
F0.48
sI2114
F0.71
sI495
F0.48
sI4816
F0.75
sI18
F0.48
sI6998
F0.48
sI2008
F0.48
ssVTC1D1_HUMAN
p620
(dp621
I544
F0.12
sI7464
F0.79
sI6928
F0.79
ssVA6NE76_HUMAN
p622
(dp623
I1857
F0.01
sI5285
F0.01
sI7087
F0.02
sI5168
F0.01
sI5617
F0.92
sI1488
F0.01
sI5335
F0.02
sI5039
F0.01
sI4816
F0.21
sI1565
F0.01
sI10239
F0.01
ssVQ75MQ1_HUMAN
p624
(dp625
I1488
F0.92
sI7087
F0.02
sI4816
F0.01
sI4819
F0.01
sI5335
F0.01
sI3227
F0.01
sI1565
F0.01
sI10239
F0.01
ssVR3HC1_HUMAN
p626
(dp627
I5666
F0.74
sI1222
F0.74
sI7016
F0.74
sI522
F0.74
sI2114
F0.75
sI495
F0.74
sI4816
F0.76
sI18
F0.74
sI6998
F0.74
sI2008
F0.74
ssVSO4A1_HUMAN
p628
(dp629
I3200
F0.03
sI3297
F0.82
sI3165
F0.03
sI3094
F0.04
sI3101
F0.48
sI3295
F0.03
ssa(dp630
g2
I9606
sg4
I9606
sg6
I9606
sg8
I9606
sg456
I9606
sg10
I9606
sg12
I9606
sg162
I9606
sg14
I9606
sg16
I9606
sg18
I9606
sg20
I9606
sg22
I9606
sg24
I9606
sg28
I9606
sg30
I9606
sg32
I9606
sg34
I9606
sg36
I9606
sg38
I9606
sg42
I9606
sg530
I9606
sg44
I9606
sg46
I9606
sg48
I9606
sg50
I9606
sg52
I9606
sg54
I9606
sg56
I9606
sg58
I9606
sg60
I9606
sg62
I9606
sg64
I9606
sg352
I9606
sg472
I9606
sg66
I9606
sg68
I9606
sg468
I9606
sg72
I9606
sg74
I9606
sg76
I9606
sg78
I9606
sg204
I9606
sg82
I9606
sg84
I9606
sg432
I9606
sg88
I9606
sg90
I9606
sg92
I9606
sg110
I9606
sg96
I9606
sg98
I9606
sg100
I9606
sg104
I9606
sg564
I9606
sg106
I9606
sg108
I9606
sg94
I9606
sg112
I9606
sg114
I9606
sg116
I9606
sg118
I9606
sg120
I9606
sg122
I9606
sg124
I9606
sg126
I9606
sg128
I9606
sg130
I9606
sg132
I9606
sg134
I9606
sg170
I9606
sg140
I9606
sg520
I9606
sg142
I9606
sg144
I9606
sg146
I9606
sg148
I9606
sg150
I9606
sg152
I9606
sg154
I9606
sg156
I9606
sg158
I9606
sg160
I9606
sg70
I9606
sg164
I9606
sg166
I9606
sg168
I9606
sg556
I9606
sg466
I9606
sg174
I9606
sg176
I9606
sg178
I9606
sg180
I9606
sg542
I9606
sg516
I9606
sg570
I9606
sg186
I9606
sg188
I9606
sg190
I9606
sg192
I9606
sg194
I9606
sg196
I9606
sg198
I9606
sg200
I9606
sg202
I9606
sg544
I9606
sg206
I9606
sg208
I9606
sg210
I9606
sg620
I9606
sg212
I9606
sg214
I9606
sg216
I9606
sg218
I9606
sg220
I9606
sg222
I9606
sg560
I9606
sg224
I9606
sg226
I9606
sg228
I9606
sg230
I9606
sg232
I9606
sg234
I9606
sg236
I9606
sg238
I9606
sg240
I9606
sg242
I9606
sg244
I9606
sg246
I9606
sg248
I9606
sg250
I9606
sg252
I9606
sg254
I9606
sg568
I9606
sg256
I9606
sg258
I9606
sg260
I9606
sg262
I9606
sg264
I9606
sg266
I9606
sg270
I9606
sg272
I9606
sg274
I9606
sg276
I9606
sg278
I9606
sg280
I9606
sg282
I9606
sg284
I9606
sg532
I9606
sg288
I9606
sg290
I9606
sg292
I9606
sg294
I9606
sg296
I9606
sg298
I9606
sg300
I9606
sg302
I9606
sg304
I9606
sg306
I9606
sg308
I9606
sg310
I9606
sg312
I9606
sg314
I9606
sg316
I9606
sg318
I9606
sg320
I9606
sg322
I9606
sg324
I9606
sg326
I9606
sg328
I9606
sg330
I9606
sg332
I9606
sg334
I9606
sg336
I9606
sg338
I9606
sg350
I9606
sg342
I9606
sg344
I9606
sg348
I9606
sg136
I9606
sg388
I9606
sg354
I9606
sg356
I9606
sg358
I9606
sg360
I9606
sg362
I9606
sg364
I9606
sg366
I9606
sg368
I9606
sg486
I9606
sg372
I9606
sg374
I9606
sg376
I9606
sg340
I9606
sg378
I9606
sg380
I9606
sg382
I9606
sg384
I9606
sg386
I9606
sg390
I9606
sg392
I9606
sg396
I9606
sg398
I9606
sg400
I9606
sg40
I9606
sg404
I9606
sg406
I9606
sg408
I9606
sg410
I9606
sg412
I9606
sg414
I9606
sg416
I9606
sg418
I9606
sg420
I9606
sg422
I9606
sg424
I9606
sg426
I9606
sg428
I9606
sg430
I9606
sg434
I9606
sg436
I9606
sg438
I9606
sg440
I9606
sg442
I9606
sg444
I9606
sg446
I9606
sg448
I9606
sg450
I9606
sg452
I9606
sg454
I9606
sg138
I9606
sg458
I9606
sg460
I9606
sg462
I9606
sg464
I9606
sg172
I9606
sg590
I9606
sg470
I9606
sg184
I9606
sg474
I9606
sg476
I9606
sg478
I9606
sg480
I9606
sg482
I9606
sg484
I9606
sg488
I9606
sg490
I9606
sg492
I9606
sg494
I9606
sg496
I9606
sg498
I9606
sg500
I9606
sg268
I9606
sg504
I9606
sg26
I9606
sg508
I9606
sg510
I9606
sg512
I9606
sg514
I9606
sg80
I9606
sg518
I9606
sg506
I9606
sg522
I9606
sg524
I9606
sg526
I9606
sg528
I9606
sg624
I9606
sg610
I9606
sg534
I9606
sg536
I9606
sg538
I9606
sg540
I9606
sg182
I9606
sg502
I9606
sg546
I9606
sg548
I9606
sg550
I9606
sg552
I9606
sg554
I9606
sg558
I9606
sg394
I9606
sg562
I9606
sg598
I9606
sg566
I9606
sg86
I9606
sg346
I9606
sg572
I9606
sg574
I9606
sg576
I9606
sg578
I9606
sg580
I9606
sg582
I9606
sg584
I9606
sg586
I9606
sg588
I9606
sg592
I9606
sg594
I9606
sg596
I9606
sg286
I9606
sg600
I9606
sg602
I9606
sg604
I9606
sg606
I9606
sg608
I9606
sg402
I9606
sg612
I9606
sg614
I9606
sg616
I9606
sg618
I9606
sg102
I9606
sg622
I9606
sg370
I9606
sg626
I9606
sg628
I9606
sa(dp631
g2
VF8VS27
p632
sg4
VQ9BYD2
p633
sg6
VQ71RH4
p634
sg8
VB1AK63
p635
sg456
VQ53R84
p636
sg10
VE7ETK0
p637
sg12
VB3KS61
p638
sg162
VC9JHU9
p639
sg14
VA6NGJ0
p640
sg16
VP29692
p641
sg18
VQ59EF3
p642
sg20
VP63241
p643
sg22
VC9JJV6
p644
sg24
VQ8IZR5
p645
sg28
VQ15032
p646
sg30
VQ5T2B5
p647
sg32
VQ5JR98
p648
sg34
VP46721
p649
sg36
VC9JYN0
p650
sg38
VQ63HP3
p651
sg42
VE9PG42
p652
sg530
VB4DUJ1
p653
sg44
VE9PEZ1
p654
sg46
VB4DJE6
p655
sg48
VQ96HR8
p656
sg50
VQ75MH1
p657
sg52
VB7ZAD4
p658
sg54
VQ53S54
p659
sg56
VD6RCF4
p660
sg58
VQ6NUN2
p661
sg60
VH0YEP3
p662
sg62
VQ5VTU5
p663
sg64
VQ8IZV2
p664
sg352
VP62847
p665
sg472
VQ0VGM0
p666
sg66
VQ5JAR5
p667
sg68
VQ5JAR4
p668
sg468
VC9JTF6
p669
sg72
VQ92959
p670
sg74
VP22234
p671
sg76
VE9PPU8
p672
sg78
VB4DS32
p673
sg204
VG3V0H7
p674
sg82
VF5H060
p675
sg84
VF2Z2T2
p676
sg432
VQ9BSK0
p677
sg88
VQ9Y6L6
p678
sg90
VB4DLA3
p679
sg92
VE7EU40
p680
sg110
VH7C1L6
p681
sg96
VA6NDP7
p682
sg98
VB7Z1Y1
p683
sg100
VQ96L30
p684
sg104
VH7C2F9
p685
sg564
VH7C4J8
p686
sg106
VE9PBB4
p687
sg108
VB4DGA9
p688
sg94
VQ15561
p689
sg112
VQ8N4S9
p690
sg114
VH9KVB1
p691
sg116
VO75391
p692
sg118
VO95473
p693
sg120
VQ6IS14
p694
sg122
VQ9UBL0
p695
sg124
VD3DWK1
p696
sg126
VQ9NZ45
p697
sg128
VP84098
p698
sg130
VH3BMA8
p699
sg132
VB3KU45
p700
sg134
VQ96G15
p701
sg170
VB4DT53
p702
sg140
VQ9NYB5
p703
sg520
VE1P5H9
p704
sg142
VQ76N56
p705
sg144
VA8MWL6
p706
sg146
VF8VPA7
p707
sg148
VH7C399
p708
sg150
VC9JZL8
p709
sg152
VQ5SZR1
p710
sg154
VB4DR09
p711
sg156
VB4DGH7
p712
sg158
VB4DJH3
p713
sg160
VD6RF50
p714
sg70
VH0Y9Q1
p715
sg164
VQ9H2Y9
p716
sg166
VQ0VGL9
p717
sg168
VB7Z8J8
p718
sg556
VB4E032
p719
sg466
VF6VN83
p720
sg174
VO43761
p721
sg176
VQ8IWR8
p722
sg178
VH0YCA0
p723
sg180
VH0YG62
p724
sg542
VO43759
p725
sg516
VB3KP78
p726
sg570
VB7Z359
p727
sg186
VQ9NWL6
p728
sg188
VD6R9T8
p729
sg190
VQ969L2
p730
sg192
VF8W9W8
p731
sg194
VB3KUC7
p732
sg196
VQ16563
p733
sg198
VB5MCM0
p734
sg200
VB4DQG5
p735
sg202
VB3KPQ3
p736
sg544
VB4DDZ7
p737
sg206
VQ8NE62
p738
sg208
VH0YCZ6
p739
sg210
VQ53G49
p740
sg620
VQ8N7M0
p741
sg212
VB4DKT2
p742
sg214
VC9JGK7
p743
sg216
VQ16625
p744
sg218
VF5H094
p745
sg220
VH0YGG9
p746
sg222
VQ6PHW0
p747
sg560
VQ14DL7
p748
sg224
VQ9UJX6
p749
sg226
VQ96D70
p750
sg228
VH0YE58
p751
sg230
VP38935
p752
sg232
VO15397
p753
sg234
VH7C2X8
p754
sg236
VQ9GZV4
p755
sg238
VQ9H7G6
p756
sg240
VG3V2B7
p757
sg242
VQ5T2B7
p758
sg244
VQ9Y342
p759
sg246
VP21145
p760
sg248
VP43897
p761
sg250
VQ14999
p762
sg252
VF2Z328
p763
sg254
VQ8IZS6
p764
sg568
VC9JT21
p765
sg256
VA3F769
p766
sg258
VE9PI53
p767
sg260
VB4DY32
p768
sg262
VA2I829
p769
sg264
VP62854
p770
sg266
VH7C4W3
p771
sg270
VE9PN87
p772
sg272
VQ8NDH3
p773
sg274
VP08243
p774
sg276
VQ13616
p775
sg278
VB4DHY8
p776
sg280
VQ8IWT3
p777
sg282
VQ15562
p778
sg284
VP28838
p779
sg532
VC9J7D8
p780
sg288
VB4DM67
p781
sg290
VQ5VTU3
p782
sg292
VB4DTB0
p783
sg294
VP63172
p784
sg296
VF5GXY6
p785
sg298
VQ2VPV9
p786
sg300
VA8K9U1
p787
sg302
VC9J5M0
p788
sg304
VQ5JNZ5
p789
sg306
VF6RGB9
p790
sg308
VE9PRY8
p791
sg310
VQ9HAF1
p792
sg312
VQ6ZQN7
p793
sg314
VC9JC07
p794
sg316
VC9J0A2
p795
sg318
VQ05CV5
p796
sg320
VQ96DZ9
p797
sg322
VQ96M12
p798
sg324
VQ13618
p799
sg326
VB4E3M3
p800
sg328
VE7ESA3
p801
sg330
VQ9NX76
p802
sg332
VF8WEJ5
p803
sg334
VE9PPJ4
p804
sg336
VQ01196
p805
sg338
VD6RA70
p806
sg350
VC9JXJ9
p807
sg342
VB4DVE5
p808
sg344
VB4DUC5
p809
sg348
VF8WDZ3
p810
sg136
VE9PKK7
p811
sg388
VQ8WW35
p812
sg354
VE5KS95
p813
sg356
VE9PRW4
p814
sg358
VH0YE88
p815
sg360
VQ5T802
p816
sg362
VO60725
p817
sg364
VQ53GI4
p818
sg366
VP28347
p819
sg368
VB4DG42
p820
sg486
VP08247
p821
sg372
VD3DQ68
p822
sg374
VD3DSZ4
p823
sg376
VF8WCE4
p824
sg340
VE9PPI0
p825
sg378
VA2A283
p826
sg380
VQ13617
p827
sg382
VQ9Y2K5
p828
sg384
VD6RA09
p829
sg386
VE7ERN5
p830
sg390
VA8K2G9
p831
sg392
VB4DWF6
p832
sg396
VQ3KQZ2
p833
sg398
VO95373
p834
sg400
VH0YE11
p835
sg40
VH7C1J0
p836
sg404
VH0Y7B0
p837
sg406
VE9PQC9
p838
sg408
VQ96FZ5
p839
sg410
VH7C1B6
p840
sg412
VQ99594
p841
sg414
VQ5VXT5
p842
sg416
VH0YFQ8
p843
sg418
VQ13021
p844
sg420
VB4DPS6
p845
sg422
VO43760
p846
sg424
VH0YGS2
p847
sg426
VE9PKB7
p848
sg428
VQ9BW34
p849
sg430
VB3KXQ9
p850
sg434
VQ93034
p851
sg436
VA8K865
p852
sg438
VQ7Z4M3
p853
sg440
VQ96S97
p854
sg442
VQ5T2B4
p855
sg444
VE7ER86
p856
sg446
VC9JG34
p857
sg448
VQ86UG4
p858
sg450
VC9J4W5
p859
sg452
VQ9H6S0
p860
sg454
VC9JUW6
p861
sg138
VB5MCD7
p862
sg458
VQ13619
p863
sg460
VA6ND22
p864
sg462
VA4D0R1
p865
sg464
VA4D0R2
p866
sg172
VC9K059
p867
sg590
VA8K3T2
p868
sg470
VC9J020
p869
sg184
VP51808
p870
sg474
VQ13761
p871
sg476
VQ8N5K1
p872
sg478
VA4D1M6
p873
sg480
VF5H4J4
p874
sg482
VQ6NSD0
p875
sg484
VD6RC46
p876
sg488
VF5H543
p877
sg490
VQ96MX0
p878
sg492
VQ9NY12
p879
sg494
VC9JG32
p880
sg496
VB4DLH6
p881
sg498
VH0YE72
p882
sg500
VP24534
p883
sg268
VP55060
p884
sg504
VQ9NPD5
p885
sg26
VC9JYW4
p886
sg508
VQ6ICS3
p887
sg510
VE9PBS1
p888
sg512
VB7Z600
p889
sg514
VB5MCU0
p890
sg80
VE9PIU9
p891
sg518
VH7C4A7
p892
sg506
VF5H8K0
p893
sg522
VH7C0P9
p894
sg524
VO94956
p895
sg526
VC9IYZ1
p896
sg528
VA4FUP2
p897
sg624
VQ75MQ1
p898
sg610
VQ7Z454
p899
sg534
VB4DYR7
p900
sg536
VQ6NSF9
p901
sg538
VB2RBV7
p902
sg540
VB3KVD8
p903
sg182
VQ13620
p904
sg502
VB5MCG9
p905
sg546
VC9J976
p906
sg548
VE9PQZ1
p907
sg550
VD3DUQ6
p908
sg552
VP80108
p909
sg554
VB2RAR6
p910
sg558
VH0UI76
p911
sg394
VC9JSB7
p912
sg562
VQ53SQ1
p913
sg598
VQ76N57
p914
sg566
VF8W6R3
p915
sg86
VA3F768
p916
sg346
VB4DGY8
p917
sg572
VB2RDV2
p918
sg574
VH0YEJ9
p919
sg576
VQ71U35
p920
sg578
VE9PK01
p921
sg580
VB3KTW0
p922
sg582
VB4DYL5
p923
sg584
VO15226
p924
sg586
VH0YFF9
p925
sg588
VH0YIX9
p926
sg592
VA8K0N4
p927
sg594
VF8W8U5
p928
sg596
VB4DMQ4
p929
sg286
VQ9Y3D3
p930
sg600
VQ12986
p931
sg602
VQ8IV69
p932
sg604
VD6RF62
p933
sg606
VQ9UIG8
p934
sg608
VQ8TBG9
p935
sg402
VA8K1V0
p936
sg612
VP23025
p937
sg614
VQ04941
p938
sg616
VQ13950
p939
sg618
VG5E9G8
p940
sg102
VH3BNA6
p941
sg622
VA6NE76
p942
sg370
VB4DM31
p943
sg626
VQ9Y3T6
p944
sg628
VQ96BD0
p945
sa.