(dp0
S'result'
p1
(lp2
(lp3
Vseq1
p4
a(lp5
(lp6
VE3MMF1_CAERE
p7
aVE3MMF1
p8
aVCaenorhabditis remanei
p9
aI31234
aF1258.82
aF0.0
aS'95'
p10
a(lp11
(lp12
VGO:0015349
p13
aVthyroid hormone transmembrane transporter activity
p14
aS'0.82'
p15
aa(lp16
VGO:0015132
p17
aVprostaglandin transmembrane transporter activity
p18
aS'0.22'
p19
aa(lp20
VGO:0015125
p21
aVbile acid transmembrane transporter activity
p22
aS'0.19'
p23
aa(lp24
VGO:0015238
p25
aVdrug transmembrane transporter activity
p26
aS'0.18'
p27
aa(lp28
VGO:0015198
p29
aVoligopeptide transporter activity
p30
aS'0.18'
p31
aa(lp32
VGO:0015347
p33
aVsodium-independent organic anion transmembrane transporter activity
p34
aS'0.18'
p35
aaaa(lp36
VG0MHZ3_CAEBE
p37
aVG0MHZ3
p38
aVCaenorhabditis brenneri
p39
aI135651
aF1237.25
aF0.0
aS'93'
p40
a(lp41
(lp42
g13
ag14
aS'0.82'
p43
aa(lp44
g17
ag18
aS'0.22'
p45
aa(lp46
g21
ag22
aS'0.19'
p47
aa(lp48
g25
ag26
aS'0.18'
p49
aa(lp50
g29
ag30
aS'0.18'
p51
aa(lp52
g33
ag34
aS'0.18'
p53
aaaa(lp54
VQ93550_CAEEL
p55
aVQ93550
p56
aVCaenorhabditis elegans
p57
aI6239
aF1230.7
aF0.0
aS'92'
p58
a(lp59
(lp60
g13
ag14
aS'0.82'
p61
aa(lp62
g17
ag18
aS'0.22'
p63
aa(lp64
g25
ag26
aS'0.18'
p65
aa(lp66
g21
ag22
aS'0.18'
p67
aa(lp68
g29
ag30
aS'0.18'
p69
aa(lp70
g33
ag34
aS'0.18'
p71
aaaa(lp72
VE1FKB9_LOALO
p73
aVE1FKB9
p74
aVLoa loa
p75
aI7209
aF561.607
aF0.0
aS'45'
p76
a(lp77
(lp78
g13
ag14
aS'0.82'
p79
aa(lp80
g17
ag18
aS'0.21'
p81
aa(lp82
g25
ag26
aS'0.18'
p83
aa(lp84
g21
ag22
aS'0.18'
p85
aa(lp86
g29
ag30
aS'0.18'
p87
aa(lp88
g33
ag34
aS'0.18'
p89
aaaa(lp90
VA8PR64_BRUMA
p91
aVA8PR64
p92
aVBrugia malayi
p93
aI6279
aF502.671
aF2.34118e-166
aS'43'
p94
a(lp95
(lp96
g13
ag14
aS'0.82'
p97
aa(lp98
g17
ag18
aS'0.22'
p99
aa(lp100
g21
ag22
aS'0.19'
p101
aa(lp102
g25
ag26
aS'0.18'
p103
aa(lp104
g29
ag30
aS'0.18'
p105
aa(lp106
g33
ag34
aS'0.18'
p107
aaaa(lp108
VE5SJE0_TRISP
p109
aVE5SJE0
p110
aVTrichinella spiralis
p111
aI6334
aF394.43
aF6.10975e-125
aS'40'
p112
a(lp113
(lp114
g13
ag14
aS'0.81'
p115
aa(lp116
g17
ag18
aS'0.22'
p117
aa(lp118
g21
ag22
aS'0.19'
p119
aa(lp120
g33
ag34
aS'0.19'
p121
aa(lp122
g25
ag26
aS'0.18'
p123
aa(lp124
g29
ag30
aS'0.18'
p125
aaaa(lp126
VE5SJD8_TRISP
p127
aVE5SJD8
p128
aVTrichinella spiralis
p129
aI6334
aF366.311
aF6.47387e-114
aS'47'
p130
a(lp131
(lp132
g13
ag14
aS'0.81'
p133
aa(lp134
g17
ag18
aS'0.19'
p135
aa(lp136
g21
ag22
aS'0.16'
p137
aa(lp138
g25
ag26
aS'0.15'
p139
aa(lp140
g29
ag30
aS'0.15'
p141
aa(lp142
g33
ag34
aS'0.15'
p143
aaaa(lp144
VC3Y4T6_BRAFL
p145
aVC3Y4T6
p146
aVBranchiostoma floridae
p147
aI7739
aF274.248
aF3.2644e-79
aS'29'
p148
a(lp149
(lp150
g13
ag14
aS'0.81'
p151
aa(lp152
g17
ag18
aS'0.19'
p153
aaaa(lp154
VA4IIQ0_XENTR
p155
aVA4IIQ0
p156
aVXenopus (Silurana) tropicalis
p157
aI8364
aF267.7
aF4.53269e-76
aS'28'
p158
a(lp159
(lp160
g17
ag18
aS'0.91'
p161
aa(lp162
g33
ag34
aS'0.48'
p163
aaaa(lp164
VE1C5S3_CHICK
p165
aVE1C5S3
p166
aVGallus gallus
p167
aI9031
aF260.766
aF1.98969e-73
aS'28'
p168
a(lp169
(lp170
g17
ag18
aS'0.91'
p171
aa(lp172
g33
ag34
aS'0.45'
p173
aaaa(lp174
VA4IG10_DANRE
p175
aVA4IG10
p176
aVDanio rerio
p177
aI7955
aF259.996
aF3.72414e-73
aS'29'
p178
a(lp179
(lp180
g17
ag18
aS'0.84'
p181
aa(lp182
g33
ag34
aS'0.75'
p183
aaaa(lp184
VF1Q4Y9_DANRE
p185
aVF1Q4Y9
p186
aVDanio rerio
p187
aI7955
aF259.61
aF7.20339e-73
aS'29'
p188
a(lp189
(lp190
g17
ag18
aS'0.82'
p191
aa(lp192
g33
ag34
aS'0.75'
p193
aaaa(lp194
VG1SCG0_RABIT
p195
aVG1SCG0
p196
aVOryctolagus cuniculus
p197
aI9986
aF253.447
aF6.71522e-71
aS'29'
p198
a(lp199
(lp200
g17
ag18
aS'0.91'
p201
aa(lp202
g21
ag22
aS'0.15'
p203
aaaa(lp204
VQ5FX75_CANFA
p205
aVQ5FX75
p206
aVCanis lupus familiaris
p207
aI9615
aF251.906
aF2.20936e-70
aS'29'
p208
a(lp209
(lp210
g17
ag18
aS'0.91'
p211
aa(lp212
g21
ag22
aS'0.15'
p213
aaaa(lp214
VH9J2D0_BOMMO
p215
aVH9J2D0
p216
aVBombyx mori
p217
aI7091
aF256.144
aF5.09181e-70
aS'27'
p218
a(lp219
(lp220
g13
ag14
aS'0.79'
p221
aa(lp222
g21
ag22
aS'0.76'
p223
aaaa(lp224
VG5BQA6_HETGA
p225
aVG5BQA6
p226
aVHeterocephalus glaber
p227
aI10181
aF245.743
aF2.36485e-68
aS'29'
p228
a(lp229
(lp230
g17
ag18
aS'0.91'
p231
aa(lp232
g21
ag22
aS'0.16'
p233
aaaaaas.