(dp0
S'result'
p1
(lp2
(lp3
Vseq1
p4
a(lp5
(lp6
VE3MMF1_CAERE
p7
aVE3MMF1
p8
aVCaenorhabditis remanei
p9
aI31234
aS'1258'
p10
aF0.0
aS'95'
p11
aS'98'
p12
a(lp13
(lp14
VGO:0015349
p15
aVthyroid hormone transmembrane transporter activity
p16
aS'0.82'
p17
aa(lp18
VGO:0015132
p19
aVprostaglandin transmembrane transporter activity
p20
aS'0.22'
p21
aa(lp22
VGO:0015125
p23
aVbile acid transmembrane transporter activity
p24
aS'0.19'
p25
aa(lp26
VGO:0015238
p27
aVdrug transmembrane transporter activity
p28
aS'0.18'
p29
aa(lp30
VGO:0015198
p31
aVoligopeptide transporter activity
p32
aS'0.18'
p33
aa(lp34
VGO:0015347
p35
aVsodium-independent organic anion transmembrane transporter activity
p36
aS'0.18'
p37
aaaa(lp38
VG0MHZ3_CAEBE
p39
aVG0MHZ3
p40
aVCaenorhabditis brenneri
p41
aI135651
aS'1237'
p42
aF0.0
aS'93'
p43
aS'98'
p44
a(lp45
(lp46
g15
ag16
aS'0.82'
p47
aa(lp48
g19
ag20
aS'0.22'
p49
aa(lp50
g23
ag24
aS'0.19'
p51
aa(lp52
g27
ag28
aS'0.18'
p53
aa(lp54
g31
ag32
aS'0.18'
p55
aa(lp56
g35
ag36
aS'0.18'
p57
aaaa(lp58
VQ93550_CAEEL
p59
aVQ93550
p60
aVCaenorhabditis elegans
p61
aI6239
aS'1230'
p62
aF0.0
aS'92'
p63
aS'98'
p64
a(lp65
(lp66
g15
ag16
aS'0.82'
p67
aa(lp68
g19
ag20
aS'0.22'
p69
aa(lp70
g27
ag28
aS'0.18'
p71
aa(lp72
g23
ag24
aS'0.18'
p73
aa(lp74
g31
ag32
aS'0.18'
p75
aa(lp76
g35
ag36
aS'0.18'
p77
aaaa(lp78
VE1FKB9_LOALO
p79
aVE1FKB9
p80
aVLoa loa
p81
aI7209
aS'561'
p82
aF0.0
aS'45'
p83
aS'95'
p84
a(lp85
(lp86
g15
ag16
aS'0.82'
p87
aa(lp88
g19
ag20
aS'0.21'
p89
aa(lp90
g27
ag28
aS'0.18'
p91
aa(lp92
g23
ag24
aS'0.18'
p93
aa(lp94
g31
ag32
aS'0.18'
p95
aa(lp96
g35
ag36
aS'0.18'
p97
aaaa(lp98
VA8PR64_BRUMA
p99
aVA8PR64
p100
aVBrugia malayi
p101
aI6279
aS'502'
p102
aF2.34752e-166
aS'43'
p103
aS'99'
p104
a(lp105
(lp106
g15
ag16
aS'0.82'
p107
aa(lp108
g19
ag20
aS'0.22'
p109
aa(lp110
g23
ag24
aS'0.19'
p111
aa(lp112
g27
ag28
aS'0.18'
p113
aa(lp114
g31
ag32
aS'0.18'
p115
aa(lp116
g35
ag36
aS'0.18'
p117
aaaa(lp118
VE5SJE0_TRISP
p119
aVE5SJE0
p120
aVTrichinella spiralis
p121
aI6334
aS'394'
p122
aF6.12628e-125
aS'40'
p123
aS'84'
p124
a(lp125
(lp126
g15
ag16
aS'0.81'
p127
aa(lp128
g19
ag20
aS'0.22'
p129
aa(lp130
g23
ag24
aS'0.19'
p131
aa(lp132
g35
ag36
aS'0.19'
p133
aa(lp134
g27
ag28
aS'0.18'
p135
aa(lp136
g31
ag32
aS'0.18'
p137
aaaa(lp138
VE5SJD8_TRISP
p139
aVE5SJD8
p140
ag121
aI6334
aS'366'
p141
aF6.49139e-114
aS'47'
p142
aS'62'
p143
a(lp144
(lp145
g15
ag16
aS'0.81'
p146
aa(lp147
g19
ag20
aS'0.19'
p148
aa(lp149
g23
ag24
aS'0.16'
p150
aa(lp151
g27
ag28
aS'0.15'
p152
aa(lp153
g31
ag32
aS'0.15'
p154
aa(lp155
g35
ag36
aS'0.15'
p156
aaaa(lp157
VC3Y4T6_BRAFL
p158
aVC3Y4T6
p159
aVBranchiostoma floridae
p160
aI7739
aS'274'
p161
aF3.27323e-79
aS'29'
p162
aS'89'
p163
a(lp164
(lp165
g15
ag16
aS'0.81'
p166
aa(lp167
g19
ag20
aS'0.19'
p168
aaaa(lp169
VA4IIQ0_XENTR
p170
aVA4IIQ0
p171
aVXenopus (Silurana) tropicalis
p172
aI8364
aS'267'
p173
aF4.54496e-76
aS'28'
p174
aS'96'
p175
a(lp176
(lp177
g19
ag20
aS'0.91'
p178
aa(lp179
g35
ag36
aS'0.48'
p180
aaaa(lp181
VE1C5S3_CHICK
p182
aVE1C5S3
p183
aVGallus gallus
p184
aI9031
aS'260'
p185
aF1.99508e-73
aS'28'
p186
aS'93'
p187
a(lp188
(lp189
g19
ag20
aS'0.91'
p190
aa(lp191
g35
ag36
aS'0.45'
p192
aaaa(lp193
VA4IG10_DANRE
p194
aVA4IG10
p195
aVDanio rerio
p196
aI7955
aS'259'
p197
aF3.73422e-73
aS'29'
p198
aS'93'
p199
a(lp200
(lp201
g19
ag20
aS'0.84'
p202
aa(lp203
g35
ag36
aS'0.75'
p204
aaaa(lp205
VF1Q4Y9_DANRE
p206
aVF1Q4Y9
p207
ag196
aI7955
aS'259'
p208
aF7.22289e-73
aS'29'
p209
aS'93'
p210
a(lp211
(lp212
g19
ag20
aS'0.82'
p213
aa(lp214
g35
ag36
aS'0.75'
p215
aaaa(lp216
VG1SCG0_RABIT
p217
aVG1SCG0
p218
aVOryctolagus cuniculus
p219
aI9986
aS'253'
p220
aF6.7334e-71
aS'29'
p221
aS'98'
p222
a(lp223
(lp224
g19
ag20
aS'0.91'
p225
aa(lp226
g23
ag24
aS'0.15'
p227
aaaa(lp228
VQ5FX75_CANFA
p229
aVQ5FX75
p230
aVCanis lupus familiaris
p231
aI9615
aS'251'
p232
aF2.21534e-70
aS'29'
p233
aS'94'
p234
a(lp235
(lp236
g19
ag20
aS'0.91'
p237
aa(lp238
g23
ag24
aS'0.15'
p239
aaaa(lp240
VH9J2D0_BOMMO
p241
aVH9J2D0
p242
aVBombyx mori
p243
aI7091
aS'256'
p244
aF5.10559e-70
aS'27'
p245
aS'94'
p246
a(lp247
(lp248
g15
ag16
aS'0.79'
p249
aa(lp250
g23
ag24
aS'0.76'
p251
aaaa(lp252
VG5BQA6_HETGA
p253
aVG5BQA6
p254
aVHeterocephalus glaber
p255
aI10181
aS'245'
p256
aF2.37125e-68
aS'29'
p257
aS'93'
p258
a(lp259
(lp260
g19
ag20
aS'0.91'
p261
aa(lp262
g23
ag24
aS'0.16'
p263
aaaaaas.