(dp0
S'result'
p1
(lp2
(lp3
VF1SHK8_PIG
p4
aVF1SHK8
p5
aVSus scrofa
p6
aI9823
a(lp7
(lp8
VGO:0000978
p9
aVRNA polymerase II core promoter proximal region sequence-specific DNA binding
p10
aS'0.91'
p11
aa(lp12
VGO:0001077
p13
aVRNA polymerase II core promoter proximal region sequence-specific DNA binding transcription factor activity involved in positive regulation of transcription
p14
aS'0.76'
p15
aaaa(lp16
VF1SGX5_PIG
p17
aVF1SGX5
p18
ag6
aI9823
a(lp19
(lp20
g9
ag10
aS'0.7'
p21
aa(lp22
g13
ag14
aS'0.33'
p23
aa(lp24
VGO:0003682
p25
aVchromatin binding
p26
aS'0.32'
p27
aa(lp28
VGO:0070491
p29
aVrepressing transcription factor binding
p30
aS'0.32'
p31
aa(lp32
VGO:0046982
p33
aVprotein heterodimerization activity
p34
aS'0.32'
p35
aa(lp36
VGO:0005509
p37
aVcalcium ion binding
p38
aS'0.32'
p39
aa(lp40
VGO:0042803
p41
aVprotein homodimerization activity
p42
aS'0.32'
p43
aa(lp44
VGO:0019904
p45
aVprotein domain specific binding
p46
aS'0.32'
p47
aa(lp48
VGO:0042809
p49
aVvitamin D receptor binding
p50
aS'0.32'
p51
aa(lp52
VGO:0043425
p53
aVbHLH transcription factor binding
p54
aS'0.32'
p55
aa(lp56
VGO:0005524
p57
aVATP binding
p58
aS'0.32'
p59
aaaa(lp60
VB4X5Z2_PIG
p61
aVB4X5Z2
p62
ag6
aI9823
a(lp63
(lp64
g9
ag10
aS'0.71'
p65
aa(lp66
VGO:0001010
p67
aVsequence-specific DNA binding transcription factor recruiting transcription factor activity
p68
aS'0.03'
p69
aa(lp70
g13
ag14
aS'0.03'
p71
aa(lp72
VGO:0001078
p73
aVRNA polymerase II core promoter proximal region sequence-specific DNA binding transcription factor activity involved in negative regulation of transcription
p74
aS'0.03'
p75
aa(lp76
VGO:0003705
p77
aVRNA polymerase II distal enhancer sequence-specific DNA binding transcription factor activity
p78
aS'0.03'
p79
aaaa(lp80
VF8UV46_PIG
p81
aVF8UV46
p82
ag6
aI9823
a(lp83
(lp84
VGO:0031625
p85
aVubiquitin protein ligase binding
p86
aS'0.84'
p87
aa(lp88
VGO:0017091
p89
aVAU-rich element binding
p90
aS'0.8'
p91
aa(lp92
VGO:0003730
p93
aVmRNA 3'-UTR binding
p94
aS'0.78'
p95
aa(lp96
g9
ag10
aS'0.76'
p97
aa(lp98
VGO:0048027
p99
aVmRNA 5'-UTR binding
p100
aS'0.75'
p101
aa(lp102
VGO:0003697
p103
aVsingle-stranded DNA binding
p104
aS'0.73'
p105
aa(lp106
g13
ag14
aS'0.73'
p107
aa(lp108
VGO:0045182
p109
aVtranslation regulator activity
p110
aS'0.73'
p111
aa(lp112
VGO:0004004
p113
aVATP-dependent RNA helicase activity
p114
aS'0.73'
p115
aaaa(lp116
VKEAP1_PIG
p117
aVQ684M4
p118
ag6
aI9823
a(lp119
(lp120
g41
ag42
aS'0.85'
p121
aa(lp122
VGO:0043996
p123
aVhistone acetyltransferase activity (H4-K8 specific)
p124
aS'0.81'
p125
aa(lp126
VGO:0031208
p127
aVPOZ domain binding
p128
aS'0.81'
p129
aa(lp130
g33
ag34
aS'0.8'
p131
aa(lp132
VGO:0019964
p133
aVinterferon-gamma binding
p134
aS'0.76'
p135
aa(lp136
VGO:0005200
p137
aVstructural constituent of cytoskeleton
p138
aS'0.74'
p139
aa(lp140
VGO:0003713
p141
aVtranscription coactivator activity
p142
aS'0.74'
p143
aa(lp144
VGO:0004842
p145
aVubiquitin-protein ligase activity
p146
aS'0.74'
p147
aa(lp148
g73
ag74
aS'0.71'
p149
aa(lp150
VGO:0008017
p151
aVmicrotubule binding
p152
aS'0.7'
p153
aa(lp154
VGO:0008134
p155
aVtranscription factor binding
p156
aS'0.7'
p157
aa(lp158
g9
ag10
aS'0.7'
p159
aa(lp160
VGO:0003680
p161
aVAT DNA binding
p162
aS'0.7'
p163
aa(lp164
VGO:0043035
p165
aVchromatin insulator sequence binding
p166
aS'0.7'
p167
aa(lp168
VGO:0000980
p169
aVRNA polymerase II distal enhancer sequence-specific DNA binding
p170
aS'0.7'
p171
aa(lp172
VGO:0032947
p173
aVprotein complex scaffold
p174
aS'0.62'
p175
aa(lp176
VGO:0051015
p177
aVactin filament binding
p178
aS'0.62'
p179
aaaa(lp180
VF1SBT6_PIG
p181
aVF1SBT6
p182
ag6
aI9823
a(lp183
(lp184
g93
ag94
aS'0.87'
p185
aa(lp186
g89
ag90
aS'0.85'
p187
aa(lp188
g103
ag104
aS'0.85'
p189
aa(lp190
g9
ag10
aS'0.84'
p191
aa(lp192
g99
ag100
aS'0.84'
p193
aa(lp194
g113
ag114
aS'0.83'
p195
aa(lp196
g13
ag14
aS'0.82'
p197
aa(lp198
g109
ag110
aS'0.82'
p199
aa(lp200
g85
ag86
aS'0.82'
p201
aa(lp202
VGO:0035438
p203
aVcyclic-di-GMP binding
p204
aS'0.67'
p205
aaaa(lp206
VF1SPQ1_PIG
p207
aVF1SPQ1
p208
ag6
aI9823
a(lp209
(lp210
g9
ag10
aS'0.79'
p211
aa(lp212
VGO:0005515
p213
aVprotein binding
p214
aS'0.6'
p215
aaaa(lp216
VF1SKA0_PIG
p217
aVF1SKA0
p218
ag6
aI9823
a(lp219
(lp220
g9
ag10
aS'0.9'
p221
aaaa(lp222
VQ58L58_PIG
p223
aVQ58L58
p224
ag6
aI9823
a(lp225
(lp226
g9
ag10
aS'0.38'
p227
aa(lp228
g41
ag42
aS'0.14'
p229
aaaa(lp230
VF1SK01_PIG
p231
aVF1SK01
p232
ag6
aI9823
a(lp233
(lp234
g9
ag10
aS'0.51'
p235
aa(lp236
g33
ag34
aS'0.48'
p237
aa(lp238
VGO:0008270
p239
aVzinc ion binding
p240
aS'0.46'
p241
aa(lp242
g165
ag166
aS'0.46'
p243
aa(lp244
VGO:0008022
p245
aVprotein C-terminus binding
p246
aS'0.38'
p247
aaaa(lp248
VF1SBW4_PIG
p249
aVF1SBW4
p250
ag6
aI9823
a(lp251
(lp252
g89
ag90
aS'0.57'
p253
aa(lp254
g93
ag94
aS'0.54'
p255
aa(lp256
g9
ag10
aS'0.53'
p257
aa(lp258
g99
ag100
aS'0.51'
p259
aa(lp260
g113
ag114
aS'0.49'
p261
aa(lp262
g103
ag104
aS'0.48'
p263
aa(lp264
g13
ag14
aS'0.48'
p265
aa(lp266
g109
ag110
aS'0.48'
p267
aa(lp268
g85
ag86
aS'0.47'
p269
aaaa(lp270
VF1SBC0_PIG
p271
aVF1SBC0
p272
ag6
aI9823
a(lp273
(lp274
g77
ag78
aS'0.86'
p275
aa(lp276
g9
ag10
aS'0.72'
p277
aaaa(lp278
VE7BUL7_PIG
p279
aVE7BUL7
p280
ag6
aI9823
a(lp281
(lp282
g41
ag42
aS'0.83'
p283
aa(lp284
g33
ag34
aS'0.83'
p285
aa(lp286
g127
ag128
aS'0.83'
p287
aa(lp288
g151
ag152
aS'0.78'
p289
aa(lp290
g155
ag156
aS'0.78'
p291
aa(lp292
g9
ag10
aS'0.78'
p293
aa(lp294
g169
ag170
aS'0.78'
p295
aa(lp296
g161
ag162
aS'0.78'
p297
aa(lp298
g165
ag166
aS'0.78'
p299
aa(lp300
g73
ag74
aS'0.78'
p301
aa(lp302
g177
ag178
aS'0.77'
p303
aaaa(lp304
VF1S6I8_PIG
p305
aVF1S6I8
p306
ag6
aI9823
a(lp307
(lp308
VGO:0001205
p309
aVRNA polymerase II distal enhancer sequence-specific DNA binding transcription factor activity involved in positive regulation of transcription
p310
aS'0.4'
p311
aa(lp312
g9
ag10
aS'0.39'
p313
aaaa(lp314
VF1RI50_PIG
p315
aVF1RI50
p316
ag6
aI9823
a(lp317
(lp318
g9
ag10
aS'0.81'
p319
aa(lp320
VGO:0019237
p321
aVcentromeric DNA binding
p322
aS'0.39'
p323
aa(lp324
g245
ag246
aS'0.38'
p325
aa(lp326
VGO:0019901
p327
aVprotein kinase binding
p328
aS'0.38'
p329
aa(lp330
VGO:0001085
p331
aVRNA polymerase II transcription factor binding
p332
aS'0.38'
p333
aa(lp334
g73
ag74
aS'0.35'
p335
aa(lp336
VGO:0000287
p337
aVmagnesium ion binding
p338
aS'0.35'
p339
aa(lp340
g13
ag14
aS'0.35'
p341
aaaa(lp342
VF1RPK1_PIG
p343
aVF1RPK1
p344
ag6
aI9823
a(lp345
(lp346
VGO:0051082
p347
aVunfolded protein binding
p348
aS'0.88'
p349
aa(lp350
VGO:0001103
p351
aVRNA polymerase II repressing transcription factor binding
p352
aS'0.82'
p353
aa(lp354
VGO:0003684
p355
aVdamaged DNA binding
p356
aS'0.79'
p357
aa(lp358
VGO:0016887
p359
aVATPase activity
p360
aS'0.79'
p361
aa(lp362
VGO:0000014
p363
aVsingle-stranded DNA endodeoxyribonuclease activity
p364
aS'0.79'
p365
aa(lp366
g9
ag10
aS'0.79'
p367
aa(lp368
VGO:0001106
p369
aVRNA polymerase II transcription corepressor activity
p370
aS'0.79'
p371
aa(lp372
g13
ag14
aS'0.79'
p373
aaaa(lp374
VB4YSF0_PIG
p375
aVB4YSF0
p376
ag6
aI9823
a(lp377
(lp378
g9
ag10
aS'0.81'
p379
aa(lp380
VGO:0000979
p381
aVRNA polymerase II core promoter sequence-specific DNA binding
p382
aS'0.52'
p383
aaaa(lp384
VF1SGF8_PIG
p385
aVF1SGF8
p386
ag6
aI9823
a(lp387
(lp388
g9
ag10
aS'0.77'
p389
aa(lp390
g165
ag166
aS'0.46'
p391
aa(lp392
g239
ag240
aS'0.45'
p393
aaaa(lp394
VF1SL18_PIG
p395
aVF1SL18
p396
ag6
aI9823
a(lp397
(lp398
g9
ag10
aS'0.78'
p399
aa(lp400
g165
ag166
aS'0.77'
p401
aa(lp402
g41
ag42
aS'0.75'
p403
aa(lp404
g169
ag170
aS'0.73'
p405
aa(lp406
g73
ag74
aS'0.73'
p407
aa(lp408
g151
ag152
aS'0.72'
p409
aa(lp410
g127
ag128
aS'0.72'
p411
aa(lp412
g33
ag34
aS'0.72'
p413
aa(lp414
g161
ag162
aS'0.71'
p415
aa(lp416
VGO:0001002
p417
aVRNA polymerase III type 1 promoter sequence-specific DNA binding
p418
aS'0.7'
p419
aa(lp420
g77
ag78
aS'0.61'
p421
aa(lp422
g239
ag240
aS'0.6'
p423
aaaa(lp424
VF1SLD8_PIG
p425
aVF1SLD8
p426
ag6
aI9823
a(lp427
(lp428
g9
ag10
aS'0.42'
p429
aa(lp430
g41
ag42
aS'0.14'
p431
aaaa(lp432
VF1S012_PIG
p433
aVF1S012
p434
ag6
aI9823
a(lp435
(lp436
g9
ag10
aS'0.81'
p437
aa(lp438
g245
ag246
aS'0.48'
p439
aa(lp440
g73
ag74
aS'0.48'
p441
aa(lp442
g337
ag338
aS'0.48'
p443
aa(lp444
g327
ag328
aS'0.48'
p445
aa(lp446
g13
ag14
aS'0.48'
p447
aa(lp448
g331
ag332
aS'0.48'
p449
aa(lp450
g321
ag322
aS'0.48'
p451
aaaa(lp452
VF1SNI8_PIG
p453
aVF1SNI8
p454
ag6
aI9823
a(lp455
(lp456
g145
ag146
aS'0.86'
p457
aa(lp458
g41
ag42
aS'0.79'
p459
aa(lp460
g127
ag128
aS'0.77'
p461
aa(lp462
g33
ag34
aS'0.76'
p463
aa(lp464
g151
ag152
aS'0.73'
p465
aa(lp466
g155
ag156
aS'0.73'
p467
aa(lp468
g9
ag10
aS'0.73'
p469
aa(lp470
g161
ag162
aS'0.73'
p471
aa(lp472
g165
ag166
aS'0.73'
p473
aa(lp474
g73
ag74
aS'0.73'
p475
aa(lp476
g169
ag170
aS'0.73'
p477
aa(lp478
g123
ag124
aS'0.6'
p479
aaaa(lp480
VF1SJ05_PIG
p481
aVF1SJ05
p482
ag6
aI9823
a(lp483
(lp484
g89
ag90
aS'0.61'
p485
aa(lp486
g93
ag94
aS'0.57'
p487
aa(lp488
g9
ag10
aS'0.56'
p489
aa(lp490
g99
ag100
aS'0.54'
p491
aa(lp492
g113
ag114
aS'0.52'
p493
aa(lp494
g103
ag104
aS'0.51'
p495
aa(lp496
g13
ag14
aS'0.51'
p497
aa(lp498
g109
ag110
aS'0.5'
p499
aa(lp500
g85
ag86
aS'0.5'
p501
aaaa(lp502
VF1RPL1_PIG
p503
aVF1RPL1
p504
ag6
aI9823
a(lp505
(lp506
g355
ag356
aS'0.21'
p507
aa(lp508
g9
ag10
aS'0.21'
p509
aa(lp510
g321
ag322
aS'0.21'
p511
aa(lp512
VGO:0003777
p513
aVmicrotubule motor activity
p514
aS'0.18'
p515
aa(lp516
g25
ag26
aS'0.18'
p517
aa(lp518
VGO:0042393
p519
aVhistone binding
p520
aS'0.18'
p521
aa(lp522
VGO:0019899
p523
aVenzyme binding
p524
aS'0.18'
p525
aa(lp526
VGO:0042802
p527
aVidentical protein binding
p528
aS'0.18'
p529
aa(lp530
VGO:0005089
p531
aVRho guanyl-nucleotide exchange factor activity
p532
aS'0.18'
p533
aa(lp534
VGO:0017124
p535
aVSH3 domain binding
p536
aS'0.18'
p537
aa(lp538
VGO:0005100
p539
aVRho GTPase activator activity
p540
aS'0.18'
p541
aaaa(lp542
VF1RWW1_PIG
p543
aVF1RWW1
p544
ag6
aI9823
a(lp545
(lp546
g9
ag10
aS'0.41'
p547
aa(lp548
VGO:0035497
p549
aVcAMP response element binding
p550
aS'0.25'
p551
aa(lp552
g41
ag42
aS'0.2'
p553
aaaa(lp554
VF1SCS7_PIG
p555
aVF1SCS7
p556
ag6
aI9823
a(lp557
(lp558
g9
ag10
aS'0.39'
p559
aa(lp560
g549
ag550
aS'0.12'
p561
aaaa(lp562
VF1SCS2_PIG
p563
aVF1SCS2
p564
ag6
aI9823
a(lp565
(lp566
g9
ag10
aS'0.42'
p567
aa(lp568
g549
ag550
aS'0.38'
p569
aa(lp570
VGO:0032403
p571
aVprotein complex binding
p572
aS'0.35'
p573
aa(lp574
g41
ag42
aS'0.31'
p575
aaaa(lp576
VF1SLC6_PIG
p577
aVF1SLC6
p578
ag6
aI9823
a(lp579
(lp580
g73
ag74
aS'0.78'
p581
aa(lp582
g41
ag42
aS'0.7'
p583
aa(lp584
g33
ag34
aS'0.7'
p585
aa(lp586
g127
ag128
aS'0.7'
p587
aa(lp588
VGO:0005044
p589
aVscavenger receptor activity
p590
aS'0.64'
p591
aa(lp592
g151
ag152
aS'0.6'
p593
aa(lp594
g155
ag156
aS'0.6'
p595
aa(lp596
g9
ag10
aS'0.6'
p597
aa(lp598
g169
ag170
aS'0.6'
p599
aa(lp600
g161
ag162
aS'0.6'
p601
aa(lp602
g165
ag166
aS'0.6'
p603
aaaa(lp604
VMYOG_PIG
p605
aVP49812
p606
ag6
aI9823
a(lp607
(lp608
g9
ag10
aS'0.39'
p609
aa(lp610
g549
ag550
aS'0.27'
p611
aa(lp612
g41
ag42
aS'0.21'
p613
aaaa(lp614
VQ9BEJ3_PIG
p615
aVQ9BEJ3
p616
ag6
aI9823
a(lp617
(lp618
g9
ag10
aS'0.61'
p619
aa(lp620
g33
ag34
aS'0.35'
p621
aa(lp622
VGO:0071837
p623
aVHMG box domain binding
p624
aS'0.33'
p625
aaaa(lp626
VF1SKR4_PIG
p627
aVF1SKR4
p628
ag6
aI9823
a(lp629
(lp630
VGO:0019911
p631
aVstructural constituent of myelin sheath
p632
aS'0.91'
p633
aa(lp634
VGO:0008119
p635
aVthiopurine S-methyltransferase activity
p636
aS'0.27'
p637
aa(lp638
VGO:0042169
p639
aVSH2 domain binding
p640
aS'0.21'
p641
aa(lp642
VGO:0015267
p643
aVchannel activity
p644
aS'0.21'
p645
aa(lp646
VGO:0016505
p647
aVpeptidase activator activity involved in apoptotic process
p648
aS'0.21'
p649
aa(lp650
VGO:0015075
p651
aVion transmembrane transporter activity
p652
aS'0.21'
p653
aa(lp654
g37
ag38
aS'0.21'
p655
aa(lp656
g527
ag528
aS'0.21'
p657
aa(lp658
g571
ag572
aS'0.21'
p659
aa(lp660
VGO:0017075
p661
aVsyntaxin-1 binding
p662
aS'0.21'
p663
aa(lp664
VGO:0047485
p665
aVprotein N-terminus binding
p666
aS'0.21'
p667
aa(lp668
VGO:0015485
p669
aVcholesterol binding
p670
aS'0.21'
p671
aa(lp672
VGO:0019956
p673
aVchemokine binding
p674
aS'0.21'
p675
aaaa(lp676
VC8ZLJ3_PIG
p677
aVC8ZLJ3
p678
ag6
aI9823
a(lp679
(lp680
g9
ag10
aS'0.41'
p681
aa(lp682
g41
ag42
aS'0.21'
p683
aa(lp684
g549
ag550
aS'0.19'
p685
aaaa(lp686
VB6C729_PIG
p687
aVB6C729
p688
ag6
aI9823
a(lp689
(lp690
g77
ag78
aS'0.27'
p691
aa(lp692
g9
ag10
aS'0.22'
p693
aa(lp694
g41
ag42
aS'0.21'
p695
aa(lp696
g549
ag550
aS'0.19'
p697
aaaa(lp698
VF1S778_PIG
p699
aVF1S778
p700
ag6
aI9823
a(lp701
(lp702
g9
ag10
aS'0.61'
p703
aa(lp704
g25
ag26
aS'0.47'
p705
aa(lp706
g41
ag42
aS'0.47'
p707
aa(lp708
VGO:0070410
p709
aVco-SMAD binding
p710
aS'0.47'
p711
aa(lp712
g177
ag178
aS'0.47'
p713
aa(lp714
g33
ag34
aS'0.47'
p715
aa(lp716
g351
ag352
aS'0.47'
p717
aa(lp718
VGO:0003785
p719
aVactin monomer binding
p720
aS'0.47'
p721
aa(lp722
g77
ag78
aS'0.47'
p723
aa(lp724
g13
ag14
aS'0.47'
p725
aa(lp726
VGO:0003714
p727
aVtranscription corepressor activity
p728
aS'0.47'
p729
aaaa(lp730
VF1SSG9_PIG
p731
aVF1SSG9
p732
ag6
aI9823
a(lp733
(lp734
g9
ag10
aS'0.75'
p735
aa(lp736
VGO:0043028
p737
aVcysteine-type endopeptidase regulator activity involved in apoptotic process
p738
aS'0.07'
p739
aa(lp740
VGO:0008301
p741
aVDNA binding, bending
p742
aS'0.06'
p743
aa(lp744
g709
ag710
aS'0.06'
p745
aa(lp746
VGO:0070412
p747
aVR-SMAD binding
p748
aS'0.06'
p749
aa(lp750
g45
ag46
aS'0.06'
p751
aa(lp752
g13
ag14
aS'0.06'
p753
aaaa(lp754
VF1SHM8_PIG
p755
aVF1SHM8
p756
ag6
aI9823
a(lp757
(lp758
g73
ag74
aS'0.78'
p759
aa(lp760
g155
ag156
aS'0.77'
p761
aa(lp762
g33
ag34
aS'0.77'
p763
aa(lp764
g41
ag42
aS'0.77'
p765
aa(lp766
g151
ag152
aS'0.62'
p767
aa(lp768
g127
ag128
aS'0.62'
p769
aa(lp770
g9
ag10
aS'0.62'
p771
aa(lp772
g169
ag170
aS'0.62'
p773
aa(lp774
g165
ag166
aS'0.62'
p775
aa(lp776
g161
ag162
aS'0.62'
p777
aaaa(lp778
VA3RGC0_PIG
p779
aVA3RGC0
p780
ag6
aI9823
a(lp781
(lp782
g727
ag728
aS'0.54'
p783
aa(lp784
g9
ag10
aS'0.42'
p785
aaaa(lp786
VF1S3X6_PIG
p787
aVF1S3X6
p788
ag6
aI9823
a(lp789
(lp790
g9
ag10
aS'0.41'
p791
aa(lp792
g549
ag550
aS'0.26'
p793
aa(lp794
g41
ag42
aS'0.21'
p795
aaaa(lp796
VF1SS94_PIG
p797
aVF1SS94
p798
ag6
aI9823
a(lp799
(lp800
g9
ag10
aS'0.51'
p801
aa(lp802
g549
ag550
aS'0.33'
p803
aa(lp804
g77
ag78
aS'0.31'
p805
aa(lp806
g41
ag42
aS'0.29'
p807
aa(lp808
g33
ag34
aS'0.25'
p809
aaaa(lp810
VF1RFU9_PIG
p811
aVF1RFU9
p812
ag6
aI9823
a(lp813
(lp814
VGO:0001162
p815
aVRNA polymerase II intronic transcription regulatory region sequence-specific DNA binding
p816
aS'0.82'
p817
aa(lp818
g13
ag14
aS'0.8'
p819
aa(lp820
g9
ag10
aS'0.8'
p821
aa(lp822
g727
ag728
aS'0.8'
p823
aaaa(lp824
VF1S3C4_PIG
p825
aVF1S3C4
p826
ag6
aI9823
a(lp827
(lp828
g9
ag10
aS'0.47'
p829
aa(lp830
g549
ag550
aS'0.38'
p831
aa(lp832
g41
ag42
aS'0.35'
p833
aaaa(lp834
VF1ST00_PIG
p835
aVF1ST00
p836
ag6
aI9823
a(lp837
(lp838
g9
ag10
aS'0.73'
p839
aa(lp840
g213
ag214
aS'0.72'
p841
aa(lp842
g77
ag78
aS'0.69'
p843
aa(lp844
g25
ag26
aS'0.6'
p845
aaaa(lp846
VF1S924_PIG
p847
aVF1S924
p848
ag6
aI9823
a(lp849
(lp850
g9
ag10
aS'0.66'
p851
aaaa(lp852
VF1RTA8_PIG
p853
aVF1RTA8
p854
ag6
aI9823
a(lp855
(lp856
g9
ag10
aS'0.39'
p857
aa(lp858
g549
ag550
aS'0.12'
p859
aa(lp860
g41
ag42
aS'0.11'
p861
aaaa(lp862
VF1SED6_PIG
p863
aVF1SED6
p864
ag6
aI9823
a(lp865
(lp866
g9
ag10
aS'0.46'
p867
aa(lp868
g549
ag550
aS'0.36'
p869
aa(lp870
g41
ag42
aS'0.34'
p871
aaaa(lp872
VF1SKV1_PIG
p873
aVF1SKV1
p874
ag6
aI9823
a(lp875
(lp876
g9
ag10
aS'0.83'
p877
aa(lp878
g417
ag418
aS'0.77'
p879
aa(lp880
g73
ag74
aS'0.75'
p881
aa(lp882
g169
ag170
aS'0.59'
p883
aa(lp884
g165
ag166
aS'0.59'
p885
aaaa(lp886
VF1S6X0_PIG
p887
aVF1S6X0
p888
ag6
aI9823
a(lp889
(lp890
g9
ag10
aS'0.79'
p891
aa(lp892
g169
ag170
aS'0.32'
p893
aaaa(lp894
VF1RG79_PIG
p895
aVF1RG79
p896
ag6
aI9823
a(lp897
(lp898
g239
ag240
aS'0.82'
p899
aa(lp900
VGO:0042800
p901
aVhistone methyltransferase activity (H3-K4 specific)
p902
aS'0.76'
p903
aa(lp904
g9
ag10
aS'0.71'
p905
aa(lp906
g13
ag14
aS'0.7'
p907
aa(lp908
g41
ag42
aS'0.67'
p909
aaaa(lp910
VF1SAU8_PIG
p911
aVF1SAU8
p912
ag6
aI9823
a(lp913
(lp914
g417
ag418
aS'0.73'
p915
aa(lp916
g239
ag240
aS'0.69'
p917
aa(lp918
g9
ag10
aS'0.58'
p919
aa(lp920
g41
ag42
aS'0.55'
p921
aa(lp922
VGO:0001152
p923
aVRNA polymerase III type 1 promoter sequence-specific DNA binding TFIIIC recruiting transcription factor activity
p924
aS'0.54'
p925
aaaa(lp926
VF1RH75_PIG
p927
aVF1RH75
p928
ag6
aI9823
a(lp929
(lp930
g9
ag10
aS'0.38'
p931
aa(lp932
VGO:0046966
p933
aVthyroid hormone receptor binding
p934
aS'0.32'
p935
aaaa(lp936
VF1SJC5_PIG
p937
aVF1SJC5
p938
ag6
aI9823
a(lp939
(lp940
g549
ag550
aS'0.37'
p941
aa(lp942
g9
ag10
aS'0.34'
p943
aaaa(lp944
VB3W6M6_PIG
p945
aVB3W6M6
p946
ag6
aI9823
a(lp947
(lp948
g9
ag10
aS'0.42'
p949
aa(lp950
g549
ag550
aS'0.12'
p951
aaaa(lp952
VF1SKA4_PIG
p953
aVF1SKA4
p954
ag6
aI9823
a(lp955
(lp956
g9
ag10
aS'0.77'
p957
aa(lp958
g169
ag170
aS'0.13'
p959
aa(lp960
g155
ag156
aS'0.12'
p961
aa(lp962
g45
ag46
aS'0.12'
p963
aa(lp964
g77
ag78
aS'0.11'
p965
aa(lp966
g13
ag14
aS'0.11'
p967
aa(lp968
VGO:0001135
p969
aVRNA polymerase II transcription factor recruiting transcription factor activity
p970
aS'0.11'
p971
aaaa(lp972
VA5GFN3_PIG
p973
aVA5GFN3
p974
ag6
aI9823
a(lp975
(lp976
g9
ag10
aS'0.84'
p977
aa(lp978
g519
ag520
aS'0.82'
p979
aa(lp980
g165
ag166
aS'0.72'
p981
aaaa(lp982
VF1RJY2_PIG
p983
aVF1RJY2
p984
ag6
aI9823
a(lp985
(lp986
g9
ag10
aS'0.45'
p987
aa(lp988
g549
ag550
aS'0.4'
p989
aa(lp990
g41
ag42
aS'0.31'
p991
aaaa(lp992
VF1RNK0_PIG
p993
aVF1RNK0
p994
ag6
aI9823
a(lp995
(lp996
g9
ag10
aS'0.43'
p997
aa(lp998
g549
ag550
aS'0.12'
p999
aa(lp1000
g41
ag42
aS'0.11'
p1001
aaaa(lp1002
VF2Z5L2_PIG
p1003
aVF2Z5L2
p1004
ag6
aI9823
a(lp1005
(lp1006
g9
ag10
aS'0.25'
p1007
aa(lp1008
g355
ag356
aS'0.23'
p1009
aa(lp1010
g321
ag322
aS'0.23'
p1011
aa(lp1012
g513
ag514
aS'0.21'
p1013
aa(lp1014
g25
ag26
aS'0.21'
p1015
aa(lp1016
g519
ag520
aS'0.21'
p1017
aa(lp1018
g523
ag524
aS'0.21'
p1019
aa(lp1020
g527
ag528
aS'0.21'
p1021
aa(lp1022
g531
ag532
aS'0.21'
p1023
aa(lp1024
g535
ag536
aS'0.21'
p1025
aa(lp1026
g539
ag540
aS'0.21'
p1027
aaaa(lp1028
VF1RXX9_PIG
p1029
aVF1RXX9
p1030
ag6
aI9823
a(lp1031
(lp1032
VGO:0015271
p1033
aVoutward rectifier potassium channel activity
p1034
aS'0.36'
p1035
aa(lp1036
g9
ag10
aS'0.35'
p1037
aaaa(lp1038
VF1RHD5_PIG
p1039
aVF1RHD5
p1040
ag6
aI9823
a(lp1041
(lp1042
VGO:0005166
p1043
aVneurotrophin p75 receptor binding
p1044
aS'0.88'
p1045
aa(lp1046
g9
ag10
aS'0.69'
p1047
aaaa(lp1048
VF1STG4_PIG
p1049
aVF1STG4
p1050
ag6
aI9823
a(lp1051
(lp1052
g9
ag10
aS'0.79'
p1053
aa(lp1054
g213
ag214
aS'0.08'
p1055
aaaa(lp1056
VD3K5M1_PIG
p1057
aVD3K5M1
p1058
ag6
aI9823
a(lp1059
(lp1060
g9
ag10
aS'0.46'
p1061
aa(lp1062
g549
ag550
aS'0.38'
p1063
aaaa(lp1064
VF2Z5L5_PIG
p1065
aVF2Z5L5
p1066
ag6
aI9823
a(lp1067
(lp1068
g513
ag514
aS'0.22'
p1069
aa(lp1070
g25
ag26
aS'0.22'
p1071
aa(lp1072
g355
ag356
aS'0.22'
p1073
aa(lp1074
g519
ag520
aS'0.22'
p1075
aa(lp1076
g9
ag10
aS'0.22'
p1077
aa(lp1078
g523
ag524
aS'0.22'
p1079
aa(lp1080
g527
ag528
aS'0.22'
p1081
aa(lp1082
g531
ag532
aS'0.22'
p1083
aa(lp1084
g535
ag536
aS'0.22'
p1085
aa(lp1086
g539
ag540
aS'0.22'
p1087
aa(lp1088
g321
ag322
aS'0.22'
p1089
aaaa(lp1090
VF1SH30_PIG
p1091
aVF1SH30
p1092
ag6
aI9823
a(lp1093
(lp1094
VGO:0001133
p1095
aVsequence-specific transcription regulatory region DNA binding RNA polymerase II transcription factor recruiting transcription factor activity
p1096
aS'0.66'
p1097
aa(lp1098
VGO:0043621
p1099
aVprotein self-association
p1100
aS'0.64'
p1101
aa(lp1102
g9
ag10
aS'0.6'
p1103
aa(lp1104
g623
ag624
aS'0.54'
p1105
aaaa(lp1106
VF1SA34_PIG
p1107
aVF1SA34
p1108
ag6
aI9823
a(lp1109
(lp1110
VGO:0030674
p1111
aVprotein binding, bridging
p1112
aS'0.76'
p1113
aa(lp1114
g239
ag240
aS'0.7'
p1115
aa(lp1116
VGO:0000995
p1117
aVcore RNA polymerase III binding transcription factor activity
p1118
aS'0.64'
p1119
aa(lp1120
g9
ag10
aS'0.59'
p1121
aaaa(lp1122
VQ0Q045_PIG
p1123
aVQ0Q045
p1124
ag6
aI9823
a(lp1125
(lp1126
g9
ag10
aS'0.42'
p1127
aa(lp1128
VGO:0070644
p1129
aVvitamin D response element binding
p1130
aS'0.12'
p1131
aa(lp1132
VGO:0017022
p1133
aVmyosin binding
p1134
aS'0.1'
p1135
aa(lp1136
VGO:0005500
p1137
aVjuvenile hormone binding
p1138
aS'0.1'
p1139
aaaa(lp1140
VF2Z5I4_PIG
p1141
aVF2Z5I4
p1142
ag6
aI9823
a(lp1143
(lp1144
g355
ag356
aS'0.17'
p1145
aa(lp1146
g9
ag10
aS'0.17'
p1147
aa(lp1148
g321
ag322
aS'0.17'
p1149
aaaa(lp1150
VF1RH58_PIG
p1151
aVF1RH58
p1152
ag6
aI9823
a(lp1153
(lp1154
g9
ag10
aS'0.46'
p1155
aa(lp1156
g245
ag246
aS'0.39'
p1157
aaaa(lp1158
VF1S693_PIG
p1159
aVF1S693
p1160
ag6
aI9823
a(lp1161
(lp1162
g9
ag10
aS'0.42'
p1163
aa(lp1164
g549
ag550
aS'0.29'
p1165
aa(lp1166
g41
ag42
aS'0.25'
p1167
aaaa(lp1168
VF1RFL0_PIG
p1169
aVF1RFL0
p1170
ag6
aI9823
a(lp1171
(lp1172
g9
ag10
aS'0.39'
p1173
aa(lp1174
g549
ag550
aS'0.12'
p1175
aaaa(lp1176
VA8ILX3_PIG
p1177
aVA8ILX3
p1178
ag6
aI9823
a(lp1179
(lp1180
g9
ag10
aS'0.8'
p1181
aa(lp1182
g13
ag14
aS'0.79'
p1183
aa(lp1184
g623
ag624
aS'0.72'
p1185
aaaa(lp1186
VD1MBJ5_PIG
p1187
aVD1MBJ5
p1188
ag6
aI9823
a(lp1189
(lp1190
g9
ag10
aS'0.41'
p1191
aa(lp1192
g549
ag550
aS'0.12'
p1193
aaaa(lp1194
VF1S6D5_PIG
p1195
aVF1S6D5
p1196
ag6
aI9823
a(lp1197
(lp1198
g9
ag10
aS'0.82'
p1199
aa(lp1200
g169
ag170
aS'0.77'
p1201
aa(lp1202
g41
ag42
aS'0.77'
p1203
aa(lp1204
g127
ag128
aS'0.77'
p1205
aa(lp1206
g33
ag34
aS'0.77'
p1207
aa(lp1208
g165
ag166
aS'0.77'
p1209
aa(lp1210
g73
ag74
aS'0.77'
p1211
aa(lp1212
g151
ag152
aS'0.76'
p1213
aa(lp1214
g161
ag162
aS'0.76'
p1215
aa(lp1216
g417
ag418
aS'0.74'
p1217
aaaa(lp1218
VGATA6_PIG
p1219
aVQ95JA5
p1220
ag6
aI9823
a(lp1221
(lp1222
g77
ag78
aS'0.88'
p1223
aa(lp1224
g9
ag10
aS'0.7'
p1225
aaaa(lp1226
VF1RKY5_PIG
p1227
aVF1RKY5
p1228
ag6
aI9823
a(lp1229
(lp1230
g73
ag74
aS'0.74'
p1231
aa(lp1232
g417
ag418
aS'0.71'
p1233
aa(lp1234
g9
ag10
aS'0.63'
p1235
aa(lp1236
g245
ag246
aS'0.61'
p1237
aa(lp1238
g41
ag42
aS'0.61'
p1239
aa(lp1240
g923
ag924
aS'0.56'
p1241
aaaa(lp1242
VF1SUK0_PIG
p1243
aVF1SUK0
p1244
ag6
aI9823
a(lp1245
(lp1246
g9
ag10
aS'0.41'
p1247
aa(lp1248
g933
ag934
aS'0.35'
p1249
aaaa(lp1250
VE3VJQ3_PIG
p1251
aVE3VJQ3
p1252
ag6
aI9823
a(lp1253
(lp1254
g9
ag10
aS'0.46'
p1255
aa(lp1256
g13
ag14
aS'0.43'
p1257
aaaa(lp1258
VC8ZLI9_PIG
p1259
aVC8ZLI9
p1260
ag6
aI9823
a(lp1261
(lp1262
g9
ag10
aS'0.43'
p1263
aa(lp1264
g549
ag550
aS'0.12'
p1265
aa(lp1266
g41
ag42
aS'0.1'
p1267
aaaa(lp1268
VF1RUJ7_PIG
p1269
aVF1RUJ7
p1270
ag6
aI9823
a(lp1271
(lp1272
g9
ag10
aS'0.81'
p1273
aa(lp1274
VGO:0001102
p1275
aVRNA polymerase II activating transcription factor binding
p1276
aS'0.52'
p1277
aaaa(lp1278
VID4_PIG
p1279
aVQ06AV5
p1280
ag6
aI9823
a(lp1281
(lp1282
g9
ag10
aS'0.43'
p1283
aa(lp1284
g549
ag550
aS'0.12'
p1285
aa(lp1286
g41
ag42
aS'0.11'
p1287
aaaa(lp1288
VF1SK05_PIG
p1289
aVF1SK05
p1290
ag6
aI9823
a(lp1291
(lp1292
g9
ag10
aS'0.42'
p1293
aa(lp1294
g41
ag42
aS'0.14'
p1295
aa(lp1296
g549
ag550
aS'0.12'
p1297
aaaa(lp1298
VF1S6H6_PIG
p1299
aVF1S6H6
p1300
ag6
aI9823
a(lp1301
(lp1302
g9
ag10
aS'0.81'
p1303
aa(lp1304
g73
ag74
aS'0.81'
p1305
aaaa(lp1306
VF1SK04_PIG
p1307
aVF1SK04
p1308
ag6
aI9823
a(lp1309
(lp1310
g9
ag10
aS'0.42'
p1311
aa(lp1312
g41
ag42
aS'0.14'
p1313
aa(lp1314
g549
ag550
aS'0.12'
p1315
aaaa(lp1316
VF1RI75_PIG
p1317
aVF1RI75
p1318
ag6
aI9823
a(lp1319
(lp1320
g1111
ag1112
aS'0.74'
p1321
aa(lp1322
g239
ag240
aS'0.73'
p1323
aa(lp1324
g9
ag10
aS'0.69'
p1325
aa(lp1326
g73
ag74
aS'0.68'
p1327
aaaa(lp1328
VF1RQS3_PIG
p1329
aVF1RQS3
p1330
ag6
aI9823
a(lp1331
(lp1332
g9
ag10
aS'0.91'
p1333
aa(lp1334
g25
ag26
aS'0.1'
p1335
aa(lp1336
g29
ag30
aS'0.1'
p1337
aa(lp1338
g33
ag34
aS'0.1'
p1339
aa(lp1340
g37
ag38
aS'0.1'
p1341
aa(lp1342
g41
ag42
aS'0.1'
p1343
aa(lp1344
g45
ag46
aS'0.1'
p1345
aa(lp1346
g77
ag78
aS'0.1'
p1347
aa(lp1348
g49
ag50
aS'0.1'
p1349
aa(lp1350
g53
ag54
aS'0.1'
p1351
aa(lp1352
g57
ag58
aS'0.1'
p1353
aa(lp1354
g13
ag14
aS'0.1'
p1355
aaaa(lp1356
VF1RTX8_PIG
p1357
aVF1RTX8
p1358
ag6
aI9823
a(lp1359
(lp1360
g9
ag10
aS'0.71'
p1361
aa(lp1362
g77
ag78
aS'0.7'
p1363
aaaa(lp1364
VF1RN62_PIG
p1365
aVF1RN62
p1366
ag6
aI9823
a(lp1367
(lp1368
VGO:0015349
p1369
aVthyroid hormone transmembrane transporter activity
p1370
aS'0.79'
p1371
aa(lp1372
VGO:0015132
p1373
aVprostaglandin transmembrane transporter activity
p1374
aS'0.77'
p1375
aaaa(lp1376
VF1RWI0_PIG
p1377
aVF1RWI0
p1378
ag6
aI9823
a(lp1379
(lp1380
g9
ag10
aS'0.44'
p1381
aa(lp1382
g549
ag550
aS'0.4'
p1383
aa(lp1384
g41
ag42
aS'0.33'
p1385
aaaa(lp1386
VF1SIG1_PIG
p1387
aVF1SIG1
p1388
ag6
aI9823
a(lp1389
(lp1390
g9
ag10
aS'0.81'
p1391
aa(lp1392
g13
ag14
aS'0.29'
p1393
aaaa(lp1394
VF1SI06_PIG
p1395
aVF1SI06
p1396
ag6
aI9823
a(lp1397
(lp1398
g93
ag94
aS'0.83'
p1399
aa(lp1400
g527
ag528
aS'0.83'
p1401
aa(lp1402
VGO:0008289
p1403
aVlipid binding
p1404
aS'0.83'
p1405
aa(lp1406
g99
ag100
aS'0.83'
p1407
aa(lp1408
g109
ag110
aS'0.83'
p1409
aa(lp1410
g89
ag90
aS'0.82'
p1411
aa(lp1412
g203
ag204
aS'0.8'
p1413
aa(lp1414
g9
ag10
aS'0.8'
p1415
aa(lp1416
g85
ag86
aS'0.79'
p1417
aa(lp1418
g113
ag114
aS'0.79'
p1419
aa(lp1420
g103
ag104
aS'0.78'
p1421
aa(lp1422
g13
ag14
aS'0.78'
p1423
aa(lp1424
VGO:0008266
p1425
aVpoly(U) RNA binding
p1426
aS'0.69'
p1427
aaaa(lp1428
VA1XWJ7_PIG
p1429
aVA1XWJ7
p1430
ag6
aI9823
a(lp1431
(lp1432
g9
ag10
aS'0.67'
p1433
aa(lp1434
g13
ag14
aS'0.66'
p1435
aaaa(lp1436
VF1RKN0_PIG
p1437
aVF1RKN0
p1438
ag6
aI9823
a(lp1439
(lp1440
g239
ag240
aS'0.81'
p1441
aa(lp1442
g77
ag78
aS'0.81'
p1443
aa(lp1444
g73
ag74
aS'0.7'
p1445
aa(lp1446
g1043
ag1044
aS'0.68'
p1447
aa(lp1448
g9
ag10
aS'0.61'
p1449
aaaa(lp1450
VQ0GFA7_PIG
p1451
aVQ0GFA7
p1452
ag6
aI9823
a(lp1453
(lp1454
g41
ag42
aS'0.79'
p1455
aa(lp1456
g9
ag10
aS'0.77'
p1457
aaaa(lp1458
VF1RU07_PIG
p1459
aVF1RU07
p1460
ag6
aI9823
a(lp1461
(lp1462
g1369
ag1370
aS'0.82'
p1463
aa(lp1464
g1373
ag1374
aS'0.24'
p1465
aaaa(lp1466
VB7SFP8_PIG
p1467
aVB7SFP8
p1468
ag6
aI9823
a(lp1469
(lp1470
g9
ag10
aS'0.91'
p1471
aa(lp1472
g169
ag170
aS'0.15'
p1473
aa(lp1474
g155
ag156
aS'0.13'
p1475
aa(lp1476
g45
ag46
aS'0.13'
p1477
aa(lp1478
g77
ag78
aS'0.12'
p1479
aaaa(lp1480
VF1S6P8_PIG
p1481
aVF1S6P8
p1482
ag6
aI9823
a(lp1483
(lp1484
g9
ag10
aS'0.7'
p1485
aa(lp1486
g73
ag74
aS'0.66'
p1487
aa(lp1488
g239
ag240
aS'0.64'
p1489
aa(lp1490
g77
ag78
aS'0.63'
p1491
aa(lp1492
g41
ag42
aS'0.61'
p1493
aaaa(lp1494
VF1STJ0_PIG
p1495
aVF1STJ0
p1496
ag6
aI9823
a(lp1497
(lp1498
VGO:0051864
p1499
aVhistone demethylase activity (H3-K36 specific)
p1500
aS'0.55'
p1501
aa(lp1502
g9
ag10
aS'0.44'
p1503
aaaa(lp1504
VF1S9S5_PIG
p1505
aVF1S9S5
p1506
ag6
aI9823
a(lp1507
(lp1508
g89
ag90
aS'0.87'
p1509
aa(lp1510
g9
ag10
aS'0.85'
p1511
aa(lp1512
g93
ag94
aS'0.85'
p1513
aa(lp1514
g99
ag100
aS'0.84'
p1515
aa(lp1516
g103
ag104
aS'0.84'
p1517
aa(lp1518
g13
ag14
aS'0.84'
p1519
aa(lp1520
g85
ag86
aS'0.83'
p1521
aa(lp1522
g113
ag114
aS'0.83'
p1523
aa(lp1524
g109
ag110
aS'0.82'
p1525
aa(lp1526
g203
ag204
aS'0.71'
p1527
aaaa(lp1528
VF1SEI0_PIG
p1529
aVF1SEI0
p1530
ag6
aI9823
a(lp1531
(lp1532
g9
ag10
aS'0.39'
p1533
aa(lp1534
g549
ag550
aS'0.12'
p1535
aaaa(lp1536
VQ6DUX7_PIG
p1537
aVQ6DUX7
p1538
ag6
aI9823
a(lp1539
(lp1540
g9
ag10
aS'0.42'
p1541
aa(lp1542
g549
ag550
aS'0.35'
p1543
aa(lp1544
g41
ag42
aS'0.34'
p1545
aaaa(lp1546
VQ1A1Y8_PIG
p1547
aVQ1A1Y8
p1548
ag6
aI9823
a(lp1549
(lp1550
g9
ag10
aS'0.23'
p1551
aa(lp1552
g321
ag322
aS'0.2'
p1553
aaaa(lp1554
VF1RFA4_PIG
p1555
aVF1RFA4
p1556
ag6
aI9823
a(lp1557
(lp1558
g9
ag10
aS'0.85'
p1559
aa(lp1560
g165
ag166
aS'0.39'
p1561
aa(lp1562
g549
ag550
aS'0.37'
p1563
aaaa(lp1564
VF1RTQ5_PIG
p1565
aVF1RTQ5
p1566
ag6
aI9823
a(lp1567
(lp1568
g355
ag356
aS'0.23'
p1569
aa(lp1570
g9
ag10
aS'0.23'
p1571
aa(lp1572
g321
ag322
aS'0.23'
p1573
aa(lp1574
g523
ag524
aS'0.18'
p1575
aaaa(lp1576
VF1S3D3_PIG
p1577
aVF1S3D3
p1578
ag6
aI9823
a(lp1579
(lp1580
g631
ag632
aS'0.79'
p1581
aa(lp1582
g635
ag636
aS'0.3'
p1583
aaaa(lp1584
VF1RUB7_PIG
p1585
aVF1RUB7
p1586
ag6
aI9823
a(lp1587
(lp1588
g165
ag166
aS'0.87'
p1589
aa(lp1590
g73
ag74
aS'0.77'
p1591
aa(lp1592
g151
ag152
aS'0.75'
p1593
aa(lp1594
g9
ag10
aS'0.75'
p1595
aa(lp1596
g169
ag170
aS'0.75'
p1597
aa(lp1598
g41
ag42
aS'0.75'
p1599
aa(lp1600
g33
ag34
aS'0.74'
p1601
aa(lp1602
g161
ag162
aS'0.74'
p1603
aa(lp1604
g127
ag128
aS'0.74'
p1605
aaaa(lp1606
VC3S7S1_PIG
p1607
aVC3S7S1
p1608
ag6
aI9823
a(lp1609
(lp1610
g9
ag10
aS'0.42'
p1611
aa(lp1612
VGO:0008013
p1613
aVbeta-catenin binding
p1614
aS'0.41'
p1615
aa(lp1616
VGO:0045295
p1617
aVgamma-catenin binding
p1618
aS'0.32'
p1619
aaaa(lp1620
VF1RZV6_PIG
p1621
aVF1RZV6
p1622
ag6
aI9823
a(lp1623
(lp1624
g89
ag90
aS'0.49'
p1625
aa(lp1626
g9
ag10
aS'0.48'
p1627
aa(lp1628
g93
ag94
aS'0.48'
p1629
aa(lp1630
g99
ag100
aS'0.48'
p1631
aa(lp1632
g103
ag104
aS'0.47'
p1633
aa(lp1634
g13
ag14
aS'0.47'
p1635
aa(lp1636
g113
ag114
aS'0.47'
p1637
aa(lp1638
g109
ag110
aS'0.46'
p1639
aa(lp1640
g85
ag86
aS'0.46'
p1641
aaaa(lp1642
VF1RNC9_PIG
p1643
aVF1RNC9
p1644
ag6
aI9823
a(lp1645
(lp1646
g9
ag10
aS'0.4'
p1647
aa(lp1648
g245
ag246
aS'0.01'
p1649
aa(lp1650
g41
ag42
aS'0.01'
p1651
aa(lp1652
VGO:0051059
p1653
aVNF-kappaB binding
p1654
aS'0.01'
p1655
aa(lp1656
VGO:0051219
p1657
aVphosphoprotein binding
p1658
aS'0.01'
p1659
aa(lp1660
VGO:0042826
p1661
aVhistone deacetylase binding
p1662
aS'0.01'
p1663
aa(lp1664
g741
ag742
aS'0.01'
p1665
aa(lp1666
VGO:0001190
p1667
aVRNA polymerase II transcription factor binding transcription factor activity involved in positive regulation of transcription
p1668
aS'0.01'
p1669
aa(lp1670
g73
ag74
aS'0.01'
p1671
aa(lp1672
g309
ag310
aS'0.01'
p1673
aa(lp1674
VGO:0030331
p1675
aVestrogen receptor binding
p1676
aS'0.01'
p1677
aa(lp1678
VGO:0001225
p1679
aVRNA polymerase II transcription coactivator binding
p1680
aS'0.01'
p1681
aa(lp1682
VGO:0001226
p1683
aVRNA polymerase II transcription corepressor binding
p1684
aS'0.01'
p1685
aa(lp1686
g709
ag710
aS'0.01'
p1687
aa(lp1688
g747
ag748
aS'0.01'
p1689
aa(lp1690
g337
ag338
aS'0.01'
p1691
aa(lp1692
VGO:0031490
p1693
aVchromatin DNA binding
p1694
aS'0.01'
p1695
aa(lp1696
g33
ag34
aS'0.01'
p1697
aa(lp1698
g327
ag328
aS'0.01'
p1699
aa(lp1700
g45
ag46
aS'0.01'
p1701
aa(lp1702
VGO:0031624
p1703
aVubiquitin conjugating enzyme binding
p1704
aS'0.01'
p1705
aa(lp1706
g737
ag738
aS'0.01'
p1707
aa(lp1708
g13
ag14
aS'0.01'
p1709
aa(lp1710
VGO:0050681
p1711
aVandrogen receptor binding
p1712
aS'0.01'
p1713
aa(lp1714
g331
ag332
aS'0.01'
p1715
aa(lp1716
VGO:0051525
p1717
aVNFAT protein binding
p1718
aS'0.01'
p1719
aa(lp1720
VGO:0003690
p1721
aVdouble-stranded DNA binding
p1722
aS'0.01'
p1723
aa(lp1724
VGO:0035035
p1725
aVhistone acetyltransferase binding
p1726
aS'0.01'
p1727
aa(lp1728
g369
ag370
aS'0.01'
p1729
aa(lp1730
g321
ag322
aS'0.01'
p1731
aaaa(lp1732
VF1SU64_PIG
p1733
aVF1SU64
p1734
ag6
aI9823
a(lp1735
(lp1736
g631
ag632
aS'0.82'
p1737
aa(lp1738
g635
ag636
aS'0.05'
p1739
aaaa(lp1740
VF1SAH3_PIG
p1741
aVF1SAH3
p1742
ag6
aI9823
a(lp1743
(lp1744
g417
ag418
aS'0.74'
p1745
aa(lp1746
g9
ag10
aS'0.68'
p1747
aa(lp1748
g141
ag142
aS'0.62'
p1749
aaaa(lp1750
VF1SVB9_PIG
p1751
aVF1SVB9
p1752
ag6
aI9823
a(lp1753
(lp1754
g9
ag10
aS'0.4'
p1755
aa(lp1756
g549
ag550
aS'0.12'
p1757
aa(lp1758
g41
ag42
aS'0.1'
p1759
aaaa(lp1760
VF1RIZ4_PIG
p1761
aVF1RIZ4
p1762
ag6
aI9823
a(lp1763
(lp1764
g77
ag78
aS'0.87'
p1765
aa(lp1766
g9
ag10
aS'0.77'
p1767
aaaa(lp1768
VF1RM99_PIG
p1769
aVF1RM99
p1770
ag6
aI9823
a(lp1771
(lp1772
g73
ag74
aS'0.89'
p1773
aa(lp1774
g151
ag152
aS'0.88'
p1775
aa(lp1776
g9
ag10
aS'0.88'
p1777
aa(lp1778
g169
ag170
aS'0.88'
p1779
aa(lp1780
g127
ag128
aS'0.88'
p1781
aa(lp1782
g155
ag156
aS'0.88'
p1783
aa(lp1784
g33
ag34
aS'0.88'
p1785
aa(lp1786
g165
ag166
aS'0.88'
p1787
aa(lp1788
g161
ag162
aS'0.88'
p1789
aa(lp1790
g41
ag42
aS'0.88'
p1791
aa(lp1792
VGO:0003924
p1793
aVGTPase activity
p1794
aS'0.78'
p1795
aaaa(lp1796
VF2Z584_PIG
p1797
aVF2Z584
p1798
ag6
aI9823
a(lp1799
(lp1800
g355
ag356
aS'0.21'
p1801
aa(lp1802
g9
ag10
aS'0.21'
p1803
aa(lp1804
g321
ag322
aS'0.21'
p1805
aaaa(lp1806
VF1RIK0_PIG
p1807
aVF1RIK0
p1808
ag6
aI9823
a(lp1809
(lp1810
g145
ag146
aS'0.82'
p1811
aa(lp1812
g41
ag42
aS'0.81'
p1813
aa(lp1814
g127
ag128
aS'0.78'
p1815
aa(lp1816
g33
ag34
aS'0.76'
p1817
aa(lp1818
g73
ag74
aS'0.75'
p1819
aa(lp1820
g151
ag152
aS'0.74'
p1821
aa(lp1822
g155
ag156
aS'0.74'
p1823
aa(lp1824
g9
ag10
aS'0.74'
p1825
aa(lp1826
g169
ag170
aS'0.74'
p1827
aa(lp1828
g161
ag162
aS'0.74'
p1829
aa(lp1830
g165
ag166
aS'0.74'
p1831
aa(lp1832
g177
ag178
aS'0.67'
p1833
aaaa(lp1834
VF1SDI1_PIG
p1835
aVF1SDI1
p1836
ag6
aI9823
a(lp1837
(lp1838
g9
ag10
aS'0.44'
p1839
aa(lp1840
g41
ag42
aS'0.37'
p1841
aa(lp1842
g549
ag550
aS'0.37'
p1843
aaaa(lp1844
VF1SA71_PIG
p1845
aVF1SA71
p1846
ag6
aI9823
a(lp1847
(lp1848
g417
ag418
aS'0.84'
p1849
aa(lp1850
g9
ag10
aS'0.78'
p1851
aa(lp1852
g41
ag42
aS'0.75'
p1853
aa(lp1854
g151
ag152
aS'0.73'
p1855
aa(lp1856
g169
ag170
aS'0.73'
p1857
aa(lp1858
g33
ag34
aS'0.73'
p1859
aa(lp1860
g165
ag166
aS'0.73'
p1861
aa(lp1862
g73
ag74
aS'0.73'
p1863
aa(lp1864
g923
ag924
aS'0.72'
p1865
aa(lp1866
g127
ag128
aS'0.72'
p1867
aa(lp1868
g161
ag162
aS'0.72'
p1869
aa(lp1870
g1613
ag1614
aS'0.61'
p1871
aaaa(lp1872
VC7EMF3_PIG
p1873
aVC7EMF3
p1874
ag6
aI9823
a(lp1875
(lp1876
g9
ag10
aS'0.7'
p1877
aa(lp1878
g13
ag14
aS'0.23'
p1879
aaaa(lp1880
VQ9TSX0_PIG
p1881
aVQ9TSX0
p1882
ag6
aI9823
a(lp1883
(lp1884
g9
ag10
aS'0.74'
p1885
aa(lp1886
VGO:0003723
p1887
aVRNA binding
p1888
aS'0.03'
p1889
aa(lp1890
g1721
ag1722
aS'0.03'
p1891
aaaa(lp1892
VQ52JJ4_PIG
p1893
aVQ52JJ4
p1894
ag6
aI9823
a(lp1895
(lp1896
g9
ag10
aS'0.83'
p1897
aa(lp1898
g67
ag68
aS'0.16'
p1899
aaaa(lp1900
VF1RIV9_PIG
p1901
aVF1RIV9
p1902
ag6
aI9823
a(lp1903
(lp1904
g9
ag10
aS'0.93'
p1905
aa(lp1906
g25
ag26
aS'0.08'
p1907
aa(lp1908
g41
ag42
aS'0.08'
p1909
aa(lp1910
g709
ag710
aS'0.08'
p1911
aa(lp1912
g177
ag178
aS'0.08'
p1913
aa(lp1914
g33
ag34
aS'0.08'
p1915
aa(lp1916
g351
ag352
aS'0.08'
p1917
aa(lp1918
g719
ag720
aS'0.08'
p1919
aa(lp1920
g77
ag78
aS'0.08'
p1921
aa(lp1922
g13
ag14
aS'0.08'
p1923
aa(lp1924
g727
ag728
aS'0.08'
p1925
aaaa(lp1926
VID2_PIG
p1927
aVQ2VIU1
p1928
ag6
aI9823
a(lp1929
(lp1930
g9
ag10
aS'0.4'
p1931
aa(lp1932
g41
ag42
aS'0.15'
p1933
aa(lp1934
g549
ag550
aS'0.15'
p1935
aaaa(lp1936
VB8XZY6_PIG
p1937
aVB8XZY6
p1938
ag6
aI9823
a(lp1939
(lp1940
g1403
ag1404
aS'0.82'
p1941
aa(lp1942
g203
ag204
aS'0.81'
p1943
aa(lp1944
g93
ag94
aS'0.81'
p1945
aa(lp1946
g89
ag90
aS'0.81'
p1947
aa(lp1948
g527
ag528
aS'0.81'
p1949
aa(lp1950
g99
ag100
aS'0.81'
p1951
aa(lp1952
g109
ag110
aS'0.81'
p1953
aa(lp1954
g9
ag10
aS'0.8'
p1955
aa(lp1956
g85
ag86
aS'0.79'
p1957
aa(lp1958
g103
ag104
aS'0.78'
p1959
aa(lp1960
g13
ag14
aS'0.78'
p1961
aa(lp1962
g113
ag114
aS'0.78'
p1963
aa(lp1964
g1425
ag1426
aS'0.74'
p1965
aaaa(lp1966
VF1SJE7_PIG
p1967
aVF1SJE7
p1968
ag6
aI9823
a(lp1969
(lp1970
g9
ag10
aS'0.62'
p1971
aa(lp1972
g737
ag738
aS'0.18'
p1973
aaaa(lp1974
VF1S6E0_PIG
p1975
aVF1S6E0
p1976
ag6
aI9823
a(lp1977
(lp1978
g9
ag10
aS'0.47'
p1979
aa(lp1980
g309
ag310
aS'0.09'
p1981
aa(lp1982
g13
ag14
aS'0.09'
p1983
aa(lp1984
g737
ag738
aS'0.08'
p1985
aaaa(lp1986
VF1S3R2_PIG
p1987
aVF1S3R2
p1988
ag6
aI9823
a(lp1989
(lp1990
g9
ag10
aS'0.39'
p1991
aa(lp1992
g549
ag550
aS'0.12'
p1993
aaaa(lp1994
VF1SDX7_PIG
p1995
aVF1SDX7
p1996
ag6
aI9823
a(lp1997
(lp1998
g9
ag10
aS'0.64'
p1999
aa(lp2000
VGO:0070974
p2001
aVPOU domain binding
p2002
aS'0.51'
p2003
aaaa(lp2004
VF1SCQ2_PIG
p2005
aVF1SCQ2
p2006
ag6
aI9823
a(lp2007
(lp2008
g623
ag624
aS'0.4'
p2009
aa(lp2010
g9
ag10
aS'0.34'
p2011
aa(lp2012
g239
ag240
aS'0.28'
p2013
aa(lp2014
g727
ag728
aS'0.28'
p2015
aaaa(lp2016
VF1RUM8_PIG
p2017
aVF1RUM8
p2018
ag6
aI9823
a(lp2019
(lp2020
g381
ag382
aS'0.77'
p2021
aa(lp2022
g9
ag10
aS'0.71'
p2023
aaaa(lp2024
VQ865U9_PIG
p2025
aVQ865U9
p2026
ag6
aI9823
a(lp2027
(lp2028
g9
ag10
aS'0.7'
p2029
aa(lp2030
g25
ag26
aS'0.55'
p2031
aaaa(lp2032
VF1ST03_PIG
p2033
aVF1ST03
p2034
ag6
aI9823
a(lp2035
(lp2036
VGO:0046983
p2037
aVprotein dimerization activity
p2038
aS'0.94'
p2039
aa(lp2040
g25
ag26
aS'0.81'
p2041
aa(lp2042
g9
ag10
aS'0.81'
p2043
aa(lp2044
VGO:0003729
p2045
aVmRNA binding
p2046
aS'0.81'
p2047
aa(lp2048
VGO:0003696
p2049
aVsatellite DNA binding
p2050
aS'0.81'
p2051
aa(lp2052
g321
ag322
aS'0.81'
p2053
aaaa(lp2054
VF1S2D8_PIG
p2055
aVF1S2D8
p2056
ag6
aI9823
a(lp2057
(lp2058
g9
ag10
aS'0.72'
p2059
aa(lp2060
g933
ag934
aS'0.48'
p2061
aaaa(lp2062
VF1S863_PIG
p2063
aVF1S863
p2064
ag6
aI9823
a(lp2065
(lp2066
g9
ag10
aS'0.39'
p2067
aa(lp2068
g549
ag550
aS'0.12'
p2069
aaaa(lp2070
VF1SD60_PIG
p2071
aVF1SD60
p2072
ag6
aI9823
a(lp2073
(lp2074
g9
ag10
aS'0.69'
p2075
aa(lp2076
g77
ag78
aS'0.69'
p2077
aaaa(lp2078
VF1SEI6_PIG
p2079
aVF1SEI6
p2080
ag6
aI9823
a(lp2081
(lp2082
VGO:0004879
p2083
aVligand-activated sequence-specific DNA binding RNA polymerase II transcription factor activity
p2084
aS'0.87'
p2085
aa(lp2086
g9
ag10
aS'0.8'
p2087
aaaa(lp2088
VF1S6X1_PIG
p2089
aVF1S6X1
p2090
ag6
aI9823
a(lp2091
(lp2092
g9
ag10
aS'0.53'
p2093
aa(lp2094
g549
ag550
aS'0.3'
p2095
aa(lp2096
g41
ag42
aS'0.24'
p2097
aa(lp2098
VGO:0051879
p2099
aVHsp90 protein binding
p2100
aS'0.23'
p2101
aaaa(lp2102
VF1RL15_PIG
p2103
aVF1RL15
p2104
ag6
aI9823
a(lp2105
(lp2106
g239
ag240
aS'0.87'
p2107
aa(lp2108
g9
ag10
aS'0.69'
p2109
aaaa(lp2110
VF1SKR1_PIG
p2111
aVF1SKR1
p2112
ag6
aI9823
a(lp2113
(lp2114
g631
ag632
aS'0.78'
p2115
aa(lp2116
g635
ag636
aS'0.21'
p2117
aa(lp2118
g639
ag640
aS'0.18'
p2119
aa(lp2120
g643
ag644
aS'0.18'
p2121
aa(lp2122
g647
ag648
aS'0.18'
p2123
aa(lp2124
g651
ag652
aS'0.18'
p2125
aa(lp2126
g37
ag38
aS'0.18'
p2127
aa(lp2128
g527
ag528
aS'0.18'
p2129
aa(lp2130
g571
ag572
aS'0.18'
p2131
aa(lp2132
g661
ag662
aS'0.18'
p2133
aa(lp2134
g665
ag666
aS'0.18'
p2135
aa(lp2136
g669
ag670
aS'0.18'
p2137
aa(lp2138
g673
ag674
aS'0.18'
p2139
aaaa(lp2140
VF1SVC8_PIG
p2141
aVF1SVC8
p2142
ag6
aI9823
a(lp2143
(lp2144
g9
ag10
aS'0.35'
p2145
aa(lp2146
g527
ag528
aS'0.24'
p2147
aa(lp2148
VGO:0034647
p2149
aVhistone demethylase activity (H3-trimethyl-K4 specific)
p2150
aS'0.24'
p2151
aa(lp2152
VGO:0034648
p2153
aVhistone demethylase activity (H3-dimethyl-K4 specific)
p2154
aS'0.24'
p2155
aa(lp2156
g331
ag332
aS'0.24'
p2157
aa(lp2158
g1499
ag1500
aS'0.24'
p2159
aa(lp2160
g73
ag74
aS'0.24'
p2161
aa(lp2162
g25
ag26
aS'0.24'
p2163
aa(lp2164
VGO:0043992
p2165
aVhistone acetyltransferase activity (H3-K9 specific)
p2166
aS'0.24'
p2167
aa(lp2168
VGO:0071558
p2169
aVhistone demethylase activity (H3-K27 specific)
p2170
aS'0.24'
p2171
aa(lp2172
g727
ag728
aS'0.24'
p2173
aaaa(lp2174
VA5PF04_PIG
p2175
aVA5PF04
p2176
ag6
aI9823
a(lp2177
(lp2178
g33
ag34
aS'0.79'
p2179
aa(lp2180
g165
ag166
aS'0.79'
p2181
aa(lp2182
g9
ag10
aS'0.79'
p2183
aa(lp2184
g73
ag74
aS'0.75'
p2185
aa(lp2186
g169
ag170
aS'0.72'
p2187
aa(lp2188
g41
ag42
aS'0.72'
p2189
aa(lp2190
g127
ag128
aS'0.72'
p2191
aa(lp2192
g151
ag152
aS'0.71'
p2193
aa(lp2194
g161
ag162
aS'0.71'
p2195
aaaa(lp2196
VF1SNE1_PIG
p2197
aVF1SNE1
p2198
ag6
aI9823
a(lp2199
(lp2200
g417
ag418
aS'0.69'
p2201
aa(lp2202
g1099
ag1100
aS'0.67'
p2203
aa(lp2204
g9
ag10
aS'0.67'
p2205
aa(lp2206
g923
ag924
aS'0.64'
p2207
aaaa(lp2208
VQ8MK69_PIG
p2209
aVQ8MK69
p2210
ag6
aI9823
a(lp2211
(lp2212
g9
ag10
aS'0.47'
p2213
aa(lp2214
g737
ag738
aS'0.33'
p2215
aaaa(lp2216
VF2Z581_PIG
p2217
aVF2Z581
p2218
ag6
aI9823
a(lp2219
(lp2220
g355
ag356
aS'0.16'
p2221
aa(lp2222
g9
ag10
aS'0.16'
p2223
aa(lp2224
g321
ag322
aS'0.16'
p2225
aaaa(lp2226
VF2Y8H0_PIG
p2227
aVF2Y8H0
p2228
ag6
aI9823
a(lp2229
(lp2230
g41
ag42
aS'0.92'
p2231
aa(lp2232
g33
ag34
aS'0.84'
p2233
aa(lp2234
g127
ag128
aS'0.84'
p2235
aa(lp2236
g151
ag152
aS'0.79'
p2237
aa(lp2238
g155
ag156
aS'0.79'
p2239
aa(lp2240
g9
ag10
aS'0.79'
p2241
aa(lp2242
g161
ag162
aS'0.79'
p2243
aa(lp2244
g165
ag166
aS'0.79'
p2245
aa(lp2246
g73
ag74
aS'0.79'
p2247
aa(lp2248
g169
ag170
aS'0.79'
p2249
aaaa(lp2250
VH33_PIG
p2251
aVQ71LE2
p2252
ag6
aI9823
a(lp2253
(lp2254
g355
ag356
aS'0.21'
p2255
aa(lp2256
g9
ag10
aS'0.21'
p2257
aa(lp2258
g321
ag322
aS'0.21'
p2259
aaaa(lp2260
VF1RU26_PIG
p2261
aVF1RU26
p2262
ag6
aI9823
a(lp2263
(lp2264
g13
ag14
aS'0.48'
p2265
aa(lp2266
g9
ag10
aS'0.43'
p2267
aa(lp2268
g1721
ag1722
aS'0.4'
p2269
aaaa(lp2270
VF1S2N9_PIG
p2271
aVF1S2N9
p2272
ag6
aI9823
a(lp2273
(lp2274
g1111
ag1112
aS'0.75'
p2275
aa(lp2276
g9
ag10
aS'0.69'
p2277
aa(lp2278
g1117
ag1118
aS'0.65'
p2279
aa(lp2280
g73
ag74
aS'0.65'
p2281
aa(lp2282
g381
ag382
aS'0.58'
p2283
aaaa(lp2284
VA5GFU9_PIG
p2285
aVA5GFU9
p2286
ag6
aI9823
a(lp2287
(lp2288
g41
ag42
aS'0.85'
p2289
aa(lp2290
g381
ag382
aS'0.84'
p2291
aa(lp2292
VGO:0044323
p2293
aVretinoic acid-responsive element binding
p2294
aS'0.84'
p2295
aa(lp2296
g13
ag14
aS'0.84'
p2297
aa(lp2298
g33
ag34
aS'0.84'
p2299
aa(lp2300
g165
ag166
aS'0.84'
p2301
aa(lp2302
g1275
ag1276
aS'0.84'
p2303
aa(lp2304
g9
ag10
aS'0.72'
p2305
aa(lp2306
g549
ag550
aS'0.66'
p2307
aaaa(lp2308
VF1S7W1_PIG
p2309
aVF1S7W1
p2310
ag6
aI9823
a(lp2311
(lp2312
g33
ag34
aS'0.82'
p2313
aa(lp2314
g169
ag170
aS'0.77'
p2315
aa(lp2316
g41
ag42
aS'0.77'
p2317
aa(lp2318
g165
ag166
aS'0.77'
p2319
aa(lp2320
g73
ag74
aS'0.77'
p2321
aa(lp2322
g127
ag128
aS'0.77'
p2323
aa(lp2324
g9
ag10
aS'0.77'
p2325
aa(lp2326
g151
ag152
aS'0.76'
p2327
aa(lp2328
g161
ag162
aS'0.76'
p2329
aaaa(lp2330
VF1SCQ4_PIG
p2331
aVF1SCQ4
p2332
ag6
aI9823
a(lp2333
(lp2334
g73
ag74
aS'0.78'
p2335
aa(lp2336
g9
ag10
aS'0.74'
p2337
aa(lp2338
g239
ag240
aS'0.74'
p2339
aaaa(lp2340
VF1SRU5_PIG
p2341
aVF1SRU5
p2342
ag6
aI9823
a(lp2343
(lp2344
g9
ag10
aS'0.63'
p2345
aa(lp2346
g327
ag328
aS'0.34'
p2347
aa(lp2348
g33
ag34
aS'0.33'
p2349
aa(lp2350
g85
ag86
aS'0.32'
p2351
aa(lp2352
g77
ag78
aS'0.32'
p2353
aa(lp2354
g1661
ag1662
aS'0.31'
p2355
aa(lp2356
g1725
ag1726
aS'0.31'
p2357
aa(lp2358
g2099
ag2100
aS'0.29'
p2359
aa(lp2360
g571
ag572
aS'0.26'
p2361
aaaa(lp2362
VF1SDA9_PIG
p2363
aVF1SDA9
p2364
ag6
aI9823
a(lp2365
(lp2366
g245
ag246
aS'0.78'
p2367
aa(lp2368
g9
ag10
aS'0.66'
p2369
aaaa(lp2370
VF1RZS9_PIG
p2371
aVF1RZS9
p2372
ag6
aI9823
a(lp2373
(lp2374
g151
ag152
aS'0.83'
p2375
aa(lp2376
g155
ag156
aS'0.83'
p2377
aa(lp2378
g127
ag128
aS'0.83'
p2379
aa(lp2380
g9
ag10
aS'0.83'
p2381
aa(lp2382
g169
ag170
aS'0.83'
p2383
aa(lp2384
g33
ag34
aS'0.83'
p2385
aa(lp2386
g41
ag42
aS'0.83'
p2387
aa(lp2388
g165
ag166
aS'0.83'
p2389
aa(lp2390
g73
ag74
aS'0.83'
p2391
aa(lp2392
g161
ag162
aS'0.83'
p2393
aaaa(lp2394
VF1SEI1_PIG
p2395
aVF1SEI1
p2396
ag6
aI9823
a(lp2397
(lp2398
g9
ag10
aS'0.41'
p2399
aa(lp2400
g549
ag550
aS'0.3'
p2401
aa(lp2402
g41
ag42
aS'0.25'
p2403
aaaa(lp2404
VB7SFP5_PIG
p2405
aVB7SFP5
p2406
ag6
aI9823
a(lp2407
(lp2408
g9
ag10
aS'0.81'
p2409
aa(lp2410
g13
ag14
aS'0.71'
p2411
aa(lp2412
g169
ag170
aS'0.55'
p2413
aaaa(lp2414
VB4X5Z4_PIG
p2415
aVB4X5Z4
p2416
ag6
aI9823
a(lp2417
(lp2418
g9
ag10
aS'0.85'
p2419
aa(lp2420
g381
ag382
aS'0.06'
p2421
aa(lp2422
g13
ag14
aS'0.06'
p2423
aa(lp2424
g67
ag68
aS'0.06'
p2425
aa(lp2426
VGO:0033613
p2427
aVactivating transcription factor binding
p2428
aS'0.06'
p2429
aa(lp2430
g73
ag74
aS'0.06'
p2431
aa(lp2432
g331
ag332
aS'0.06'
p2433
aa(lp2434
g1721
ag1722
aS'0.06'
p2435
aa(lp2436
g1725
ag1726
aS'0.06'
p2437
aa(lp2438
g1887
ag1888
aS'0.05'
p2439
aa(lp2440
g239
ag240
aS'0.05'
p2441
aa(lp2442
g1667
ag1668
aS'0.05'
p2443
aa(lp2444
VGO:0035014
p2445
aVphosphatidylinositol 3-kinase regulator activity
p2446
aS'0.05'
p2447
aa(lp2448
g141
ag142
aS'0.05'
p2449
aa(lp2450
g727
ag728
aS'0.05'
p2451
aa(lp2452
VGO:0000900
p2453
aVtranslation repressor activity, nucleic acid binding
p2454
aS'0.05'
p2455
aaaa(lp2456
VF2Z575_PIG
p2457
aVF2Z575
p2458
ag6
aI9823
a(lp2459
(lp2460
g355
ag356
aS'0.16'
p2461
aa(lp2462
g9
ag10
aS'0.16'
p2463
aa(lp2464
g321
ag322
aS'0.16'
p2465
aaaa(lp2466
VQ70ES5_PIG
p2467
aVQ70ES5
p2468
ag6
aI9823
a(lp2469
(lp2470
g9
ag10
aS'0.81'
p2471
aa(lp2472
g41
ag42
aS'0.8'
p2473
aaaa(lp2474
VF1SHT7_PIG
p2475
aVF1SHT7
p2476
ag6
aI9823
a(lp2477
(lp2478
g9
ag10
aS'0.79'
p2479
aa(lp2480
g623
ag624
aS'0.76'
p2481
aaaa(lp2482
VA5A764_PIG
p2483
aVA5A764
p2484
ag6
aI9823
a(lp2485
(lp2486
g9
ag10
aS'0.69'
p2487
aa(lp2488
g77
ag78
aS'0.34'
p2489
aaaa(lp2490
VF1S064_PIG
p2491
aVF1S064
p2492
ag6
aI9823
a(lp2493
(lp2494
g9
ag10
aS'0.74'
p2495
aa(lp2496
g73
ag74
aS'0.47'
p2497
aaaa(lp2498
VQ863E6_PIG
p2499
aVQ863E6
p2500
ag6
aI9823
a(lp2501
(lp2502
g727
ag728
aS'0.54'
p2503
aa(lp2504
g9
ag10
aS'0.42'
p2505
aaaa(lp2506
VJUN_PIG
p2507
aVP56432
p2508
ag6
aI9823
a(lp2509
(lp2510
g9
ag10
aS'0.74'
p2511
aa(lp2512
g13
ag14
aS'0.42'
p2513
aa(lp2514
g549
ag550
aS'0.4'
p2515
aaaa(lp2516
VF1S741_PIG
p2517
aVF1S741
p2518
ag6
aI9823
a(lp2519
(lp2520
g9
ag10
aS'0.9'
p2521
aa(lp2522
g151
ag152
aS'0.79'
p2523
aa(lp2524
g169
ag170
aS'0.79'
p2525
aa(lp2526
g41
ag42
aS'0.79'
p2527
aa(lp2528
g127
ag128
aS'0.79'
p2529
aa(lp2530
g33
ag34
aS'0.79'
p2531
aa(lp2532
g165
ag166
aS'0.79'
p2533
aa(lp2534
g73
ag74
aS'0.79'
p2535
aa(lp2536
g161
ag162
aS'0.79'
p2537
aaaa(lp2538
VF1SCI1_PIG
p2539
aVF1SCI1
p2540
ag6
aI9823
a(lp2541
(lp2542
g1369
ag1370
aS'0.8'
p2543
aa(lp2544
g1373
ag1374
aS'0.76'
p2545
aaaa(lp2546
VA0N0D5_PIG
p2547
aVA0N0D5
p2548
ag6
aI9823
a(lp2549
(lp2550
g9
ag10
aS'0.46'
p2551
aa(lp2552
g13
ag14
aS'0.44'
p2553
aaaa(lp2554
VQ5I6A3_PIG
p2555
aVQ5I6A3
p2556
ag6
aI9823
a(lp2557
(lp2558
g9
ag10
aS'0.7'
p2559
aa(lp2560
g13
ag14
aS'0.26'
p2561
aaaa(lp2562
VF1SAE2_PIG
p2563
aVF1SAE2
p2564
ag6
aI9823
a(lp2565
(lp2566
g1033
ag1034
aS'0.87'
p2567
aa(lp2568
g9
ag10
aS'0.85'
p2569
aaaa(lp2570
VF1SAW9_PIG
p2571
aVF1SAW9
p2572
ag6
aI9823
a(lp2573
(lp2574
g9
ag10
aS'0.4'
p2575
aa(lp2576
VGO:0071820
p2577
aVN-box binding
p2578
aS'0.17'
p2579
aaaa(lp2580
VA0T1H6_PIG
p2581
aVA0T1H6
p2582
ag6
aI9823
a(lp2583
(lp2584
g9
ag10
aS'0.63'
p2585
aa(lp2586
g1661
ag1662
aS'0.53'
p2587
aaaa(lp2588
VF1S1V2_PIG
p2589
aVF1S1V2
p2590
ag6
aI9823
a(lp2591
(lp2592
g41
ag42
aS'0.85'
p2593
aa(lp2594
g141
ag142
aS'0.81'
p2595
aa(lp2596
g127
ag128
aS'0.79'
p2597
aa(lp2598
g33
ag34
aS'0.76'
p2599
aa(lp2600
g151
ag152
aS'0.71'
p2601
aa(lp2602
g155
ag156
aS'0.71'
p2603
aa(lp2604
g9
ag10
aS'0.71'
p2605
aa(lp2606
g161
ag162
aS'0.71'
p2607
aa(lp2608
g165
ag166
aS'0.71'
p2609
aa(lp2610
g123
ag124
aS'0.71'
p2611
aa(lp2612
g73
ag74
aS'0.71'
p2613
aa(lp2614
g169
ag170
aS'0.71'
p2615
aa(lp2616
g137
ag138
aS'0.66'
p2617
aa(lp2618
g145
ag146
aS'0.66'
p2619
aa(lp2620
g133
ag134
aS'0.66'
p2621
aaaa(lp2622
VF1RYB2_PIG
p2623
aVF1RYB2
p2624
ag6
aI9823
a(lp2625
(lp2626
g355
ag356
aS'0.28'
p2627
aa(lp2628
g9
ag10
aS'0.28'
p2629
aa(lp2630
g321
ag322
aS'0.28'
p2631
aaaa(lp2632
VF2Z5L0_PIG
p2633
aVF2Z5L0
p2634
ag6
aI9823
a(lp2635
(lp2636
g355
ag356
aS'0.21'
p2637
aa(lp2638
g9
ag10
aS'0.21'
p2639
aa(lp2640
g321
ag322
aS'0.21'
p2641
aaaa(lp2642
VQ0ZHH4_PIG
p2643
aVQ0ZHH4
p2644
ag6
aI9823
a(lp2645
(lp2646
g381
ag382
aS'0.77'
p2647
aa(lp2648
g9
ag10
aS'0.71'
p2649
aaaa(lp2650
VF1SIN1_PIG
p2651
aVF1SIN1
p2652
ag6
aI9823
a(lp2653
(lp2654
g41
ag42
aS'0.82'
p2655
aa(lp2656
g123
ag124
aS'0.77'
p2657
aa(lp2658
g127
ag128
aS'0.77'
p2659
aa(lp2660
g33
ag34
aS'0.75'
p2661
aa(lp2662
g177
ag178
aS'0.73'
p2663
aa(lp2664
g73
ag74
aS'0.71'
p2665
aa(lp2666
g151
ag152
aS'0.7'
p2667
aa(lp2668
g155
ag156
aS'0.7'
p2669
aa(lp2670
g9
ag10
aS'0.7'
p2671
aa(lp2672
g161
ag162
aS'0.7'
p2673
aa(lp2674
g165
ag166
aS'0.7'
p2675
aa(lp2676
g169
ag170
aS'0.7'
p2677
aa(lp2678
g133
ag134
aS'0.61'
p2679
aa(lp2680
g137
ag138
aS'0.6'
p2681
aa(lp2682
g145
ag146
aS'0.6'
p2683
aaaa(lp2684
VE9LK28_PIG
p2685
aVE9LK28
p2686
ag6
aI9823
a(lp2687
(lp2688
g41
ag42
aS'0.9'
p2689
aa(lp2690
g155
ag156
aS'0.88'
p2691
aa(lp2692
g381
ag382
aS'0.79'
p2693
aa(lp2694
VGO:0000982
p2695
aVRNA polymerase II core promoter proximal region sequence-specific DNA binding transcription factor activity
p2696
aS'0.79'
p2697
aa(lp2698
VGO:0016279
p2699
aVprotein-lysine N-methyltransferase activity
p2700
aS'0.79'
p2701
aa(lp2702
g77
ag78
aS'0.79'
p2703
aa(lp2704
VGO:0003712
p2705
aVtranscription cofactor activity
p2706
aS'0.79'
p2707
aa(lp2708
g9
ag10
aS'0.74'
p2709
aaaa(lp2710
VB4YSE4_PIG
p2711
aVB4YSE4
p2712
ag6
aI9823
a(lp2713
(lp2714
g9
ag10
aS'0.87'
p2715
aa(lp2716
g13
ag14
aS'0.07'
p2717
aa(lp2718
g381
ag382
aS'0.06'
p2719
aa(lp2720
g67
ag68
aS'0.06'
p2721
aa(lp2722
g73
ag74
aS'0.06'
p2723
aaaa(lp2724
VQ6RYD3_PIG
p2725
aVQ6RYD3
p2726
ag6
aI9823
a(lp2727
(lp2728
g9
ag10
aS'0.4'
p2729
aa(lp2730
g41
ag42
aS'0.21'
p2731
aa(lp2732
g549
ag550
aS'0.19'
p2733
aaaa(lp2734
VF1SNN5_PIG
p2735
aVF1SNN5
p2736
ag6
aI9823
a(lp2737
(lp2738
g417
ag418
aS'0.74'
p2739
aa(lp2740
g9
ag10
aS'0.62'
p2741
aaaa(lp2742
VF1RM41_PIG
p2743
aVF1RM41
p2744
ag6
aI9823
a(lp2745
(lp2746
g9
ag10
aS'0.91'
p2747
aa(lp2748
g45
ag46
aS'0.72'
p2749
aa(lp2750
g13
ag14
aS'0.72'
p2751
aa(lp2752
g1721
ag1722
aS'0.72'
p2753
aaaa(lp2754
VF1RPB9_PIG
p2755
aVF1RPB9
p2756
ag6
aI9823
a(lp2757
(lp2758
g165
ag166
aS'0.85'
p2759
aa(lp2760
g73
ag74
aS'0.73'
p2761
aa(lp2762
g417
ag418
aS'0.67'
p2763
aa(lp2764
g923
ag924
aS'0.65'
p2765
aa(lp2766
g9
ag10
aS'0.65'
p2767
aaaa(lp2768
VF1RJG3_PIG
p2769
aVF1RJG3
p2770
ag6
aI9823
a(lp2771
(lp2772
g41
ag42
aS'0.82'
p2773
aa(lp2774
g239
ag240
aS'0.81'
p2775
aa(lp2776
g9
ag10
aS'0.68'
p2777
aaaa(lp2778
VA5GFV0_PIG
p2779
aVA5GFV0
p2780
ag6
aI9823
a(lp2781
(lp2782
g41
ag42
aS'0.83'
p2783
aa(lp2784
g9
ag10
aS'0.76'
p2785
aa(lp2786
g77
ag78
aS'0.67'
p2787
aa(lp2788
g549
ag550
aS'0.66'
p2789
aa(lp2790
g33
ag34
aS'0.58'
p2791
aaaa(lp2792
VF1SV34_PIG
p2793
aVF1SV34
p2794
ag6
aI9823
a(lp2795
(lp2796
g41
ag42
aS'0.78'
p2797
aa(lp2798
g73
ag74
aS'0.74'
p2799
aa(lp2800
g127
ag128
aS'0.74'
p2801
aa(lp2802
g33
ag34
aS'0.73'
p2803
aa(lp2804
g145
ag146
aS'0.68'
p2805
aa(lp2806
g177
ag178
aS'0.68'
p2807
aa(lp2808
g151
ag152
aS'0.66'
p2809
aa(lp2810
g155
ag156
aS'0.66'
p2811
aa(lp2812
g9
ag10
aS'0.66'
p2813
aa(lp2814
g161
ag162
aS'0.66'
p2815
aa(lp2816
g165
ag166
aS'0.66'
p2817
aa(lp2818
g169
ag170
aS'0.66'
p2819
aa(lp2820
g123
ag124
aS'0.62'
p2821
aaaa(lp2822
VF1RRI0_PIG
p2823
aVF1RRI0
p2824
ag6
aI9823
a(lp2825
(lp2826
g2037
ag2038
aS'0.91'
p2827
aa(lp2828
g2049
ag2050
aS'0.88'
p2829
aa(lp2830
g25
ag26
aS'0.87'
p2831
aa(lp2832
g2045
ag2046
aS'0.87'
p2833
aa(lp2834
g9
ag10
aS'0.77'
p2835
aa(lp2836
g321
ag322
aS'0.77'
p2837
aaaa(lp2838
VF1S8X5_PIG
p2839
aVF1S8X5
p2840
ag6
aI9823
a(lp2841
(lp2842
g631
ag632
aS'0.81'
p2843
aa(lp2844
g635
ag636
aS'0.14'
p2845
aaaa(lp2846
VF1RMH0_PIG
p2847
aVF1RMH0
p2848
ag6
aI9823
a(lp2849
(lp2850
g85
ag86
aS'0.46'
p2851
aa(lp2852
g93
ag94
aS'0.4'
p2853
aa(lp2854
g89
ag90
aS'0.4'
p2855
aa(lp2856
g9
ag10
aS'0.39'
p2857
aa(lp2858
g99
ag100
aS'0.39'
p2859
aa(lp2860
g13
ag14
aS'0.38'
p2861
aa(lp2862
g109
ag110
aS'0.38'
p2863
aa(lp2864
g113
ag114
aS'0.38'
p2865
aa(lp2866
g103
ag104
aS'0.37'
p2867
aaaa(lp2868
VF1SKR8_PIG
p2869
aVF1SKR8
p2870
ag6
aI9823
a(lp2871
(lp2872
g631
ag632
aS'0.78'
p2873
aa(lp2874
g635
ag636
aS'0.27'
p2875
aaaa(lp2876
VC7EMF2_PIG
p2877
aVC7EMF2
p2878
ag6
aI9823
a(lp2879
(lp2880
g9
ag10
aS'0.59'
p2881
aa(lp2882
g13
ag14
aS'0.36'
p2883
aaaa(lp2884
VF1SFP0_PIG
p2885
aVF1SFP0
p2886
ag6
aI9823
a(lp2887
(lp2888
g9
ag10
aS'0.78'
p2889
aa(lp2890
g13
ag14
aS'0.44'
p2891
aaaa(lp2892
VF1STU2_PIG
p2893
aVF1STU2
p2894
ag6
aI9823
a(lp2895
(lp2896
g9
ag10
aS'0.45'
p2897
aa(lp2898
g41
ag42
aS'0.39'
p2899
aaaa(lp2900
VF1SMC4_PIG
p2901
aVF1SMC4
p2902
ag6
aI9823
a(lp2903
(lp2904
g9
ag10
aS'0.42'
p2905
aa(lp2906
g549
ag550
aS'0.38'
p2907
aa(lp2908
g41
ag42
aS'0.32'
p2909
aaaa(lp2910
VQ2VI02_PIG
p2911
aVQ2VI02
p2912
ag6
aI9823
a(lp2913
(lp2914
g9
ag10
aS'0.77'
p2915
aa(lp2916
g77
ag78
aS'0.26'
p2917
aaaa(lp2918
VG9BFU0_PIG
p2919
aVG9BFU0
p2920
ag6
aI9823
a(lp2921
(lp2922
g41
ag42
aS'0.83'
p2923
aa(lp2924
g381
ag382
aS'0.82'
p2925
aa(lp2926
VGO:0031730
p2927
aVCCR5 chemokine receptor binding
p2928
aS'0.82'
p2929
aa(lp2930
VGO:0000983
p2931
aVRNA polymerase II core promoter sequence-specific DNA binding transcription factor activity
p2932
aS'0.81'
p2933
aa(lp2934
g13
ag14
aS'0.68'
p2935
aa(lp2936
g9
ag10
aS'0.65'
p2937
aa(lp2938
VGO:0005164
p2939
aVtumor necrosis factor receptor binding
p2940
aS'0.65'
p2941
aa(lp2942
g1721
ag1722
aS'0.65'
p2943
aaaa(lp2944
VF1RQR0_PIG
p2945
aVF1RQR0
p2946
ag6
aI9823
a(lp2947
(lp2948
g89
ag90
aS'0.61'
p2949
aa(lp2950
g93
ag94
aS'0.57'
p2951
aa(lp2952
g9
ag10
aS'0.56'
p2953
aa(lp2954
g99
ag100
aS'0.55'
p2955
aa(lp2956
g113
ag114
aS'0.52'
p2957
aa(lp2958
g103
ag104
aS'0.51'
p2959
aa(lp2960
g13
ag14
aS'0.51'
p2961
aa(lp2962
g109
ag110
aS'0.5'
p2963
aa(lp2964
g85
ag86
aS'0.5'
p2965
aaaa(lp2966
VF1RZW2_PIG
p2967
aVF1RZW2
p2968
ag6
aI9823
a(lp2969
(lp2970
g9
ag10
aS'0.8'
p2971
aa(lp2972
g73
ag74
aS'0.8'
p2973
aaaa(lp2974
VD2EDR1_PIG
p2975
aVD2EDR1
p2976
ag6
aI9823
a(lp2977
(lp2978
g9
ag10
aS'0.4'
p2979
aa(lp2980
g41
ag42
aS'0.21'
p2981
aa(lp2982
g549
ag550
aS'0.19'
p2983
aaaa(lp2984
VF1RWM7_PIG
p2985
aVF1RWM7
p2986
ag6
aI9823
a(lp2987
(lp2988
g9
ag10
aS'0.9'
p2989
aa(lp2990
g25
ag26
aS'0.01'
p2991
aa(lp2992
g331
ag332
aS'0.01'
p2993
aa(lp2994
g13
ag14
aS'0.01'
p2995
aa(lp2996
g245
ag246
aS'0.01'
p2997
aa(lp2998
g337
ag338
aS'0.01'
p2999
aa(lp3000
g727
ag728
aS'0.01'
p3001
aa(lp3002
VGO:0030234
p3003
aVenzyme regulator activity
p3004
aS'0.01'
p3005
aa(lp3006
VGO:0051427
p3007
aVhormone receptor binding
p3008
aS'0.01'
p3009
aa(lp3010
g327
ag328
aS'0.01'
p3011
aa(lp3012
g321
ag322
aS'0.01'
p3013
aa(lp3014
g73
ag74
aS'0.01'
p3015
aa(lp3016
VGO:0001076
p3017
aVRNA polymerase II transcription factor binding transcription factor activity
p3018
aS'0.01'
p3019
aa(lp3020
g527
ag528
aS'0.01'
p3021
aa(lp3022
VGO:0001223
p3023
aVtranscription coactivator binding
p3024
aS'0.01'
p3025
aa(lp3026
VGO:0001224
p3027
aVRNA polymerase II transcription cofactor binding
p3028
aS'0.01'
p3029
aa(lp3030
VGO:0044390
p3031
aVsmall protein conjugating enzyme binding
p3032
aS'0.01'
p3033
aaaa(lp3034
VF1RH95_PIG
p3035
aVF1RH95
p3036
ag6
aI9823
a(lp3037
(lp3038
g41
ag42
aS'0.82'
p3039
aa(lp3040
g127
ag128
aS'0.78'
p3041
aa(lp3042
g123
ag124
aS'0.76'
p3043
aa(lp3044
g33
ag34
aS'0.75'
p3045
aa(lp3046
g137
ag138
aS'0.73'
p3047
aa(lp3048
g151
ag152
aS'0.71'
p3049
aa(lp3050
g155
ag156
aS'0.71'
p3051
aa(lp3052
g9
ag10
aS'0.71'
p3053
aa(lp3054
g161
ag162
aS'0.71'
p3055
aa(lp3056
g165
ag166
aS'0.71'
p3057
aa(lp3058
g73
ag74
aS'0.71'
p3059
aa(lp3060
g169
ag170
aS'0.71'
p3061
aa(lp3062
g177
ag178
aS'0.68'
p3063
aa(lp3064
g133
ag134
aS'0.67'
p3065
aa(lp3066
g145
ag146
aS'0.64'
p3067
aa(lp3068
VGO:0046972
p3069
aVhistone acetyltransferase activity (H4-K16 specific)
p3070
aS'0.59'
p3071
aaaa(lp3072
VA3FG76_PIG
p3073
aVA3FG76
p3074
ag6
aI9823
a(lp3075
(lp3076
g1661
ag1662
aS'0.59'
p3077
aa(lp3078
g77
ag78
aS'0.59'
p3079
aa(lp3080
g9
ag10
aS'0.55'
p3081
aaaa(lp3082
VF8J1Q3_PIG
p3083
aVF8J1Q3
p3084
ag6
aI9823
a(lp3085
(lp3086
g2037
ag2038
aS'0.89'
p3087
aa(lp3088
g25
ag26
aS'0.78'
p3089
aa(lp3090
g9
ag10
aS'0.75'
p3091
aa(lp3092
g2045
ag2046
aS'0.75'
p3093
aa(lp3094
g2049
ag2050
aS'0.75'
p3095
aa(lp3096
g321
ag322
aS'0.75'
p3097
aaaa(lp3098
VF1SLX6_PIG
p3099
aVF1SLX6
p3100
ag6
aI9823
a(lp3101
(lp3102
g9
ag10
aS'0.61'
p3103
aa(lp3104
g165
ag166
aS'0.47'
p3105
aa(lp3106
g73
ag74
aS'0.38'
p3107
aaaa(lp3108
VF1S3F6_PIG
p3109
aVF1S3F6
p3110
ag6
aI9823
a(lp3111
(lp3112
g13
ag14
aS'0.87'
p3113
aa(lp3114
g9
ag10
aS'0.68'
p3115
aaaa(lp3116
VF1SC35_PIG
p3117
aVF1SC35
p3118
ag6
aI9823
a(lp3119
(lp3120
g239
ag240
aS'0.74'
p3121
aa(lp3122
g417
ag418
aS'0.72'
p3123
aa(lp3124
g1043
ag1044
aS'0.66'
p3125
aa(lp3126
g9
ag10
aS'0.64'
p3127
aaaa(lp3128
VF1SK09_PIG
p3129
aVF1SK09
p3130
ag6
aI9823
a(lp3131
(lp3132
g355
ag356
aS'0.29'
p3133
aa(lp3134
g9
ag10
aS'0.29'
p3135
aa(lp3136
g321
ag322
aS'0.29'
p3137
aaaa(lp3138
VF1REZ5_PIG
p3139
aVF1REZ5
p3140
ag6
aI9823
a(lp3141
(lp3142
g417
ag418
aS'0.81'
p3143
aa(lp3144
g923
ag924
aS'0.81'
p3145
aa(lp3146
g41
ag42
aS'0.8'
p3147
aa(lp3148
g9
ag10
aS'0.77'
p3149
aaaa(lp3150
VF1RM28_PIG
p3151
aVF1RM28
p3152
ag6
aI9823
a(lp3153
(lp3154
g85
ag86
aS'0.8'
p3155
aa(lp3156
g89
ag90
aS'0.77'
p3157
aa(lp3158
g9
ag10
aS'0.74'
p3159
aa(lp3160
g93
ag94
aS'0.74'
p3161
aa(lp3162
g99
ag100
aS'0.73'
p3163
aa(lp3164
g103
ag104
aS'0.71'
p3165
aa(lp3166
g13
ag14
aS'0.71'
p3167
aa(lp3168
g113
ag114
aS'0.71'
p3169
aa(lp3170
g109
ag110
aS'0.7'
p3171
aaaa(lp3172
VF1RWM2_PIG
p3173
aVF1RWM2
p3174
ag6
aI9823
a(lp3175
(lp3176
g41
ag42
aS'0.64'
p3177
aa(lp3178
g2577
ag2578
aS'0.55'
p3179
aa(lp3180
g33
ag34
aS'0.54'
p3181
aa(lp3182
g1661
ag1662
aS'0.52'
p3183
aa(lp3184
VGO:0070888
p3185
aVE-box binding
p3186
aS'0.51'
p3187
aa(lp3188
g73
ag74
aS'0.51'
p3189
aa(lp3190
g9
ag10
aS'0.5'
p3191
aaaa(lp3192
VA0MZ86_PIG
p3193
aVA0MZ86
p3194
ag6
aI9823
a(lp3195
(lp3196
g41
ag42
aS'0.91'
p3197
aa(lp3198
g155
ag156
aS'0.89'
p3199
aa(lp3200
g9
ag10
aS'0.74'
p3201
aa(lp3202
g381
ag382
aS'0.74'
p3203
aa(lp3204
g2695
ag2696
aS'0.74'
p3205
aa(lp3206
g2699
ag2700
aS'0.74'
p3207
aa(lp3208
g77
ag78
aS'0.74'
p3209
aa(lp3210
g2705
ag2706
aS'0.74'
p3211
aaaa(lp3212
VF1SIL8_PIG
p3213
aVF1SIL8
p3214
ag6
aI9823
a(lp3215
(lp3216
g9
ag10
aS'0.7'
p3217
aa(lp3218
g737
ag738
aS'0.15'
p3219
aaaa(lp3220
VF1RHF4_PIG
p3221
aVF1RHF4
p3222
ag6
aI9823
a(lp3223
(lp3224
g13
ag14
aS'0.66'
p3225
aa(lp3226
g9
ag10
aS'0.6'
p3227
aaaa(lp3228
VF1SAK5_PIG
p3229
aVF1SAK5
p3230
ag6
aI9823
a(lp3231
(lp3232
g41
ag42
aS'0.85'
p3233
aa(lp3234
g73
ag74
aS'0.84'
p3235
aa(lp3236
g127
ag128
aS'0.83'
p3237
aa(lp3238
g33
ag34
aS'0.82'
p3239
aa(lp3240
g151
ag152
aS'0.77'
p3241
aa(lp3242
g155
ag156
aS'0.77'
p3243
aa(lp3244
g9
ag10
aS'0.77'
p3245
aa(lp3246
g161
ag162
aS'0.77'
p3247
aa(lp3248
g165
ag166
aS'0.77'
p3249
aa(lp3250
g169
ag170
aS'0.77'
p3251
aa(lp3252
g145
ag146
aS'0.76'
p3253
aa(lp3254
g133
ag134
aS'0.7'
p3255
aa(lp3256
g137
ag138
aS'0.66'
p3257
aaaa(lp3258
VQ6RYC9_PIG
p3259
aVQ6RYC9
p3260
ag6
aI9823
a(lp3261
(lp3262
g9
ag10
aS'0.68'
p3263
aa(lp3264
VGO:0016922
p3265
aVligand-dependent nuclear receptor binding
p3266
aS'0.2'
p3267
aaaa(lp3268
VB4YSE3_PIG
p3269
aVB4YSE3
p3270
ag6
aI9823
a(lp3271
(lp3272
g9
ag10
aS'0.62'
p3273
aa(lp3274
g1721
ag1722
aS'0.05'
p3275
aaaa(lp3276
VF1S3H6_PIG
p3277
aVF1S3H6
p3278
ag6
aI9823
a(lp3279
(lp3280
g77
ag78
aS'0.64'
p3281
aa(lp3282
g9
ag10
aS'0.63'
p3283
aaaa(lp3284
VF1SHH0_PIG
p3285
aVF1SHH0
p3286
ag6
aI9823
a(lp3287
(lp3288
g2083
ag2084
aS'0.28'
p3289
aa(lp3290
g2099
ag2100
aS'0.26'
p3291
aa(lp3292
g9
ag10
aS'0.26'
p3293
aa(lp3294
g33
ag34
aS'0.26'
p3295
aa(lp3296
VGO:0052621
p3297
aVdiguanylate cyclase activity
p3298
aS'0.26'
p3299
aa(lp3300
g2695
ag2696
aS'0.26'
p3301
aa(lp3302
g1725
ag1726
aS'0.26'
p3303
aa(lp3304
g327
ag328
aS'0.26'
p3305
aa(lp3306
g77
ag78
aS'0.26'
p3307
aa(lp3308
g85
ag86
aS'0.26'
p3309
aa(lp3310
g3185
ag3186
aS'0.26'
p3311
aa(lp3312
VGO:0017162
p3313
aVaryl hydrocarbon receptor binding
p3314
aS'0.26'
p3315
aa(lp3316
g727
ag728
aS'0.26'
p3317
aaaa(lp3318
VB9TST0_PIG
p3319
aVB9TST0
p3320
ag6
aI9823
a(lp3321
(lp3322
g33
ag34
aS'0.81'
p3323
aa(lp3324
g9
ag10
aS'0.81'
p3325
aa(lp3326
g165
ag166
aS'0.8'
p3327
aa(lp3328
g169
ag170
aS'0.75'
p3329
aa(lp3330
g41
ag42
aS'0.75'
p3331
aa(lp3332
g73
ag74
aS'0.75'
p3333
aa(lp3334
g127
ag128
aS'0.75'
p3335
aa(lp3336
g151
ag152
aS'0.74'
p3337
aa(lp3338
g161
ag162
aS'0.74'
p3339
aa(lp3340
g1095
ag1096
aS'0.63'
p3341
aaaa(lp3342
VF1SAQ5_PIG
p3343
aVF1SAQ5
p3344
ag6
aI9823
a(lp3345
(lp3346
g9
ag10
aS'0.65'
p3347
aa(lp3348
g33
ag34
aS'0.61'
p3349
aa(lp3350
g41
ag42
aS'0.49'
p3351
aa(lp3352
g13
ag14
aS'0.49'
p3353
aaaa(lp3354
VF1SAU0_PIG
p3355
aVF1SAU0
p3356
ag6
aI9823
a(lp3357
(lp3358
g9
ag10
aS'0.91'
p3359
aa(lp3360
g13
ag14
aS'0.43'
p3361
aaaa(lp3362
VF1S0X8_PIG
p3363
aVF1S0X8
p3364
ag6
aI9823
a(lp3365
(lp3366
g85
ag86
aS'0.81'
p3367
aa(lp3368
g89
ag90
aS'0.69'
p3369
aa(lp3370
g93
ag94
aS'0.65'
p3371
aa(lp3372
g203
ag204
aS'0.62'
p3373
aa(lp3374
g9
ag10
aS'0.62'
p3375
aa(lp3376
g99
ag100
aS'0.6'
p3377
aa(lp3378
g103
ag104
aS'0.57'
p3379
aa(lp3380
g13
ag14
aS'0.57'
p3381
aa(lp3382
g113
ag114
aS'0.57'
p3383
aa(lp3384
g109
ag110
aS'0.55'
p3385
aaaa(lp3386
VF1RNK3_PIG
p3387
aVF1RNK3
p3388
ag6
aI9823
a(lp3389
(lp3390
g631
ag632
aS'0.91'
p3391
aa(lp3392
g635
ag636
aS'0.23'
p3393
aaaa(lp3394
VF1RJ02_PIG
p3395
aVF1RJ02
p3396
ag6
aI9823
a(lp3397
(lp3398
g9
ag10
aS'0.41'
p3399
aa(lp3400
g549
ag550
aS'0.12'
p3401
aa(lp3402
g2577
ag2578
aS'0.12'
p3403
aaaa(lp3404
VF1SBH6_PIG
p3405
aVF1SBH6
p3406
ag6
aI9823
a(lp3407
(lp3408
g901
ag902
aS'0.86'
p3409
aa(lp3410
g1111
ag1112
aS'0.74'
p3411
aa(lp3412
g9
ag10
aS'0.68'
p3413
aaaa(lp3414
VF1RME6_PIG
p3415
aVF1RME6
p3416
ag6
aI9823
a(lp3417
(lp3418
g9
ag10
aS'0.42'
p3419
aa(lp3420
g737
ag738
aS'0.13'
p3421
aaaa(lp3422
VF1S9S9_PIG
p3423
aVF1S9S9
p3424
ag6
aI9823
a(lp3425
(lp3426
g93
ag94
aS'0.86'
p3427
aa(lp3428
g103
ag104
aS'0.83'
p3429
aa(lp3430
g89
ag90
aS'0.82'
p3431
aa(lp3432
g9
ag10
aS'0.81'
p3433
aa(lp3434
g13
ag14
aS'0.81'
p3435
aa(lp3436
g99
ag100
aS'0.8'
p3437
aa(lp3438
g113
ag114
aS'0.8'
p3439
aa(lp3440
g109
ag110
aS'0.79'
p3441
aa(lp3442
g85
ag86
aS'0.79'
p3443
aaaa(lp3444
VF1RGB6_PIG
p3445
aVF1RGB6
p3446
ag6
aI9823
a(lp3447
(lp3448
g9
ag10
aS'0.36'
p3449
aa(lp3450
g41
ag42
aS'0.14'
p3451
aa(lp3452
g1653
ag1654
aS'0.14'
p3453
aa(lp3454
g1661
ag1662
aS'0.14'
p3455
aa(lp3456
g1679
ag1680
aS'0.14'
p3457
aa(lp3458
g1683
ag1684
aS'0.14'
p3459
aa(lp3460
g33
ag34
aS'0.14'
p3461
aa(lp3462
g1717
ag1718
aS'0.14'
p3463
aa(lp3464
g1725
ag1726
aS'0.14'
p3465
aaaa(lp3466
VF1SGT5_PIG
p3467
aVF1SGT5
p3468
ag6
aI9823
a(lp3469
(lp3470
g89
ag90
aS'0.71'
p3471
aa(lp3472
g9
ag10
aS'0.7'
p3473
aa(lp3474
g93
ag94
aS'0.7'
p3475
aa(lp3476
g99
ag100
aS'0.69'
p3477
aa(lp3478
g103
ag104
aS'0.68'
p3479
aa(lp3480
g13
ag14
aS'0.68'
p3481
aa(lp3482
g109
ag110
aS'0.68'
p3483
aa(lp3484
g85
ag86
aS'0.68'
p3485
aa(lp3486
g113
ag114
aS'0.68'
p3487
aaaa(lp3488
VF1RZR3_PIG
p3489
aVF1RZR3
p3490
ag6
aI9823
a(lp3491
(lp3492
g73
ag74
aS'0.82'
p3493
aa(lp3494
g151
ag152
aS'0.64'
p3495
aa(lp3496
g155
ag156
aS'0.64'
p3497
aa(lp3498
g127
ag128
aS'0.64'
p3499
aa(lp3500
g9
ag10
aS'0.64'
p3501
aa(lp3502
g169
ag170
aS'0.64'
p3503
aa(lp3504
g33
ag34
aS'0.64'
p3505
aa(lp3506
g41
ag42
aS'0.64'
p3507
aa(lp3508
g165
ag166
aS'0.64'
p3509
aa(lp3510
g161
ag162
aS'0.64'
p3511
aaaa(lp3512
VF1SPR7_PIG
p3513
aVF1SPR7
p3514
ag6
aI9823
a(lp3515
(lp3516
g33
ag34
aS'0.8'
p3517
aa(lp3518
g151
ag152
aS'0.75'
p3519
aa(lp3520
g41
ag42
aS'0.75'
p3521
aa(lp3522
g155
ag156
aS'0.75'
p3523
aa(lp3524
g165
ag166
aS'0.75'
p3525
aa(lp3526
g127
ag128
aS'0.75'
p3527
aa(lp3528
g9
ag10
aS'0.75'
p3529
aa(lp3530
g169
ag170
aS'0.75'
p3531
aa(lp3532
g73
ag74
aS'0.75'
p3533
aa(lp3534
g161
ag162
aS'0.75'
p3535
aa(lp3536
g245
ag246
aS'0.73'
p3537
aa(lp3538
VGO:0031013
p3539
aVtroponin I binding
p3540
aS'0.73'
p3541
aa(lp3542
VGO:0005085
p3543
aVguanyl-nucleotide exchange factor activity
p3544
aS'0.7'
p3545
aa(lp3546
VGO:0004672
p3547
aVprotein kinase activity
p3548
aS'0.68'
p3549
aaaa(lp3550
VB7S818_PIG
p3551
aVB7S818
p3552
ag6
aI9823
a(lp3553
(lp3554
g9
ag10
aS'0.63'
p3555
aa(lp3556
g239
ag240
aS'0.51'
p3557
aa(lp3558
g41
ag42
aS'0.47'
p3559
aa(lp3560
g549
ag550
aS'0.39'
p3561
aaaa(lp3562
VF1RHB5_PIG
p3563
aVF1RHB5
p3564
ag6
aI9823
a(lp3565
(lp3566
g9
ag10
aS'0.42'
p3567
aa(lp3568
g41
ag42
aS'0.13'
p3569
aaaa(lp3570
VA1XSY7_PIG
p3571
aVA1XSY7
p3572
ag6
aI9823
a(lp3573
(lp3574
g9
ag10
aS'0.7'
p3575
aa(lp3576
g169
ag170
aS'0.03'
p3577
aa(lp3578
g239
ag240
aS'0.03'
p3579
aa(lp3580
g141
ag142
aS'0.03'
p3581
aaaa(lp3582
VD3KAY4_PIG
p3583
aVD3KAY4
p3584
ag6
aI9823
a(lp3585
(lp3586
g9
ag10
aS'0.78'
p3587
aa(lp3588
g33
ag34
aS'0.49'
p3589
aa(lp3590
g2083
ag2084
aS'0.42'
p3591
aa(lp3592
g3185
ag3186
aS'0.37'
p3593
aaaa(lp3594
VF1RW57_PIG
p3595
aVF1RW57
p3596
ag6
aI9823
a(lp3597
(lp3598
g9
ag10
aS'0.42'
p3599
aa(lp3600
g1129
ag1130
aS'0.34'
p3601
aa(lp3602
g1133
ag1134
aS'0.3'
p3603
aa(lp3604
g1137
ag1138
aS'0.28'
p3605
aa(lp3606
g549
ag550
aS'0.26'
p3607
aaaa(lp3608
VF1RMG9_PIG
p3609
aVF1RMG9
p3610
ag6
aI9823
a(lp3611
(lp3612
g631
ag632
aS'0.78'
p3613
aa(lp3614
g635
ag636
aS'0.21'
p3615
aa(lp3616
g639
ag640
aS'0.18'
p3617
aa(lp3618
g643
ag644
aS'0.18'
p3619
aa(lp3620
g647
ag648
aS'0.18'
p3621
aa(lp3622
g651
ag652
aS'0.18'
p3623
aa(lp3624
g37
ag38
aS'0.18'
p3625
aa(lp3626
g527
ag528
aS'0.18'
p3627
aa(lp3628
g571
ag572
aS'0.18'
p3629
aa(lp3630
g661
ag662
aS'0.18'
p3631
aa(lp3632
g665
ag666
aS'0.18'
p3633
aa(lp3634
g669
ag670
aS'0.18'
p3635
aa(lp3636
g673
ag674
aS'0.18'
p3637
aaaa(lp3638
VQ8MIM5_PIG
p3639
aVQ8MIM5
p3640
ag6
aI9823
a(lp3641
(lp3642
g77
ag78
aS'0.88'
p3643
aa(lp3644
g9
ag10
aS'0.71'
p3645
aaaa(lp3646
VF1RQL8_PIG
p3647
aVF1RQL8
p3648
ag6
aI9823
a(lp3649
(lp3650
g73
ag74
aS'0.85'
p3651
aa(lp3652
g41
ag42
aS'0.78'
p3653
aa(lp3654
g165
ag166
aS'0.73'
p3655
aa(lp3656
g151
ag152
aS'0.72'
p3657
aa(lp3658
g9
ag10
aS'0.72'
p3659
aa(lp3660
g169
ag170
aS'0.72'
p3661
aa(lp3662
g127
ag128
aS'0.72'
p3663
aa(lp3664
g155
ag156
aS'0.72'
p3665
aa(lp3666
g33
ag34
aS'0.72'
p3667
aa(lp3668
g161
ag162
aS'0.72'
p3669
aa(lp3670
VGO:0005086
p3671
aVARF guanyl-nucleotide exchange factor activity
p3672
aS'0.61'
p3673
aaaa(lp3674
VF1SKU7_PIG
p3675
aVF1SKU7
p3676
ag6
aI9823
a(lp3677
(lp3678
g165
ag166
aS'0.82'
p3679
aa(lp3680
g151
ag152
aS'0.78'
p3681
aa(lp3682
g73
ag74
aS'0.78'
p3683
aa(lp3684
g41
ag42
aS'0.77'
p3685
aa(lp3686
g33
ag34
aS'0.77'
p3687
aa(lp3688
g169
ag170
aS'0.76'
p3689
aa(lp3690
g161
ag162
aS'0.76'
p3691
aa(lp3692
g127
ag128
aS'0.76'
p3693
aa(lp3694
g9
ag10
aS'0.76'
p3695
aaaa(lp3696
VIRF1_PIG
p3697
aVA0FIN4
p3698
ag6
aI9823
a(lp3699
(lp3700
g9
ag10
aS'0.76'
p3701
aa(lp3702
g155
ag156
aS'0.61'
p3703
aa(lp3704
g41
ag42
aS'0.61'
p3705
aa(lp3706
g381
ag382
aS'0.53'
p3707
aaaa(lp3708
VF1SCI5_PIG
p3709
aVF1SCI5
p3710
ag6
aI9823
a(lp3711
(lp3712
g41
ag42
aS'0.85'
p3713
aa(lp3714
g123
ag124
aS'0.76'
p3715
aa(lp3716
g73
ag74
aS'0.71'
p3717
aa(lp3718
g127
ag128
aS'0.71'
p3719
aa(lp3720
g33
ag34
aS'0.68'
p3721
aa(lp3722
g151
ag152
aS'0.66'
p3723
aa(lp3724
g155
ag156
aS'0.66'
p3725
aa(lp3726
g9
ag10
aS'0.66'
p3727
aa(lp3728
g161
ag162
aS'0.66'
p3729
aa(lp3730
g165
ag166
aS'0.66'
p3731
aa(lp3732
g169
ag170
aS'0.66'
p3733
aaaa(lp3734
VF1RN60_PIG
p3735
aVF1RN60
p3736
ag6
aI9823
a(lp3737
(lp3738
g1369
ag1370
aS'0.82'
p3739
aa(lp3740
g1373
ag1374
aS'0.18'
p3741
aaaa(lp3742
VF1RF33_PIG
p3743
aVF1RF33
p3744
ag6
aI9823
a(lp3745
(lp3746
g631
ag632
aS'0.82'
p3747
aa(lp3748
g635
ag636
aS'0.15'
p3749
aaaa(lp3750
VF1RX14_PIG
p3751
aVF1RX14
p3752
ag6
aI9823
a(lp3753
(lp3754
g9
ag10
aS'0.6'
p3755
aa(lp3756
g737
ag738
aS'0.08'
p3757
aaaa(lp3758
VF2Z579_PIG
p3759
aVF2Z579
p3760
ag6
aI9823
a(lp3761
(lp3762
g355
ag356
aS'0.22'
p3763
aa(lp3764
g9
ag10
aS'0.22'
p3765
aa(lp3766
g321
ag322
aS'0.22'
p3767
aa(lp3768
g513
ag514
aS'0.21'
p3769
aa(lp3770
g25
ag26
aS'0.21'
p3771
aa(lp3772
g519
ag520
aS'0.21'
p3773
aa(lp3774
g523
ag524
aS'0.21'
p3775
aa(lp3776
g527
ag528
aS'0.21'
p3777
aa(lp3778
g531
ag532
aS'0.21'
p3779
aa(lp3780
g535
ag536
aS'0.21'
p3781
aa(lp3782
g539
ag540
aS'0.21'
p3783
aaaa(lp3784
VB7SFP7_PIG
p3785
aVB7SFP7
p3786
ag6
aI9823
a(lp3787
(lp3788
g9
ag10
aS'0.77'
p3789
aa(lp3790
g169
ag170
aS'0.13'
p3791
aa(lp3792
g155
ag156
aS'0.12'
p3793
aa(lp3794
g45
ag46
aS'0.12'
p3795
aa(lp3796
g77
ag78
aS'0.11'
p3797
aa(lp3798
g13
ag14
aS'0.11'
p3799
aa(lp3800
g969
ag970
aS'0.11'
p3801
aaaa(lp3802
VF1RFZ1_PIG
p3803
aVF1RFZ1
p3804
ag6
aI9823
a(lp3805
(lp3806
g73
ag74
aS'0.89'
p3807
aa(lp3808
g151
ag152
aS'0.78'
p3809
aa(lp3810
g9
ag10
aS'0.78'
p3811
aa(lp3812
g169
ag170
aS'0.78'
p3813
aa(lp3814
g127
ag128
aS'0.78'
p3815
aa(lp3816
g1793
ag1794
aS'0.78'
p3817
aa(lp3818
g155
ag156
aS'0.78'
p3819
aa(lp3820
g33
ag34
aS'0.78'
p3821
aa(lp3822
g165
ag166
aS'0.78'
p3823
aa(lp3824
g161
ag162
aS'0.78'
p3825
aa(lp3826
g41
ag42
aS'0.78'
p3827
aaaa(lp3828
VF1SKR2_PIG
p3829
aVF1SKR2
p3830
ag6
aI9823
a(lp3831
(lp3832
g631
ag632
aS'0.91'
p3833
aa(lp3834
g635
ag636
aS'0.26'
p3835
aa(lp3836
g639
ag640
aS'0.2'
p3837
aa(lp3838
g643
ag644
aS'0.2'
p3839
aa(lp3840
g647
ag648
aS'0.2'
p3841
aa(lp3842
g651
ag652
aS'0.2'
p3843
aa(lp3844
g37
ag38
aS'0.2'
p3845
aa(lp3846
g527
ag528
aS'0.2'
p3847
aa(lp3848
g571
ag572
aS'0.2'
p3849
aa(lp3850
g661
ag662
aS'0.2'
p3851
aa(lp3852
g665
ag666
aS'0.2'
p3853
aa(lp3854
g669
ag670
aS'0.2'
p3855
aa(lp3856
g673
ag674
aS'0.2'
p3857
aaaa(lp3858
VB3W6M8_PIG
p3859
aVB3W6M8
p3860
ag6
aI9823
a(lp3861
(lp3862
g9
ag10
aS'0.4'
p3863
aa(lp3864
g549
ag550
aS'0.12'
p3865
aaaa(lp3866
VD2KC06_PIG
p3867
aVD2KC06
p3868
ag6
aI9823
a(lp3869
(lp3870
g9
ag10
aS'0.76'
p3871
aa(lp3872
g41
ag42
aS'0.33'
p3873
aaaa(lp3874
VF1S6W9_PIG
p3875
aVF1S6W9
p3876
ag6
aI9823
a(lp3877
(lp3878
g9
ag10
aS'0.91'
p3879
aa(lp3880
g169
ag170
aS'0.65'
p3881
aaaa(lp3882
VA1XSY9_PIG
p3883
aVA1XSY9
p3884
ag6
aI9823
a(lp3885
(lp3886
g9
ag10
aS'0.68'
p3887
aa(lp3888
g2427
ag2428
aS'0.04'
p3889
aa(lp3890
VGO:0010844
p3891
aVrecombination hotspot binding
p3892
aS'0.04'
p3893
aa(lp3894
g13
ag14
aS'0.04'
p3895
aa(lp3896
g1887
ag1888
aS'0.04'
p3897
aa(lp3898
g67
ag68
aS'0.04'
p3899
aa(lp3900
g381
ag382
aS'0.04'
p3901
aa(lp3902
g2445
ag2446
aS'0.04'
p3903
aa(lp3904
g331
ag332
aS'0.04'
p3905
aa(lp3906
VGO:0046332
p3907
aVSMAD binding
p3908
aS'0.04'
p3909
aa(lp3910
g901
ag902
aS'0.04'
p3911
aa(lp3912
g1721
ag1722
aS'0.04'
p3913
aa(lp3914
g727
ag728
aS'0.04'
p3915
aa(lp3916
g45
ag46
aS'0.04'
p3917
aa(lp3918
g1725
ag1726
aS'0.04'
p3919
aa(lp3920
g1117
ag1118
aS'0.04'
p3921
aa(lp3922
g1667
ag1668
aS'0.04'
p3923
aa(lp3924
g141
ag142
aS'0.04'
p3925
aa(lp3926
g73
ag74
aS'0.04'
p3927
aa(lp3928
g2453
ag2454
aS'0.04'
p3929
aa(lp3930
g239
ag240
aS'0.04'
p3931
aaaa(lp3932
VD3K5L1_PIG
p3933
aVD3K5L1
p3934
ag6
aI9823
a(lp3935
(lp3936
g9
ag10
aS'0.83'
p3937
aa(lp3938
g165
ag166
aS'0.82'
p3939
aa(lp3940
g41
ag42
aS'0.75'
p3941
aa(lp3942
g33
ag34
aS'0.74'
p3943
aa(lp3944
g151
ag152
aS'0.72'
p3945
aa(lp3946
g169
ag170
aS'0.72'
p3947
aa(lp3948
g417
ag418
aS'0.72'
p3949
aa(lp3950
g127
ag128
aS'0.72'
p3951
aa(lp3952
g73
ag74
aS'0.72'
p3953
aa(lp3954
g161
ag162
aS'0.71'
p3955
aa(lp3956
g1099
ag1100
aS'0.68'
p3957
aa(lp3958
g1095
ag1096
aS'0.65'
p3959
aaaa(lp3960
VQ9MYY6_PIG
p3961
aVQ9MYY6
p3962
ag6
aI9823
a(lp3963
(lp3964
g9
ag10
aS'0.42'
p3965
aa(lp3966
g41
ag42
aS'0.14'
p3967
aaaa(lp3968
VF1SFH8_PIG
p3969
aVF1SFH8
p3970
ag6
aI9823
a(lp3971
(lp3972
g1033
ag1034
aS'0.86'
p3973
aa(lp3974
g165
ag166
aS'0.84'
p3975
aa(lp3976
g73
ag74
aS'0.79'
p3977
aa(lp3978
g151
ag152
aS'0.77'
p3979
aa(lp3980
g9
ag10
aS'0.74'
p3981
aa(lp3982
g41
ag42
aS'0.74'
p3983
aa(lp3984
g33
ag34
aS'0.74'
p3985
aa(lp3986
g169
ag170
aS'0.73'
p3987
aa(lp3988
g127
ag128
aS'0.73'
p3989
aa(lp3990
g161
ag162
aS'0.73'
p3991
aaaa(lp3992
VF1S4N0_PIG
p3993
aVF1S4N0
p3994
ag6
aI9823
a(lp3995
(lp3996
g41
ag42
aS'0.81'
p3997
aa(lp3998
g123
ag124
aS'0.8'
p3999
aa(lp4000
g177
ag178
aS'0.75'
p4001
aa(lp4002
g127
ag128
aS'0.75'
p4003
aa(lp4004
g151
ag152
aS'0.71'
p4005
aa(lp4006
g155
ag156
aS'0.71'
p4007
aa(lp4008
g9
ag10
aS'0.71'
p4009
aa(lp4010
g33
ag34
aS'0.71'
p4011
aa(lp4012
g145
ag146
aS'0.71'
p4013
aa(lp4014
g161
ag162
aS'0.71'
p4015
aa(lp4016
g165
ag166
aS'0.71'
p4017
aa(lp4018
g73
ag74
aS'0.71'
p4019
aa(lp4020
g169
ag170
aS'0.71'
p4021
aaaa(lp4022
VF1STF9_PIG
p4023
aVF1STF9
p4024
ag6
aI9823
a(lp4025
(lp4026
g9
ag10
aS'0.78'
p4027
aa(lp4028
g549
ag550
aS'0.38'
p4029
aa(lp4030
g41
ag42
aS'0.31'
p4031
aa(lp4032
g2099
ag2100
aS'0.29'
p4033
aaaa(lp4034
VF2Z580_PIG
p4035
aVF2Z580
p4036
ag6
aI9823
a(lp4037
(lp4038
g355
ag356
aS'0.22'
p4039
aa(lp4040
g9
ag10
aS'0.22'
p4041
aa(lp4042
g321
ag322
aS'0.22'
p4043
aaaa(lp4044
VF1SGZ6_PIG
p4045
aVF1SGZ6
p4046
ag6
aI9823
a(lp4047
(lp4048
g9
ag10
aS'0.42'
p4049
aa(lp4050
g549
ag550
aS'0.32'
p4051
aa(lp4052
g41
ag42
aS'0.26'
p4053
aaaa(lp4054
VF1SFL2_PIG
p4055
aVF1SFL2
p4056
ag6
aI9823
a(lp4057
(lp4058
g41
ag42
aS'0.56'
p4059
aa(lp4060
g3185
ag3186
aS'0.55'
p4061
aa(lp4062
g33
ag34
aS'0.53'
p4063
aa(lp4064
g1661
ag1662
aS'0.51'
p4065
aa(lp4066
g2577
ag2578
aS'0.51'
p4067
aa(lp4068
g73
ag74
aS'0.5'
p4069
aa(lp4070
g9
ag10
aS'0.48'
p4071
aaaa(lp4072
VF1SD63_PIG
p4073
aVF1SD63
p4074
ag6
aI9823
a(lp4075
(lp4076
g9
ag10
aS'0.84'
p4077
aa(lp4078
g73
ag74
aS'0.84'
p4079
aa(lp4080
VGO:0004871
p4081
aVsignal transducer activity
p4082
aS'0.65'
p4083
aaaa(lp4084
VQ29574_PIG
p4085
aVQ29574
p4086
ag6
aI9823
a(lp4087
(lp4088
g355
ag356
aS'0.28'
p4089
aa(lp4090
g9
ag10
aS'0.28'
p4091
aa(lp4092
g321
ag322
aS'0.28'
p4093
aaaa(lp4094
VF1SKA3_PIG
p4095
aVF1SKA3
p4096
ag6
aI9823
a(lp4097
(lp4098
g9
ag10
aS'0.91'
p4099
aa(lp4100
g169
ag170
aS'0.15'
p4101
aa(lp4102
g155
ag156
aS'0.13'
p4103
aa(lp4104
g45
ag46
aS'0.13'
p4105
aa(lp4106
g77
ag78
aS'0.12'
p4107
aaaa(lp4108
VF1SAT4_PIG
p4109
aVF1SAT4
p4110
ag6
aI9823
a(lp4111
(lp4112
g9
ag10
aS'0.86'
p4113
aa(lp4114
g381
ag382
aS'0.78'
p4115
aa(lp4116
g73
ag74
aS'0.72'
p4117
aa(lp4118
g41
ag42
aS'0.68'
p4119
aa(lp4120
g33
ag34
aS'0.65'
p4121
aa(lp4122
g165
ag166
aS'0.65'
p4123
aa(lp4124
g1613
ag1614
aS'0.63'
p4125
aa(lp4126
g151
ag152
aS'0.59'
p4127
aa(lp4128
g169
ag170
aS'0.59'
p4129
aa(lp4130
g161
ag162
aS'0.59'
p4131
aa(lp4132
g127
ag128
aS'0.59'
p4133
aaaa(lp4134
VE1U5T0_PIG
p4135
aVE1U5T0
p4136
ag6
aI9823
a(lp4137
(lp4138
g9
ag10
aS'0.37'
p4139
aa(lp4140
g77
ag78
aS'0.19'
p4141
aaaa(lp4142
VF1RIF2_PIG
p4143
aVF1RIF2
p4144
ag6
aI9823
a(lp4145
(lp4146
g9
ag10
aS'0.51'
p4147
aa(lp4148
g77
ag78
aS'0.35'
p4149
aa(lp4150
g549
ag550
aS'0.29'
p4151
aaaa(lp4152
VF1SK37_PIG
p4153
aVF1SK37
p4154
ag6
aI9823
a(lp4155
(lp4156
g9
ag10
aS'0.7'
p4157
aa(lp4158
g77
ag78
aS'0.63'
p4159
aaaa(lp4160
VF1RSP3_PIG
p4161
aVF1RSP3
p4162
ag6
aI9823
a(lp4163
(lp4164
g9
ag10
aS'0.41'
p4165
aa(lp4166
g737
ag738
aS'0.41'
p4167
aaaa(lp4168
VF1SD99_PIG
p4169
aVF1SD99
p4170
ag6
aI9823
a(lp4171
(lp4172
g9
ag10
aS'0.42'
p4173
aa(lp4174
g41
ag42
aS'0.21'
p4175
aa(lp4176
g549
ag550
aS'0.19'
p4177
aaaa(lp4178
VF1SD53_PIG
p4179
aVF1SD53
p4180
ag6
aI9823
a(lp4181
(lp4182
g41
ag42
aS'0.89'
p4183
aa(lp4184
g33
ag34
aS'0.89'
p4185
aa(lp4186
g73
ag74
aS'0.89'
p4187
aa(lp4188
g127
ag128
aS'0.89'
p4189
aa(lp4190
g151
ag152
aS'0.79'
p4191
aa(lp4192
g155
ag156
aS'0.79'
p4193
aa(lp4194
g9
ag10
aS'0.79'
p4195
aa(lp4196
g169
ag170
aS'0.79'
p4197
aa(lp4198
g161
ag162
aS'0.79'
p4199
aa(lp4200
g165
ag166
aS'0.79'
p4201
aa(lp4202
g145
ag146
aS'0.74'
p4203
aa(lp4204
g589
ag590
aS'0.7'
p4205
aa(lp4206
g133
ag134
aS'0.7'
p4207
aa(lp4208
g173
ag174
aS'0.7'
p4209
aa(lp4210
g177
ag178
aS'0.7'
p4211
aa(lp4212
g137
ag138
aS'0.7'
p4213
aaaa(lp4214
VF1SFK0_PIG
p4215
aVF1SFK0
p4216
ag6
aI9823
a(lp4217
(lp4218
g93
ag94
aS'0.89'
p4219
aa(lp4220
g89
ag90
aS'0.77'
p4221
aa(lp4222
g85
ag86
aS'0.77'
p4223
aa(lp4224
g99
ag100
aS'0.76'
p4225
aa(lp4226
g9
ag10
aS'0.75'
p4227
aa(lp4228
g109
ag110
aS'0.75'
p4229
aa(lp4230
g103
ag104
aS'0.74'
p4231
aa(lp4232
g13
ag14
aS'0.74'
p4233
aa(lp4234
g113
ag114
aS'0.74'
p4235
aaaa(lp4236
VF1S0N7_PIG
p4237
aVF1S0N7
p4238
ag6
aI9823
a(lp4239
(lp4240
g9
ag10
aS'0.61'
p4241
aa(lp4242
g41
ag42
aS'0.36'
p4243
aa(lp4244
g623
ag624
aS'0.33'
p4245
aaaa(lp4246
VF1SGD9_PIG
p4247
aVF1SGD9
p4248
ag6
aI9823
a(lp4249
(lp4250
g85
ag86
aS'0.46'
p4251
aa(lp4252
g89
ag90
aS'0.43'
p4253
aa(lp4254
g93
ag94
aS'0.42'
p4255
aa(lp4256
g9
ag10
aS'0.41'
p4257
aa(lp4258
g99
ag100
aS'0.41'
p4259
aa(lp4260
g103
ag104
aS'0.4'
p4261
aa(lp4262
g13
ag14
aS'0.4'
p4263
aa(lp4264
g109
ag110
aS'0.4'
p4265
aa(lp4266
g113
ag114
aS'0.4'
p4267
aaaa(lp4268
VF1SFQ4_PIG
p4269
aVF1SFQ4
p4270
ag6
aI9823
a(lp4271
(lp4272
g89
ag90
aS'0.5'
p4273
aa(lp4274
g9
ag10
aS'0.49'
p4275
aa(lp4276
g93
ag94
aS'0.48'
p4277
aa(lp4278
g99
ag100
aS'0.48'
p4279
aa(lp4280
g103
ag104
aS'0.47'
p4281
aa(lp4282
g13
ag14
aS'0.47'
p4283
aa(lp4284
g109
ag110
aS'0.47'
p4285
aa(lp4286
g85
ag86
aS'0.47'
p4287
aa(lp4288
g113
ag114
aS'0.47'
p4289
aaaa(lp4290
VF8J1Q4_PIG
p4291
aVF8J1Q4
p4292
ag6
aI9823
a(lp4293
(lp4294
g41
ag42
aS'0.74'
p4295
aa(lp4296
g85
ag86
aS'0.68'
p4297
aa(lp4298
g89
ag90
aS'0.6'
p4299
aa(lp4300
g93
ag94
aS'0.57'
p4301
aa(lp4302
g9
ag10
aS'0.56'
p4303
aa(lp4304
g99
ag100
aS'0.54'
p4305
aa(lp4306
g113
ag114
aS'0.53'
p4307
aa(lp4308
g13
ag14
aS'0.52'
p4309
aa(lp4310
g103
ag104
aS'0.52'
p4311
aaaa(lp4312
VF1S139_PIG
p4313
aVF1S139
p4314
ag6
aI9823
a(lp4315
(lp4316
g1693
ag1694
aS'0.47'
p4317
aa(lp4318
g9
ag10
aS'0.36'
p4319
aa(lp4320
g73
ag74
aS'0.31'
p4321
aa(lp4322
g13
ag14
aS'0.31'
p4323
aaaa(lp4324
VF1RF01_PIG
p4325
aVF1RF01
p4326
ag6
aI9823
a(lp4327
(lp4328
g9
ag10
aS'0.9'
p4329
aa(lp4330
g41
ag42
aS'0.16'
p4331
aa(lp4332
g25
ag26
aS'0.14'
p4333
aa(lp4334
g709
ag710
aS'0.14'
p4335
aa(lp4336
g177
ag178
aS'0.14'
p4337
aa(lp4338
g33
ag34
aS'0.14'
p4339
aa(lp4340
g351
ag352
aS'0.14'
p4341
aa(lp4342
g719
ag720
aS'0.14'
p4343
aa(lp4344
g77
ag78
aS'0.14'
p4345
aa(lp4346
g13
ag14
aS'0.14'
p4347
aa(lp4348
g727
ag728
aS'0.14'
p4349
aaaa(lp4350
VF1SLD9_PIG
p4351
aVF1SLD9
p4352
ag6
aI9823
a(lp4353
(lp4354
g9
ag10
aS'0.41'
p4355
aa(lp4356
g549
ag550
aS'0.12'
p4357
aaaa(lp4358
VF1S2P0_PIG
p4359
aVF1S2P0
p4360
ag6
aI9823
a(lp4361
(lp4362
g239
ag240
aS'0.71'
p4363
aa(lp4364
g9
ag10
aS'0.67'
p4365
aa(lp4366
g1111
ag1112
aS'0.67'
p4367
aa(lp4368
g41
ag42
aS'0.64'
p4369
aaaa(lp4370
VF1SSL5_PIG
p4371
aVF1SSL5
p4372
ag6
aI9823
a(lp4373
(lp4374
g355
ag356
aS'0.32'
p4375
aa(lp4376
g9
ag10
aS'0.32'
p4377
aa(lp4378
g321
ag322
aS'0.32'
p4379
aaaa(lp4380
VF1RXA0_PIG
p4381
aVF1RXA0
p4382
ag6
aI9823
a(lp4383
(lp4384
g73
ag74
aS'0.79'
p4385
aa(lp4386
g9
ag10
aS'0.75'
p4387
aa(lp4388
g165
ag166
aS'0.75'
p4389
aa(lp4390
g151
ag152
aS'0.74'
p4391
aa(lp4392
g169
ag170
aS'0.74'
p4393
aa(lp4394
g41
ag42
aS'0.74'
p4395
aa(lp4396
g33
ag34
aS'0.74'
p4397
aa(lp4398
g161
ag162
aS'0.74'
p4399
aa(lp4400
g127
ag128
aS'0.74'
p4401
aa(lp4402
g2453
ag2454
aS'0.7'
p4403
aaaa(lp4404
VF1RYR5_PIG
p4405
aVF1RYR5
p4406
ag6
aI9823
a(lp4407
(lp4408
g9
ag10
aS'0.78'
p4409
aa(lp4410
g2083
ag2084
aS'0.58'
p4411
aa(lp4412
g33
ag34
aS'0.48'
p4413
aaaa(lp4414
VF1RMB8_PIG
p4415
aVF1RMB8
p4416
ag6
aI9823
a(lp4417
(lp4418
g727
ag728
aS'0.54'
p4419
aa(lp4420
g9
ag10
aS'0.42'
p4421
aaaa(lp4422
VFOXN3_PIG
p4423
aVQ33BP8
p4424
ag6
aI9823
a(lp4425
(lp4426
g245
ag246
aS'0.78'
p4427
aa(lp4428
g9
ag10
aS'0.66'
p4429
aaaa(lp4430
VF2Z578_PIG
p4431
aVF2Z578
p4432
ag6
aI9823
a(lp4433
(lp4434
g355
ag356
aS'0.19'
p4435
aa(lp4436
g9
ag10
aS'0.19'
p4437
aa(lp4438
g321
ag322
aS'0.19'
p4439
aaaa(lp4440
VF1SD83_PIG
p4441
aVF1SD83
p4442
ag6
aI9823
a(lp4443
(lp4444
g73
ag74
aS'0.83'
p4445
aa(lp4446
g41
ag42
aS'0.8'
p4447
aa(lp4448
g9
ag10
aS'0.69'
p4449
aa(lp4450
g165
ag166
aS'0.68'
p4451
aaaa(lp4452
VF1SEL9_PIG
p4453
aVF1SEL9
p4454
ag6
aI9823
a(lp4455
(lp4456
g77
ag78
aS'0.4'
p4457
aa(lp4458
g239
ag240
aS'0.39'
p4459
aa(lp4460
g9
ag10
aS'0.38'
p4461
aaaa(lp4462
VF1SMN9_PIG
p4463
aVF1SMN9
p4464
ag6
aI9823
a(lp4465
(lp4466
g9
ag10
aS'0.41'
p4467
aa(lp4468
g1499
ag1500
aS'0.24'
p4469
aa(lp4470
g527
ag528
aS'0.23'
p4471
aa(lp4472
g2149
ag2150
aS'0.23'
p4473
aa(lp4474
g2153
ag2154
aS'0.23'
p4475
aa(lp4476
g331
ag332
aS'0.23'
p4477
aa(lp4478
g73
ag74
aS'0.23'
p4479
aa(lp4480
g25
ag26
aS'0.23'
p4481
aa(lp4482
g2165
ag2166
aS'0.23'
p4483
aa(lp4484
g2169
ag2170
aS'0.23'
p4485
aa(lp4486
g727
ag728
aS'0.23'
p4487
aa(lp4488
g85
ag86
aS'0.2'
p4489
aaaa(lp4490
VF1RHF5_PIG
p4491
aVF1RHF5
p4492
ag6
aI9823
a(lp4493
(lp4494
g9
ag10
aS'0.63'
p4495
aa(lp4496
g13
ag14
aS'0.62'
p4497
aaaa(lp4498
VF1RZU9_PIG
p4499
aVF1RZU9
p4500
ag6
aI9823
a(lp4501
(lp4502
g9
ag10
aS'0.78'
p4503
aa(lp4504
g73
ag74
aS'0.78'
p4505
aa(lp4506
VGO:0004407
p4507
aVhistone deacetylase activity
p4508
aS'0.78'
p4509
aa(lp4510
g41
ag42
aS'0.78'
p4511
aa(lp4512
g1661
ag1662
aS'0.78'
p4513
aa(lp4514
g3017
ag3018
aS'0.78'
p4515
aa(lp4516
g165
ag166
aS'0.78'
p4517
aa(lp4518
g727
ag728
aS'0.78'
p4519
aa(lp4520
VGO:0002039
p4521
aVp53 binding
p4522
aS'0.78'
p4523
aaaa(lp4524
VB4YSE6_PIG
p4525
aVB4YSE6
p4526
ag6
aI9823
a(lp4527
(lp4528
g9
ag10
aS'0.68'
p4529
aa(lp4530
g151
ag152
aS'0.02'
p4531
aa(lp4532
VGO:0070742
p4533
aVC2H2 zinc finger domain binding
p4534
aS'0.02'
p4535
aa(lp4536
g1887
ag1888
aS'0.02'
p4537
aa(lp4538
g381
ag382
aS'0.02'
p4539
aa(lp4540
g169
ag170
aS'0.02'
p4541
aa(lp4542
g41
ag42
aS'0.02'
p4543
aa(lp4544
g239
ag240
aS'0.02'
p4545
aa(lp4546
g1661
ag1662
aS'0.02'
p4547
aa(lp4548
g3185
ag3186
aS'0.02'
p4549
aa(lp4550
g165
ag166
aS'0.02'
p4551
aa(lp4552
g1667
ag1668
aS'0.02'
p4553
aa(lp4554
g67
ag68
aS'0.02'
p4555
aa(lp4556
VGO:0008327
p4557
aVmethyl-CpG binding
p4558
aS'0.02'
p4559
aa(lp4560
g549
ag550
aS'0.02'
p4561
aa(lp4562
VGO:0005102
p4563
aVreceptor binding
p4564
aS'0.02'
p4565
aa(lp4566
VGO:0019208
p4567
aVphosphatase regulator activity
p4568
aS'0.02'
p4569
aa(lp4570
g2427
ag2428
aS'0.02'
p4571
aa(lp4572
g747
ag748
aS'0.02'
p4573
aa(lp4574
g327
ag328
aS'0.02'
p4575
aa(lp4576
g13
ag14
aS'0.02'
p4577
aa(lp4578
g73
ag74
aS'0.02'
p4579
aa(lp4580
g331
ag332
aS'0.02'
p4581
aa(lp4582
g519
ag520
aS'0.02'
p4583
aa(lp4584
g1721
ag1722
aS'0.02'
p4585
aa(lp4586
g2445
ag2446
aS'0.02'
p4587
aa(lp4588
g1725
ag1726
aS'0.02'
p4589
aa(lp4590
g77
ag78
aS'0.02'
p4591
aa(lp4592
g141
ag142
aS'0.02'
p4593
aa(lp4594
g727
ag728
aS'0.02'
p4595
aa(lp4596
g2453
ag2454
aS'0.02'
p4597
aa(lp4598
g1613
ag1614
aS'0.02'
p4599
aaaa(lp4600
VF8SIP5_PIG
p4601
aVF8SIP5
p4602
ag6
aI9823
a(lp4603
(lp4604
g9
ag10
aS'0.89'
p4605
aa(lp4606
g29
ag30
aS'0.29'
p4607
aa(lp4608
g13
ag14
aS'0.22'
p4609
aaaa(lp4610
VC7EMF4_PIG
p4611
aVC7EMF4
p4612
ag6
aI9823
a(lp4613
(lp4614
g9
ag10
aS'0.68'
p4615
aa(lp4616
g165
ag166
aS'0.67'
p4617
aaaa(lp4618
VQ4U0Y2_PIG
p4619
aVQ4U0Y2
p4620
ag6
aI9823
a(lp4621
(lp4622
g9
ag10
aS'0.42'
p4623
aa(lp4624
g41
ag42
aS'0.14'
p4625
aaaa(lp4626
VF1RPK0_PIG
p4627
aVF1RPK0
p4628
ag6
aI9823
a(lp4629
(lp4630
g9
ag10
aS'0.19'
p4631
aa(lp4632
g355
ag356
aS'0.17'
p4633
aa(lp4634
g321
ag322
aS'0.17'
p4635
aaaa(lp4636
VF1SUD5_PIG
p4637
aVF1SUD5
p4638
ag6
aI9823
a(lp4639
(lp4640
g9
ag10
aS'0.4'
p4641
aa(lp4642
VGO:0032454
p4643
aVhistone demethylase activity (H3-K9 specific)
p4644
aS'0.34'
p4645
aaaa(lp4646
VF1SC08_PIG
p4647
aVF1SC08
p4648
ag6
aI9823
a(lp4649
(lp4650
g9
ag10
aS'0.66'
p4651
aa(lp4652
g1661
ag1662
aS'0.36'
p4653
aa(lp4654
VGO:0001105
p4655
aVRNA polymerase II transcription coactivator activity
p4656
aS'0.35'
p4657
aaaa(lp4658
VB2LVG7_PIG
p4659
aVB2LVG7
p4660
ag6
aI9823
a(lp4661
(lp4662
g9
ag10
aS'0.46'
p4663
aa(lp4664
g13
ag14
aS'0.42'
p4665
aaaa(lp4666
VQ29049_PIG
p4667
aVQ29049
p4668
ag6
aI9823
a(lp4669
(lp4670
g89
ag90
aS'0.5'
p4671
aa(lp4672
g9
ag10
aS'0.48'
p4673
aa(lp4674
g93
ag94
aS'0.48'
p4675
aa(lp4676
g99
ag100
aS'0.48'
p4677
aa(lp4678
g103
ag104
aS'0.47'
p4679
aa(lp4680
g13
ag14
aS'0.47'
p4681
aa(lp4682
g113
ag114
aS'0.47'
p4683
aa(lp4684
g109
ag110
aS'0.46'
p4685
aa(lp4686
g85
ag86
aS'0.46'
p4687
aaaa(lp4688
VF1SCQ6_PIG
p4689
aVF1SCQ6
p4690
ag6
aI9823
a(lp4691
(lp4692
g9
ag10
aS'0.72'
p4693
aa(lp4694
g239
ag240
aS'0.7'
p4695
aa(lp4696
g73
ag74
aS'0.7'
p4697
aaaa(lp4698
VE7FLX9_PIG
p4699
aVE7FLX9
p4700
ag6
aI9823
a(lp4701
(lp4702
g89
ag90
aS'0.58'
p4703
aa(lp4704
g665
ag666
aS'0.54'
p4705
aa(lp4706
g9
ag10
aS'0.53'
p4707
aa(lp4708
g93
ag94
aS'0.53'
p4709
aa(lp4710
g99
ag100
aS'0.51'
p4711
aa(lp4712
g113
ag114
aS'0.48'
p4713
aa(lp4714
g13
ag14
aS'0.48'
p4715
aa(lp4716
g103
ag104
aS'0.48'
p4717
aa(lp4718
g85
ag86
aS'0.47'
p4719
aa(lp4720
g109
ag110
aS'0.47'
p4721
aaaa(lp4722
VF1S8Q7_PIG
p4723
aVF1S8Q7
p4724
ag6
aI9823
a(lp4725
(lp4726
g9
ag10
aS'0.4'
p4727
aa(lp4728
g41
ag42
aS'0.12'
p4729
aa(lp4730
g549
ag550
aS'0.12'
p4731
aaaa(lp4732
VF1RG08_PIG
p4733
aVF1RG08
p4734
ag6
aI9823
a(lp4735
(lp4736
g89
ag90
aS'0.74'
p4737
aa(lp4738
g93
ag94
aS'0.73'
p4739
aa(lp4740
g9
ag10
aS'0.71'
p4741
aa(lp4742
g99
ag100
aS'0.7'
p4743
aa(lp4744
g113
ag114
aS'0.69'
p4745
aa(lp4746
g85
ag86
aS'0.68'
p4747
aa(lp4748
g13
ag14
aS'0.68'
p4749
aa(lp4750
g103
ag104
aS'0.68'
p4751
aaaa(lp4752
VF1S043_PIG
p4753
aVF1S043
p4754
ag6
aI9823
a(lp4755
(lp4756
g25
ag26
aS'0.48'
p4757
aa(lp4758
g41
ag42
aS'0.48'
p4759
aa(lp4760
g709
ag710
aS'0.48'
p4761
aa(lp4762
g9
ag10
aS'0.48'
p4763
aa(lp4764
g177
ag178
aS'0.48'
p4765
aa(lp4766
g33
ag34
aS'0.48'
p4767
aa(lp4768
g351
ag352
aS'0.48'
p4769
aa(lp4770
g719
ag720
aS'0.48'
p4771
aa(lp4772
g77
ag78
aS'0.48'
p4773
aa(lp4774
g13
ag14
aS'0.48'
p4775
aa(lp4776
g727
ag728
aS'0.48'
p4777
aaaa(lp4778
VF2Z5R9_PIG
p4779
aVF2Z5R9
p4780
ag6
aI9823
a(lp4781
(lp4782
g9
ag10
aS'0.4'
p4783
aa(lp4784
g2577
ag2578
aS'0.24'
p4785
aaaa(lp4786
VF1RUY2_PIG
p4787
aVF1RUY2
p4788
ag6
aI9823
a(lp4789
(lp4790
g9
ag10
aS'0.4'
p4791
aa(lp4792
g41
ag42
aS'0.16'
p4793
aa(lp4794
g549
ag550
aS'0.16'
p4795
aa(lp4796
g2577
ag2578
aS'0.13'
p4797
aaaa(lp4798
VA1XSZ0_PIG
p4799
aVA1XSZ0
p4800
ag6
aI9823
a(lp4801
(lp4802
g623
ag624
aS'0.44'
p4803
aa(lp4804
g9
ag10
aS'0.37'
p4805
aaaa(lp4806
VFOXL2_PIG
p4807
aVQ6VFT6
p4808
ag6
aI9823
a(lp4809
(lp4810
g737
ag738
aS'0.45'
p4811
aa(lp4812
g9
ag10
aS'0.34'
p4813
aaaa(lp4814
VA3F781_PIG
p4815
aVA3F781
p4816
ag6
aI9823
a(lp4817
(lp4818
g9
ag10
aS'0.56'
p4819
aa(lp4820
g549
ag550
aS'0.27'
p4821
aa(lp4822
g3265
ag3266
aS'0.23'
p4823
aa(lp4824
g2083
ag2084
aS'0.23'
p4825
aa(lp4826
g41
ag42
aS'0.22'
p4827
aaaa(lp4828
VF1SDK7_PIG
p4829
aVF1SDK7
p4830
ag6
aI9823
a(lp4831
(lp4832
g9
ag10
aS'0.8'
p4833
aa(lp4834
g737
ag738
aS'0.09'
p4835
aa(lp4836
g1657
ag1658
aS'0.07'
p4837
aa(lp4838
g1693
ag1694
aS'0.07'
p4839
aa(lp4840
g1703
ag1704
aS'0.07'
p4841
aa(lp4842
g13
ag14
aS'0.07'
p4843
aaaa(lp4844
VF1S2J9_PIG
p4845
aVF1S2J9
p4846
ag6
aI9823
a(lp4847
(lp4848
g41
ag42
aS'0.86'
p4849
aa(lp4850
g127
ag128
aS'0.84'
p4851
aa(lp4852
g33
ag34
aS'0.83'
p4853
aa(lp4854
g133
ag134
aS'0.77'
p4855
aa(lp4856
g137
ag138
aS'0.74'
p4857
aa(lp4858
g145
ag146
aS'0.74'
p4859
aa(lp4860
g123
ag124
aS'0.74'
p4861
aa(lp4862
g73
ag74
aS'0.72'
p4863
aa(lp4864
g151
ag152
aS'0.7'
p4865
aa(lp4866
g155
ag156
aS'0.7'
p4867
aa(lp4868
g9
ag10
aS'0.7'
p4869
aa(lp4870
g161
ag162
aS'0.7'
p4871
aa(lp4872
g165
ag166
aS'0.7'
p4873
aa(lp4874
g169
ag170
aS'0.7'
p4875
aa(lp4876
g173
ag174
aS'0.69'
p4877
aa(lp4878
g177
ag178
aS'0.69'
p4879
aaaa(lp4880
VF1RWH8_PIG
p4881
aVF1RWH8
p4882
ag6
aI9823
a(lp4883
(lp4884
g13
ag14
aS'0.66'
p4885
aa(lp4886
g9
ag10
aS'0.64'
p4887
aaaa(lp4888
VB4YSE9_PIG
p4889
aVB4YSE9
p4890
ag6
aI9823
a(lp4891
(lp4892
g9
ag10
aS'0.37'
p4893
aa(lp4894
g727
ag728
aS'0.29'
p4895
aaaa(lp4896
VC3UP60_PIG
p4897
aVC3UP60
p4898
ag6
aI9823
a(lp4899
(lp4900
g631
ag632
aS'0.83'
p4901
aa(lp4902
g639
ag640
aS'0.05'
p4903
aa(lp4904
g673
ag674
aS'0.05'
p4905
aa(lp4906
g527
ag528
aS'0.04'
p4907
aa(lp4908
g571
ag572
aS'0.04'
p4909
aa(lp4910
g661
ag662
aS'0.04'
p4911
aa(lp4912
g665
ag666
aS'0.04'
p4913
aaaa(lp4914
VF1SSE4_PIG
p4915
aVF1SSE4
p4916
ag6
aI9823
a(lp4917
(lp4918
VGO:0048185
p4919
aVactivin binding
p4920
aS'0.39'
p4921
aa(lp4922
g9
ag10
aS'0.36'
p4923
aaaa(lp4924
VF1S3W3_PIG
p4925
aVF1S3W3
p4926
ag6
aI9823
a(lp4927
(lp4928
g9
ag10
aS'0.76'
p4929
aa(lp4930
g2001
ag2002
aS'0.71'
p4931
aaaa(lp4932
VF1RZF6_PIG
p4933
aVF1RZF6
p4934
ag6
aI9823
a(lp4935
(lp4936
g9
ag10
aS'0.79'
p4937
aa(lp4938
g213
ag214
aS'0.12'
p4939
aaaa(lp4940
VF2Z5L6_PIG
p4941
aVF2Z5L6
p4942
ag6
aI9823
a(lp4943
(lp4944
g513
ag514
aS'0.22'
p4945
aa(lp4946
g25
ag26
aS'0.22'
p4947
aa(lp4948
g355
ag356
aS'0.22'
p4949
aa(lp4950
g519
ag520
aS'0.22'
p4951
aa(lp4952
g9
ag10
aS'0.22'
p4953
aa(lp4954
g523
ag524
aS'0.22'
p4955
aa(lp4956
g527
ag528
aS'0.22'
p4957
aa(lp4958
g531
ag532
aS'0.22'
p4959
aa(lp4960
g535
ag536
aS'0.22'
p4961
aa(lp4962
g539
ag540
aS'0.22'
p4963
aa(lp4964
g321
ag322
aS'0.22'
p4965
aaaa(lp4966
VF1SAJ1_PIG
p4967
aVF1SAJ1
p4968
ag6
aI9823
a(lp4969
(lp4970
g9
ag10
aS'0.39'
p4971
aa(lp4972
g41
ag42
aS'0.07'
p4973
aa(lp4974
g1653
ag1654
aS'0.07'
p4975
aa(lp4976
g1661
ag1662
aS'0.07'
p4977
aa(lp4978
g1679
ag1680
aS'0.07'
p4979
aa(lp4980
g1683
ag1684
aS'0.07'
p4981
aa(lp4982
g33
ag34
aS'0.07'
p4983
aa(lp4984
g1717
ag1718
aS'0.07'
p4985
aa(lp4986
g1725
ag1726
aS'0.07'
p4987
aaaa(lp4988
VF2Z5H5_PIG
p4989
aVF2Z5H5
p4990
ag6
aI9823
a(lp4991
(lp4992
g13
ag14
aS'0.81'
p4993
aa(lp4994
g9
ag10
aS'0.66'
p4995
aaaa(lp4996
VF1RKA3_PIG
p4997
aVF1RKA3
p4998
ag6
aI9823
a(lp4999
(lp5000
g73
ag74
aS'0.82'
p5001
aa(lp5002
g41
ag42
aS'0.8'
p5003
aa(lp5004
g127
ag128
aS'0.8'
p5005
aa(lp5006
g151
ag152
aS'0.79'
p5007
aa(lp5008
g9
ag10
aS'0.79'
p5009
aa(lp5010
g169
ag170
aS'0.79'
p5011
aa(lp5012
g155
ag156
aS'0.79'
p5013
aa(lp5014
g33
ag34
aS'0.79'
p5015
aa(lp5016
g165
ag166
aS'0.79'
p5017
aa(lp5018
g161
ag162
aS'0.79'
p5019
aa(lp5020
VGO:0032794
p5021
aVGTPase activating protein binding
p5022
aS'0.74'
p5023
aa(lp5024
g141
ag142
aS'0.67'
p5025
aa(lp5026
VGO:0001047
p5027
aVcore promoter binding
p5028
aS'0.63'
p5029
aa(lp5030
VGO:0004722
p5031
aVprotein serine/threonine phosphatase activity
p5032
aS'0.63'
p5033
aaaa(lp5034
VF1SPS0_PIG
p5035
aVF1SPS0
p5036
ag6
aI9823
a(lp5037
(lp5038
g9
ag10
aS'0.47'
p5039
aa(lp5040
g549
ag550
aS'0.39'
p5041
aa(lp5042
g41
ag42
aS'0.32'
p5043
aaaa(lp5044
VF1RHK4_PIG
p5045
aVF1RHK4
p5046
ag6
aI9823
a(lp5047
(lp5048
g9
ag10
aS'0.41'
p5049
aa(lp5050
g549
ag550
aS'0.12'
p5051
aaaa(lp5052
VF1RUH3_PIG
p5053
aVF1RUH3
p5054
ag6
aI9823
a(lp5055
(lp5056
g9
ag10
aS'0.41'
p5057
aa(lp5058
g549
ag550
aS'0.29'
p5059
aa(lp5060
g41
ag42
aS'0.23'
p5061
aaaa(lp5062
VF1SF56_PIG
p5063
aVF1SF56
p5064
ag6
aI9823
a(lp5065
(lp5066
g815
ag816
aS'0.92'
p5067
aa(lp5068
g41
ag42
aS'0.85'
p5069
aa(lp5070
VGO:0000156
p5071
aVphosphorelay response regulator activity
p5072
aS'0.84'
p5073
aa(lp5074
g13
ag14
aS'0.84'
p5075
aa(lp5076
g9
ag10
aS'0.84'
p5077
aa(lp5078
g1693
ag1694
aS'0.84'
p5079
aa(lp5080
g141
ag142
aS'0.84'
p5081
aa(lp5082
g727
ag728
aS'0.84'
p5083
aaaa(lp5084
VF1RF02_PIG
p5085
aVF1RF02
p5086
ag6
aI9823
a(lp5087
(lp5088
g25
ag26
aS'0.48'
p5089
aa(lp5090
g41
ag42
aS'0.48'
p5091
aa(lp5092
g709
ag710
aS'0.48'
p5093
aa(lp5094
g9
ag10
aS'0.48'
p5095
aa(lp5096
g177
ag178
aS'0.48'
p5097
aa(lp5098
g33
ag34
aS'0.48'
p5099
aa(lp5100
g351
ag352
aS'0.48'
p5101
aa(lp5102
g719
ag720
aS'0.48'
p5103
aa(lp5104
g77
ag78
aS'0.48'
p5105
aa(lp5106
g13
ag14
aS'0.48'
p5107
aa(lp5108
g727
ag728
aS'0.48'
p5109
aaaa(lp5110
VQKI_PIG
p5111
aVQ5W9D5
p5112
ag6
aI9823
a(lp5113
(lp5114
g89
ag90
aS'0.58'
p5115
aa(lp5116
g93
ag94
aS'0.54'
p5117
aa(lp5118
g9
ag10
aS'0.53'
p5119
aa(lp5120
g99
ag100
aS'0.51'
p5121
aa(lp5122
g113
ag114
aS'0.49'
p5123
aa(lp5124
g103
ag104
aS'0.48'
p5125
aa(lp5126
g13
ag14
aS'0.48'
p5127
aa(lp5128
g109
ag110
aS'0.48'
p5129
aa(lp5130
g85
ag86
aS'0.47'
p5131
aaaa(lp5132
VF1RFY7_PIG
p5133
aVF1RFY7
p5134
ag6
aI9823
a(lp5135
(lp5136
g239
ag240
aS'0.73'
p5137
aa(lp5138
VGO:0008201
p5139
aVheparin binding
p5140
aS'0.69'
p5141
aa(lp5142
g1043
ag1044
aS'0.66'
p5143
aa(lp5144
g9
ag10
aS'0.64'
p5145
aa(lp5146
g73
ag74
aS'0.61'
p5147
aaaa(lp5148
VF1SL78_PIG
p5149
aVF1SL78
p5150
ag6
aI9823
a(lp5151
(lp5152
g77
ag78
aS'0.85'
p5153
aa(lp5154
g41
ag42
aS'0.77'
p5155
aa(lp5156
g33
ag34
aS'0.77'
p5157
aa(lp5158
g165
ag166
aS'0.77'
p5159
aa(lp5160
g73
ag74
aS'0.77'
p5161
aa(lp5162
g9
ag10
aS'0.77'
p5163
aa(lp5164
g151
ag152
aS'0.76'
p5165
aa(lp5166
g169
ag170
aS'0.76'
p5167
aa(lp5168
g127
ag128
aS'0.76'
p5169
aa(lp5170
g161
ag162
aS'0.76'
p5171
aaaa(lp5172
VF2Z587_PIG
p5173
aVF2Z587
p5174
ag6
aI9823
a(lp5175
(lp5176
g355
ag356
aS'0.16'
p5177
aa(lp5178
g9
ag10
aS'0.16'
p5179
aa(lp5180
g321
ag322
aS'0.16'
p5181
aaaa(lp5182
VE0A234_PIG
p5183
aVE0A234
p5184
ag6
aI9823
a(lp5185
(lp5186
g9
ag10
aS'0.53'
p5187
aa(lp5188
g73
ag74
aS'0.5'
p5189
aa(lp5190
g41
ag42
aS'0.42'
p5191
aaaa(lp5192
VF1RYB3_PIG
p5193
aVF1RYB3
p5194
ag6
aI9823
a(lp5195
(lp5196
g355
ag356
aS'0.28'
p5197
aa(lp5198
g9
ag10
aS'0.28'
p5199
aa(lp5200
g321
ag322
aS'0.28'
p5201
aaaa(lp5202
VF1RVI1_PIG
p5203
aVF1RVI1
p5204
ag6
aI9823
a(lp5205
(lp5206
g9
ag10
aS'0.82'
p5207
aa(lp5208
g3265
ag3266
aS'0.18'
p5209
aaaa(lp5210
VB7SFP6_PIG
p5211
aVB7SFP6
p5212
ag6
aI9823
a(lp5213
(lp5214
g9
ag10
aS'0.79'
p5215
aa(lp5216
g169
ag170
aS'0.31'
p5217
aaaa(lp5218
VF1SKV0_PIG
p5219
aVF1SKV0
p5220
ag6
aI9823
a(lp5221
(lp5222
g165
ag166
aS'0.81'
p5223
aa(lp5224
g73
ag74
aS'0.78'
p5225
aa(lp5226
g151
ag152
aS'0.77'
p5227
aa(lp5228
g169
ag170
aS'0.74'
p5229
aa(lp5230
g41
ag42
aS'0.74'
p5231
aa(lp5232
g33
ag34
aS'0.74'
p5233
aa(lp5234
g161
ag162
aS'0.74'
p5235
aa(lp5236
g127
ag128
aS'0.74'
p5237
aa(lp5238
g9
ag10
aS'0.74'
p5239
aaaa(lp5240
VB3GBX6_PIG
p5241
aVB3GBX6
p5242
ag6
aI9823
a(lp5243
(lp5244
g9
ag10
aS'0.74'
p5245
aa(lp5246
g527
ag528
aS'0.02'
p5247
aaaa(lp5248
VF1RFW9_PIG
p5249
aVF1RFW9
p5250
ag6
aI9823
a(lp5251
(lp5252
g9
ag10
aS'0.41'
p5253
aa(lp5254
g327
ag328
aS'0.38'
p5255
aaaa(lp5256
VQ6S020_PIG
p5257
aVQ6S020
p5258
ag6
aI9823
a(lp5259
(lp5260
g9
ag10
aS'0.73'
p5261
aa(lp5262
g3265
ag3266
aS'0.35'
p5263
aaaa(lp5264
VF1RQC4_PIG
p5265
aVF1RQC4
p5266
ag6
aI9823
a(lp5267
(lp5268
g9
ag10
aS'0.41'
p5269
aa(lp5270
g549
ag550
aS'0.3'
p5271
aaaa(lp5272
VF1RY00_PIG
p5273
aVF1RY00
p5274
ag6
aI9823
a(lp5275
(lp5276
g41
ag42
aS'0.9'
p5277
aa(lp5278
g127
ag128
aS'0.78'
p5279
aa(lp5280
g33
ag34
aS'0.77'
p5281
aa(lp5282
g151
ag152
aS'0.76'
p5283
aa(lp5284
g155
ag156
aS'0.76'
p5285
aa(lp5286
g9
ag10
aS'0.76'
p5287
aa(lp5288
g169
ag170
aS'0.76'
p5289
aa(lp5290
g161
ag162
aS'0.76'
p5291
aa(lp5292
g165
ag166
aS'0.76'
p5293
aa(lp5294
g73
ag74
aS'0.76'
p5295
aaaas.