(lp0
(dp1
a(dp2
a(dp3
a(dp4
Vseq1
p5
(lp6
(lp7
VTID_DROME
p8
aF258.84
aF6.7305e-82
aF100.0
aa(lp9
VTID_DROME
p10
aF258.455
aF8.16924e-82
aF100.0
aa(lp11
VTID_DROME
p12
aF260.381
aF8.72522e-82
aF100.0
aa(lp13
VTID_DROME
p14
aF260.381
aF8.72522e-82
aF100.0
aa(lp15
VD3DN23_DROME
p16
aF258.455
aF8.81666e-82
aF100.0
aa(lp17
VT2GGE7_DROME
p18
aF259.225
aF2.8152e-81
aF99.0
aa(lp19
VD6W4V2_DROME
p20
aF258.84
aF3.13551e-81
aF100.0
aa(lp21
VQ7KVH7_DROME
p22
aF258.455
aF3.72174e-81
aF100.0
aa(lp23
VTID_DROME
p24
aF258.07
aF7.53981e-81
aF99.0
aa(lp25
VB4QAY0_DROSI
p26
aF251.906
aF1.3936e-78
aF97.0
aa(lp27
VTID_DROME
p28
aF251.521
aF2.30205e-78
aF98.0
aa(lp29
VB4I8S2_DROSE
p30
aF246.899
aF7.623e-77
aF95.0
aa(lp31
VB4P9R9_DROYA
p32
aF246.514
aF1.70312e-76
aF95.0
aa(lp33
VB3NPR2_DROER
p34
aF240.736
aF2.83994e-74
aF94.0
aa(lp35
VB3MFJ4_DROAN
p36
aF171.785
aF4.42727e-48
aF66.0
aa(lp37
VB4GHT7_DROPE
p38
aF157.532
aF9.13587e-43
aF61.0
aa(lp39
VB5E1J0_DROPS
p40
aF155.221
aF7.40194e-42
aF60.0
aa(lp41
VB4NML0_DROWI
p42
aF154.066
aF1.44753e-41
aF61.0
aa(lp43
VB4MDV9_DROVI
p44
aF140.198
aF1.35868e-36
aF55.0
aa(lp45
VTID_DROVI
p46
aF140.198
aF1.5179e-36
aF55.0
aa(lp47
VB4J871_DROGR
p48
aF133.265
aF4.14666e-34
aF59.0
aa(lp49
VB4KQ15_DROMO
p50
aF132.494
aF7.12226e-34
aF53.0
aa(lp51
VT1PAG9_MUSDO
p52
aF127.872
aF2.49841e-32
aF81.0
aa(lp53
VA0A084VEZ2_9DIPT
p54
aF123.635
aF9.11385e-31
aF78.0
aa(lp55
VQ16R72_AEDAE
p56
aF119.013
aF5.15029e-29
aF76.0
aa(lp57
VW5JTS9_ANODA
p58
aF117.857
aF8.88096e-29
aF77.0
aa(lp59
VA7UR98_ANOGA
p60
aF117.857
aF1.3796e-28
aF71.0
aa(lp61
VE2ADT8_CAMFO
p62
aF117.857
aF1.77976e-28
aF56.0
aa(lp63
VW5JHS9_ANODA
p64
aF117.472
aF2.0742e-28
aF73.0
aa(lp65
VQ7QJL2_ANOGA
p66
aF116.701
aF6.03054e-28
aF71.0
aa(lp67
VF4WP97_ACREC
p68
aF114.775
aF1.56959e-27
aF74.0
aa(lp69
VA0A026WNX8_CERBI
p70
aF114.775
aF2.47764e-27
aF73.0
aa(lp71
VE9J573_SOLIN
p72
aF114.39
aF3.5232e-27
aF55.0
aa(lp73
VE2BN18_HARSA
p74
aF113.62
aF3.53132e-27
aF73.0
aa(lp75
VH6VTQ4_BOMMO
p76
aF114.005
aF5.64392e-27
aF69.0
aa(lp77
VG6DRS5_DANPL
p78
aF112.849
aF1.68043e-26
aF55.0
aa(lp79
VA0A067QSP8_ZOONE
p80
aF108.997
aF3.14376e-25
aF79.0
aa(lp81
VD7T2W9_VITVI
p82
aF106.686
aF8.9122e-25
aF57.0
aa(lp83
VM0SAK9_MUSAM
p84
aF105.916
aF1.79022e-24
aF50.0
aa(lp85
VA0A077ZN80_TRITR
p86
aF103.219
aF7.92567e-24
aF65.0
aa(lp87
VA0A022T6E8_9HYME
p88
aF105.145
aF9.24433e-24
aF65.0
aa(lp89
VE0VXY1_PEDHC
p90
aF103.219
aF1.97537e-23
aF66.0
aa(lp91
VA0A087U298_9ARAC
p92
aF98.5969
aF3.07262e-23
aF49.0
aa(lp93
VE9H747_DAPPU
p94
aF102.834
aF3.32749e-23
aF61.0
aa(lp95
VA0A077ZED0_TRITR
p96
aF102.449
aF4.53569e-23
aF65.0
aa(lp97
VA0A085NPN4_9BILA
p98
aF102.449
aF4.82794e-23
aF64.0
aa(lp99
VDNJA3_MOUSE
p100
aF101.679
aF6.04412e-23
aF66.0
aa(lp101
VA1KXF7_RAT
p102
aF101.679
aF6.16743e-23
aF66.0
aa(lp103
VU3CDU6_CALJA
p104
aF101.679
aF6.37285e-23
aF66.0
aa(lp105
VL8HPQ8_9CETA
p106
aF100.138
aF7.88531e-23
aF65.0
aasaI1
a.