(lp0
(dp1
VF1RN62_PIG
p2
(dp3
I3200
F0.06
sI3297
F0.82
sI3165
F0.06
sI3094
F0.07
sI3101
F0.16
sI3295
F0.07
ssVF1SGX5_PIG
p4
(dp5
I480
F0.32
sI136
F0.7
sI10058
F0.32
sI7628
F0.32
sI1997
F0.32
sI6928
F0.32
sI4819
F0.32
sI6933
F0.32
sI7063
F0.32
sI2008
F0.32
sI219
F0.33
ssVF1SKA3_PIG
p6
(dp7
I2114
F0.13
sI136
F0.91
sI138
F0.15
sI4819
F0.13
sI500
F0.12
sI219
F0.11
sI252
F0.1
ssVF1RU07_PIG
p8
(dp9
I3200
F0.11
sI3297
F0.82
sI3165
F0.11
sI3094
F0.11
sI3101
F0.24
sI3295
F0.11
ssVB7SFP8_PIG
p10
(dp11
I2114
F0.13
sI136
F0.91
sI138
F0.15
sI4819
F0.13
sI500
F0.12
sI219
F0.11
sI252
F0.1
ssVF1RNK3_PIG
p12
(dp13
I6849
F0.17
sI4827
F0.17
sI3748
F0.17
sI8118
F0.17
sI3048
F0.17
sI1997
F0.17
sI6927
F0.17
sI5617
F0.17
sI4146
F0.17
sI2101
F0.23
sI4822
F0.91
sI3414
F0.17
sI3227
F0.17
ssVF1S8X5_PIG
p14
(dp15
I6849
F0.08
sI4827
F0.08
sI3748
F0.08
sI8118
F0.08
sI3048
F0.08
sI1997
F0.08
sI6927
F0.08
sI5617
F0.08
sI4146
F0.08
sI2101
F0.14
sI4822
F0.81
sI3414
F0.08
sI3227
F0.08
ssVF1SKR8_PIG
p16
(dp17
I6849
F0.17
sI4827
F0.17
sI3748
F0.17
sI8118
F0.17
sI3048
F0.17
sI1997
F0.17
sI6927
F0.17
sI5617
F0.17
sI4146
F0.17
sI2101
F0.27
sI4822
F0.78
sI3414
F0.17
sI3227
F0.17
ssVF1S3D3_PIG
p18
(dp19
I6849
F0.08
sI4827
F0.08
sI3748
F0.08
sI8118
F0.08
sI3048
F0.08
sI1997
F0.08
sI6927
F0.08
sI5617
F0.08
sI4146
F0.08
sI2101
F0.3
sI4822
F0.79
sI3414
F0.08
sI3227
F0.08
ssVF1SU64_PIG
p20
(dp21
I6849
F0.02
sI4827
F0.02
sI3748
F0.02
sI8118
F0.02
sI3048
F0.02
sI1997
F0.02
sI6927
F0.02
sI5617
F0.02
sI4146
F0.02
sI2101
F0.05
sI4822
F0.82
sI3414
F0.02
sI3227
F0.02
ssVF1SKR4_PIG
p22
(dp23
I6849
F0.21
sI4827
F0.21
sI3748
F0.21
sI8118
F0.21
sI3048
F0.21
sI1997
F0.21
sI6927
F0.21
sI5617
F0.21
sI4146
F0.21
sI2101
F0.27
sI4822
F0.91
sI3414
F0.21
sI3227
F0.21
ssVF1RF33_PIG
p24
(dp25
I6849
F0.08
sI4827
F0.08
sI3748
F0.08
sI8118
F0.08
sI3048
F0.08
sI1997
F0.08
sI6927
F0.08
sI5617
F0.08
sI4146
F0.08
sI2101
F0.15
sI4822
F0.82
sI3414
F0.08
sI3227
F0.08
ssVF8SIP5_PIG
p26
(dp27
I480
F0.1
sI136
F0.72
sI10058
F0.1
sI7628
F0.1
sI1997
F0.1
sI6928
F0.1
sI4819
F0.1
sI6933
F0.1
sI7063
F0.1
sI2008
F0.1
sI219
F0.11
ssVF1S6X0_PIG
p28
(dp29
I2114
F0.02
sI136
F0.79
sI138
F0.32
sI4819
F0.02
sI500
F0.02
sI219
F0.02
sI252
F0.02
ssVF1SKR1_PIG
p30
(dp31
I6849
F0.18
sI4827
F0.18
sI3748
F0.18
sI8118
F0.18
sI3048
F0.18
sI1997
F0.18
sI6927
F0.18
sI5617
F0.18
sI4146
F0.18
sI2101
F0.21
sI4822
F0.78
sI3414
F0.18
sI3227
F0.18
ssVF1SKA4_PIG
p32
(dp33
I2114
F0.12
sI136
F0.77
sI138
F0.13
sI4819
F0.12
sI500
F0.11
sI219
F0.11
sI252
F0.11
ssVQ2VI02_PIG
p34
(dp35
I2114
F0.05
sI251
F0.01
sI136
F0.77
sI138
F0.12
sI4819
F0.05
sI500
F0.26
sI219
F0.07
ssVC3UP60_PIG
p36
(dp37
I6849
F0.05
sI4827
F0.05
sI3748
F0.02
sI8118
F0.04
sI3048
F0.02
sI1997
F0.02
sI6927
F0.04
sI5617
F0.04
sI4146
F0.04
sI2101
F0.02
sI4822
F0.83
sI3414
F0.02
sI3227
F0.02
ssVB7SFP5_PIG
p38
(dp39
I2114
F0.12
sI136
F0.81
sI138
F0.55
sI4819
F0.12
sI500
F0.13
sI219
F0.71
sI252
F0.09
ssVB3GBX6_PIG
p40
(dp41
I2114
F0.01
sI136
F0.74
sI139
F0.01
sI9423
F0.01
sI5656
F0.01
sI6927
F0.02
sI5647
F0.01
ssVF1RMG9_PIG
p42
(dp43
I6849
F0.18
sI4827
F0.18
sI3748
F0.18
sI8118
F0.18
sI3048
F0.18
sI1997
F0.18
sI6927
F0.18
sI5617
F0.18
sI4146
F0.18
sI2101
F0.21
sI4822
F0.78
sI3414
F0.18
sI3227
F0.18
ssVF1RN60_PIG
p44
(dp45
I3200
F0.09
sI3297
F0.82
sI3165
F0.09
sI3094
F0.12
sI3101
F0.18
sI3295
F0.12
ssVB7SFP7_PIG
p46
(dp47
I2114
F0.12
sI136
F0.77
sI138
F0.13
sI4819
F0.12
sI500
F0.11
sI219
F0.11
sI252
F0.11
ssVF1SKR2_PIG
p48
(dp49
I6849
F0.2
sI4827
F0.2
sI3748
F0.2
sI8118
F0.2
sI3048
F0.2
sI1997
F0.2
sI6927
F0.2
sI5617
F0.2
sI4146
F0.2
sI2101
F0.26
sI4822
F0.91
sI3414
F0.2
sI3227
F0.2
ssVB7SFP6_PIG
p50
(dp51
I321
F0.01
sI136
F0.79
sI138
F0.31
sI140
F0.01
sI1999
F0.04
sI500
F0.01
sI251
F0.01
ssVF1SCI1_PIG
p52
(dp53
I3200
F0.12
sI3297
F0.83
sI3165
F0.12
sI3094
F0.12
sI3101
F0.15
sI3295
F0.12
ssVF1S6W9_PIG
p54
(dp55
I2114
F0.03
sI136
F0.91
sI138
F0.65
sI4819
F0.03
sI500
F0.03
sI219
F0.03
sI252
F0.02
ssVF1RQS3_PIG
p56
(dp57
I2114
F0.01
sI136
F0.74
sI139
F0.01
sI9423
F0.01
sI5656
F0.01
sI6927
F0.02
sI5647
F0.01
ssa(dp58
g2
I9823
sg4
I9823
sg6
I9823
sg8
I9823
sg10
I9823
sg12
I9823
sg14
I9823
sg16
I9823
sg18
I9823
sg20
I9823
sg22
I9823
sg24
I9823
sg26
I9823
sg28
I9823
sg30
I9823
sg32
I9823
sg34
I9823
sg36
I9823
sg38
I9823
sg40
I9823
sg42
I9823
sg44
I9823
sg46
I9823
sg48
I9823
sg50
I9823
sg52
I9823
sg54
I9823
sg56
I9823
sa(dp59
g2
VF1RN62
p60
sg4
VF1SGX5
p61
sg6
VF1SKA3
p62
sg8
VF1RU07
p63
sg10
VB7SFP8
p64
sg12
VF1RNK3
p65
sg14
VF1S8X5
p66
sg16
VF1SKR8
p67
sg18
VF1S3D3
p68
sg20
VF1SU64
p69
sg22
VF1SKR4
p70
sg24
VF1RF33
p71
sg26
VF8SIP5
p72
sg28
VF1S6X0
p73
sg30
VF1SKR1
p74
sg32
VF1SKA4
p75
sg34
VQ2VI02
p76
sg36
VC3UP60
p77
sg38
VB7SFP5
p78
sg40
VB3GBX6
p79
sg42
VF1RMG9
p80
sg44
VF1RN60
p81
sg46
VB7SFP7
p82
sg48
VF1SKR2
p83
sg50
VB7SFP6
p84
sg52
VF1SCI1
p85
sg54
VF1S6W9
p86
sg56
VF1RQS3
p87
sa.