(lp0
(dp1
VF1SLA4_PIG
p2
(dp3
I3200
F0.01
sI3297
F0.01
sI3165
F0.01
sI3094
F0.11
sI3101
F0.82
sI3295
F0.01
ssVF1SGX5_PIG
p4
(dp5
I480
F0.32
sI136
F0.7
sI10058
F0.32
sI7628
F0.32
sI1997
F0.32
sI6928
F0.32
sI4819
F0.32
sI6933
F0.32
sI7063
F0.32
sI2008
F0.32
sI219
F0.33
ssVF1SH89_PIG
p6
(dp7
I7557
F0.13
sI2566
F0.92
sI10217
F0.85
sI7562
F0.13
sI7542
F0.13
sI5847
F0.13
ssVF1SQZ5_PIG
p8
(dp9
I3200
F0.01
sI3297
F0.01
sI3165
F0.01
sI3094
F0.8
sI3101
F0.01
sI3295
F0.77
ssVF1SPH5_PIG
p10
(dp11
I521
F0.35
sI1999
F0.84
sI527
F0.36
ssVF1RNK3_PIG
p12
(dp13
I6849
F0.17
sI4827
F0.17
sI3748
F0.17
sI8118
F0.17
sI3048
F0.17
sI1997
F0.17
sI6927
F0.17
sI5617
F0.17
sI4146
F0.17
sI2101
F0.23
sI4822
F0.91
sI3414
F0.17
sI3227
F0.17
ssVF1RXV0_PIG
p14
(dp15
I3776
F0.43
sI808
F0.78
sI2008
F0.43
sI813
F0.41
ssVF1SB89_PIG
p16
(dp17
I516
F0.72
sI527
F0.74
ssVF1SQZ6_PIG
p18
(dp19
I3200
F0.01
sI3297
F0.06
sI3165
F0.01
sI3094
F0.83
sI3101
F0.03
sI3295
F0.15
ssVF1SUN1_PIG
p20
(dp21
I3200
F0.02
sI3297
F0.02
sI3165
F0.02
sI3094
F0.18
sI3101
F0.1
sI3295
F0.82
ssVF1RP45_PIG
p22
(dp23
I6928
F0.67
sI9447
F0.63
ssVF1S6X0_PIG
p24
(dp25
I2114
F0.02
sI136
F0.79
sI138
F0.32
sI4819
F0.02
sI500
F0.02
sI219
F0.02
sI252
F0.02
ssVF1S2E5_PIG
p26
(dp27
I527
F0.75
ssVF1SKA4_PIG
p28
(dp29
I2114
F0.12
sI136
F0.77
sI138
F0.13
sI4819
F0.12
sI500
F0.11
sI219
F0.11
sI252
F0.11
ssVF1SR61_PIG
p30
(dp31
I1857
F0.01
sI7087
F0.02
sI2369
F0.01
sI5039
F0.82
sI1488
F0.2
sI4819
F0.01
sI4815
F0.01
sI7326
F0.01
sI10239
F0.01
ssVF1SKR4_PIG
p32
(dp33
I6849
F0.21
sI4827
F0.21
sI3748
F0.21
sI8118
F0.21
sI3048
F0.21
sI1997
F0.21
sI6927
F0.21
sI5617
F0.21
sI4146
F0.21
sI2101
F0.27
sI4822
F0.91
sI3414
F0.21
sI3227
F0.21
ssVF1RFS4_PIG
p34
(dp35
I521
F0.03
sI1999
F0.86
sI527
F0.06
ssVF1SEV8_PIG
p36
(dp37
I529
F0.89
sI1515
F0.13
sI1999
F0.88
ssVB8Y650_PIG
p38
(dp39
I544
F0.13
sI7464
F0.76
sI6928
F0.76
ssVRS26_PIG
p40
(dp41
I521
F0.63
sI1999
F0.81
sI527
F0.41
ssVF1RFY3_PIG
p42
(dp43
I5666
F0.72
sI1222
F0.72
sI7016
F0.72
sI522
F0.72
sI2114
F0.75
sI495
F0.72
sI4816
F0.76
sI18
F0.72
sI6998
F0.72
sI2008
F0.72
ssVF1SHD6_PIG
p44
(dp45
I529
F0.78
sI1515
F0.15
sI1999
F0.79
ssVF1SSH0_PIG
p46
(dp47
I6928
F0.55
sI482
F0.49
sI4819
F0.55
ssVF1RIM1_PIG
p48
(dp49
I646
F0.78
ssVF1RQS3_PIG
p50
(dp51
I2114
F0.01
sI136
F0.74
sI139
F0.01
sI9423
F0.01
sI5656
F0.01
sI6927
F0.02
sI5647
F0.01
ssVF1RN62_PIG
p52
(dp53
I3200
F0.06
sI3297
F0.82
sI3165
F0.06
sI3094
F0.07
sI3101
F0.16
sI3295
F0.07
ssVF1RY71_PIG
p54
(dp55
I5666
F0.04
sI1222
F0.02
sI7016
F0.09
sI522
F0.03
sI2114
F0.6
sI495
F0.04
sI4816
F0.76
sI18
F0.04
sI6998
F0.08
sI2008
F0.04
ssVQ2QEH5_PIG
p56
(dp57
I3200
F0.01
sI3297
F0.01
sI3165
F0.01
sI3094
F0.1
sI3101
F0.83
sI3295
F0.01
ssVF1S4Q0_PIG
p58
(dp59
I4816
F0.92
sI1858
F0.01
sI5285
F0.03
sI486
F0.01
sI5039
F0.04
sI5168
F0.03
sI5617
F0.34
sI1488
F0.01
sI5335
F0.04
sI1631
F0.01
ssVF1RU07_PIG
p60
(dp61
I3200
F0.11
sI3297
F0.82
sI3165
F0.11
sI3094
F0.11
sI3101
F0.24
sI3295
F0.11
ssVB7SFP8_PIG
p62
(dp63
I2114
F0.13
sI136
F0.91
sI138
F0.15
sI4819
F0.13
sI500
F0.12
sI219
F0.11
sI252
F0.1
ssVF1RXS5_PIG
p64
(dp65
I544
F0.22
sI7464
F0.77
sI6928
F0.78
ssVIYD1_PIG
p66
(dp67
I4336
F0.01
sI2897
F0.02
sI1138
F0.7
sI6582
F0.03
sI3799
F0.01
sI6266
F0.01
sI893
F0.01
ssVF1RTX5_PIG
p68
(dp69
I1857
F0.02
sI6222
F0.78
sI1999
F0.78
ssVF1S3D3_PIG
p70
(dp71
I6849
F0.08
sI4827
F0.08
sI3748
F0.08
sI8118
F0.08
sI3048
F0.08
sI1997
F0.08
sI6927
F0.08
sI5617
F0.08
sI4146
F0.08
sI2101
F0.3
sI4822
F0.79
sI3414
F0.08
sI3227
F0.08
ssVF1SU64_PIG
p72
(dp73
I6849
F0.02
sI4827
F0.02
sI3748
F0.02
sI8118
F0.02
sI3048
F0.02
sI1997
F0.02
sI6927
F0.02
sI5617
F0.02
sI4146
F0.02
sI2101
F0.05
sI4822
F0.82
sI3414
F0.02
sI3227
F0.02
ssVQ29271_PIG
p74
(dp75
I4816
F0.12
sI1858
F0.01
sI5285
F0.01
sI486
F0.01
sI5039
F0.01
sI5168
F0.01
sI5617
F0.92
sI1488
F0.01
sI5335
F0.01
sI1631
F0.01
ssVF1RF33_PIG
p76
(dp77
I6849
F0.08
sI4827
F0.08
sI3748
F0.08
sI8118
F0.08
sI3048
F0.08
sI1997
F0.08
sI6927
F0.08
sI5617
F0.08
sI4146
F0.08
sI2101
F0.15
sI4822
F0.82
sI3414
F0.08
sI3227
F0.08
ssVF1RRN3_PIG
p78
(dp79
I4816
F0.92
sI1858
F0.05
sI5285
F0.08
sI486
F0.05
sI5039
F0.08
sI5168
F0.08
sI5617
F0.29
sI1488
F0.05
sI5335
F0.1
sI1631
F0.05
ssVF1SQQ2_PIG
p80
(dp81
I6849
F0.1
sI4827
F0.1
sI3748
F0.1
sI8118
F0.1
sI3048
F0.1
sI1997
F0.1
sI6927
F0.1
sI5617
F0.1
sI4146
F0.1
sI2101
F0.82
sI4822
F0.1
sI3414
F0.13
sI3227
F0.1
ssVF1S6S8_PIG
p82
(dp83
I5666
F0.61
sI1222
F0.61
sI7016
F0.61
sI522
F0.61
sI2114
F0.71
sI495
F0.61
sI4816
F0.75
sI18
F0.61
sI6998
F0.61
sI2008
F0.61
ssVF1RL96_PIG
p84
(dp85
I6849
F0.18
sI4827
F0.11
sI3748
F0.1
sI8118
F0.13
sI3048
F0.11
sI1997
F0.1
sI6927
F0.11
sI5617
F0.11
sI4146
F0.11
sI2101
F0.8
sI4822
F0.1
sI3414
F0.11
sI3227
F0.11
ssVF2Z5M3_PIG
p86
(dp87
I8118
F0.7
sI4143
F0.65
ssVF1SKR1_PIG
p88
(dp89
I6849
F0.18
sI4827
F0.18
sI3748
F0.18
sI8118
F0.18
sI3048
F0.18
sI1997
F0.18
sI6927
F0.18
sI5617
F0.18
sI4146
F0.18
sI2101
F0.21
sI4822
F0.78
sI3414
F0.18
sI3227
F0.18
ssVA5GFT5_PIG
p90
(dp91
I70
F0.04
sI6927
F0.93
sI4976
F0.04
sI915
F0.19
sI2197
F0.04
sI215
F0.04
sI2170
F0.04
sI476
F0.04
ssVQ8HYQ7_PIG
p92
(dp93
I3200
F0.01
sI3297
F0.06
sI3165
F0.01
sI3094
F0.82
sI3101
F0.03
sI3295
F0.15
ssVF1RUE4_PIG
p94
(dp95
I1291
F0.73
ssVB7SFP5_PIG
p96
(dp97
I2114
F0.12
sI136
F0.81
sI138
F0.55
sI4819
F0.12
sI500
F0.13
sI219
F0.71
sI252
F0.09
ssVTC1D4_PIG
p98
(dp99
I544
F0.03
sI7464
F0.8
sI6928
F0.8
ssVF1S5Z8_PIG
p100
(dp101
I6849
F0.06
sI4827
F0.06
sI3748
F0.06
sI8118
F0.06
sI3048
F0.06
sI1997
F0.06
sI6927
F0.06
sI5617
F0.06
sI4146
F0.06
sI2101
F0.83
sI4822
F0.06
sI3414
F0.1
sI3227
F0.06
ssVF1RUR7_PIG
p102
(dp103
I1488
F0.01
sI5285
F0.01
sI7087
F0.02
sI4816
F0.21
sI5617
F0.92
sI4852
F0.01
sI5335
F0.01
sI10239
F0.01
ssVF1SCI1_PIG
p104
(dp105
I3200
F0.12
sI3297
F0.83
sI3165
F0.12
sI3094
F0.12
sI3101
F0.15
sI3295
F0.12
ssVF1S108_PIG
p106
(dp107
I6928
F0.65
sI9447
F0.61
ssVF1S8X5_PIG
p108
(dp109
I6849
F0.08
sI4827
F0.08
sI3748
F0.08
sI8118
F0.08
sI3048
F0.08
sI1997
F0.08
sI6927
F0.08
sI5617
F0.08
sI4146
F0.08
sI2101
F0.14
sI4822
F0.81
sI3414
F0.08
sI3227
F0.08
ssVF1SKR8_PIG
p110
(dp111
I6849
F0.17
sI4827
F0.17
sI3748
F0.17
sI8118
F0.17
sI3048
F0.17
sI1997
F0.17
sI6927
F0.17
sI5617
F0.17
sI4146
F0.17
sI2101
F0.27
sI4822
F0.78
sI3414
F0.17
sI3227
F0.17
ssVEF1B_PIG
p112
(dp113
I529
F0.89
sI1515
F0.01
sI1999
F0.88
ssVF2Z546_PIG
p114
(dp115
I516
F0.66
sI527
F0.71
ssVD0G0C6_PIG
p116
(dp117
I3776
F0.15
sI808
F0.78
sI2008
F0.15
sI813
F0.02
ssVF1RUR6_PIG
p118
(dp119
I4816
F0.22
sI1858
F0.01
sI5285
F0.01
sI486
F0.01
sI5039
F0.01
sI5168
F0.01
sI5617
F0.92
sI1488
F0.01
sI5335
F0.02
sI1631
F0.01
ssVF1SC02_PIG
p120
(dp121
I544
F0.09
sI7464
F0.8
sI6928
F0.8
ssVF1RW46_PIG
p122
(dp123
I6849
F0.03
sI4827
F0.01
sI3748
F0.01
sI8118
F0.01
sI3048
F0.01
sI1997
F0.01
sI6927
F0.01
sI5617
F0.01
sI4146
F0.01
sI2101
F0.06
sI4822
F0.01
sI3414
F0.83
sI3227
F0.01
ssVF1RN43_PIG
p124
(dp125
I4816
F0.2
sI1858
F0.01
sI5285
F0.02
sI486
F0.01
sI5039
F0.01
sI5168
F0.01
sI5617
F0.92
sI1488
F0.01
sI5335
F0.04
sI1631
F0.01
ssVF1RFB7_PIG
p126
(dp127
I6849
F0.23
sI4827
F0.03
sI3748
F0.02
sI8118
F0.16
sI3048
F0.02
sI1997
F0.02
sI6927
F0.03
sI5617
F0.03
sI4146
F0.03
sI2101
F0.8
sI4822
F0.02
sI3414
F0.02
sI3227
F0.02
ssVF1SAD7_PIG
p128
(dp129
I4816
F0.89
sI1488
F0.18
sI7326
F0.01
ssVF1SK31_PIG
p130
(dp131
I6849
F0.11
sI4827
F0.11
sI3748
F0.11
sI8118
F0.11
sI3048
F0.11
sI1997
F0.11
sI6927
F0.11
sI5617
F0.11
sI4146
F0.11
sI2101
F0.81
sI4822
F0.12
sI3414
F0.11
sI3227
F0.11
ssVF1SB33_PIG
p132
(dp133
I6849
F0.08
sI4827
F0.08
sI3748
F0.08
sI8118
F0.08
sI3048
F0.08
sI1997
F0.08
sI6927
F0.08
sI5617
F0.08
sI4146
F0.08
sI2101
F0.82
sI4822
F0.08
sI3414
F0.11
sI3227
F0.08
ssVF1RRE1_PIG
p134
(dp135
I6849
F0.13
sI4827
F0.13
sI3748
F0.13
sI8118
F0.13
sI3048
F0.13
sI1997
F0.13
sI6927
F0.13
sI5617
F0.13
sI4146
F0.13
sI2101
F0.8
sI4822
F0.14
sI3414
F0.13
sI3227
F0.13
ssVF1RMG9_PIG
p136
(dp137
I6849
F0.18
sI4827
F0.18
sI3748
F0.18
sI8118
F0.18
sI3048
F0.18
sI1997
F0.18
sI6927
F0.18
sI5617
F0.18
sI4146
F0.18
sI2101
F0.21
sI4822
F0.78
sI3414
F0.18
sI3227
F0.18
ssVB7SFP7_PIG
p138
(dp139
I2114
F0.12
sI136
F0.77
sI138
F0.13
sI4819
F0.12
sI500
F0.11
sI219
F0.11
sI252
F0.11
ssVF1SKR2_PIG
p140
(dp141
I6849
F0.2
sI4827
F0.2
sI3748
F0.2
sI8118
F0.2
sI3048
F0.2
sI1997
F0.2
sI6927
F0.2
sI5617
F0.2
sI4146
F0.2
sI2101
F0.26
sI4822
F0.91
sI3414
F0.2
sI3227
F0.2
ssVF1S6W9_PIG
p142
(dp143
I2114
F0.03
sI136
F0.91
sI138
F0.65
sI4819
F0.03
sI500
F0.03
sI219
F0.03
sI252
F0.02
ssVF1SKA3_PIG
p144
(dp145
I2114
F0.13
sI136
F0.91
sI138
F0.15
sI4819
F0.13
sI500
F0.12
sI219
F0.11
sI252
F0.1
ssVF1S349_PIG
p146
(dp147
I544
F0.03
sI7464
F0.8
sI6928
F0.8
ssVF1RN60_PIG
p148
(dp149
I3200
F0.09
sI3297
F0.82
sI3165
F0.09
sI3094
F0.12
sI3101
F0.18
sI3295
F0.12
ssVF1S0D6_PIG
p150
(dp151
I5666
F0.73
sI1222
F0.73
sI7016
F0.73
sI522
F0.73
sI2114
F0.75
sI495
F0.73
sI4816
F0.76
sI18
F0.73
sI6998
F0.73
sI2008
F0.73
ssVF1SNB6_PIG
p152
(dp153
I527
F0.75
ssVF1RW43_PIG
p154
(dp155
I6849
F0.04
sI4827
F0.27
sI3748
F0.03
sI8118
F0.03
sI3048
F0.29
sI1997
F0.03
sI6927
F0.04
sI5617
F0.03
sI4146
F0.04
sI2101
F0.58
sI4822
F0.08
sI3414
F0.03
sI3227
F0.03
ssVF1S7V7_PIG
p156
(dp157
I10217
F0.02
sI4336
F0.03
sI2897
F0.03
sI1138
F0.95
sI6582
F0.04
sI3799
F0.02
sI6266
F0.02
sI893
F0.02
ssVA5GFR6_PIG
p158
(dp159
I4816
F0.92
sI1858
F0.05
sI5285
F0.09
sI486
F0.05
sI5039
F0.09
sI5168
F0.08
sI5617
F0.29
sI1488
F0.05
sI5335
F0.11
sI1631
F0.05
ssVF1SE90_PIG
p160
(dp161
I5666
F0.58
sI1222
F0.58
sI7016
F0.58
sI522
F0.58
sI2114
F0.67
sI495
F0.58
sI4816
F0.75
sI18
F0.58
sI6998
F0.58
sI2008
F0.58
ssVF1RTV5_PIG
p162
(dp163
I1308
F0.92
sI1309
F0.62
sI6126
F0.02
sI6927
F0.71
ssVF8SIP5_PIG
p164
(dp165
I480
F0.1
sI136
F0.72
sI10058
F0.1
sI7628
F0.1
sI1997
F0.1
sI6928
F0.1
sI4819
F0.1
sI6933
F0.1
sI7063
F0.1
sI2008
F0.1
sI219
F0.11
ssVF1SB44_PIG
p166
(dp167
I7464
F0.81
sI6928
F0.81
sI4171
F0.01
ssVF1SGB6_PIG
p168
(dp169
I2376
F0.25
sI2009
F0.01
sI1699
F0.01
sI2190
F0.02
sI6886
F0.87
ssVF1RYZ3_PIG
p170
(dp171
I2114
F0.22
sI136
F0.54
sI138
F0.37
sI4819
F0.22
sI500
F0.9
sI219
F0.22
sI252
F0.22
ssVF1RRD9_PIG
p172
(dp173
I6849
F0.09
sI4827
F0.09
sI3748
F0.09
sI8118
F0.09
sI3048
F0.09
sI1997
F0.09
sI6927
F0.09
sI5617
F0.09
sI4146
F0.09
sI2101
F0.82
sI4822
F0.1
sI3414
F0.09
sI3227
F0.09
ssVF1RUA0_PIG
p174
(dp175
I5666
F0.23
sI1222
F0.23
sI7016
F0.24
sI522
F0.23
sI2114
F0.72
sI495
F0.23
sI4816
F0.75
sI18
F0.23
sI6998
F0.23
sI2008
F0.23
ssVH6WA55_PIG
p176
(dp177
I3200
F0.01
sI3297
F0.06
sI3165
F0.01
sI3094
F0.83
sI3101
F0.03
sI3295
F0.15
ssVQ95L19_PIG
p178
(dp179
I516
F0.67
sI527
F0.75
ssVQ2VI02_PIG
p180
(dp181
I2114
F0.05
sI251
F0.01
sI136
F0.77
sI138
F0.12
sI4819
F0.05
sI500
F0.26
sI219
F0.07
ssVC3UP60_PIG
p182
(dp183
I6849
F0.05
sI4827
F0.05
sI3748
F0.02
sI8118
F0.04
sI3048
F0.02
sI1997
F0.02
sI6927
F0.04
sI5617
F0.04
sI4146
F0.04
sI2101
F0.02
sI4822
F0.83
sI3414
F0.02
sI3227
F0.02
ssVF1RUC1_PIG
p184
(dp185
I4816
F0.59
sI1858
F0.11
sI5285
F0.12
sI486
F0.11
sI5039
F0.12
sI5168
F0.12
sI5617
F0.87
sI1488
F0.11
sI5335
F0.15
sI1631
F0.11
ssVF1SU70_PIG
p186
(dp187
I7088
F0.02
sI1208
F0.02
sI527
F0.05
sI1999
F0.93
ssVF1S134_PIG
p188
(dp189
I1857
F0.78
sI6222
F0.68
sI1999
F0.25
ssVQ29571_PIG
p190
(dp191
I70
F0.12
sI6927
F0.28
sI4976
F0.12
sI915
F0.92
sI2197
F0.12
sI215
F0.03
sI2170
F0.12
sI476
F0.03
ssVF1RRD5_PIG
p192
(dp193
I5666
F0.76
sI1222
F0.76
sI7016
F0.76
sI522
F0.76
sI2114
F0.76
sI495
F0.76
sI4816
F0.76
sI18
F0.76
sI6998
F0.76
sI2008
F0.76
ssVB7SFP6_PIG
p194
(dp195
I321
F0.01
sI136
F0.79
sI138
F0.31
sI140
F0.01
sI1999
F0.04
sI500
F0.01
sI251
F0.01
ssVB3GBX6_PIG
p196
(dp197
I2114
F0.01
sI136
F0.74
sI139
F0.01
sI9423
F0.01
sI5656
F0.01
sI6927
F0.02
sI5647
F0.01
ssa(dp198
g2
I9823
sg4
I9823
sg6
I9823
sg8
I9823
sg10
I9823
sg12
I9823
sg14
I9823
sg16
I9823
sg18
I9823
sg20
I9823
sg22
I9823
sg24
I9823
sg26
I9823
sg28
I9823
sg30
I9823
sg32
I9823
sg34
I9823
sg36
I9823
sg38
I9823
sg40
I9823
sg42
I9823
sg44
I9823
sg46
I9823
sg48
I9823
sg50
I9823
sg52
I9823
sg54
I9823
sg56
I9823
sg58
I9823
sg60
I9823
sg62
I9823
sg64
I9823
sg66
I9823
sg68
I9823
sg70
I9823
sg72
I9823
sg74
I9823
sg76
I9823
sg78
I9823
sg80
I9823
sg82
I9823
sg84
I9823
sg86
I9823
sg88
I9823
sg90
I9823
sg92
I9823
sg94
I9823
sg96
I9823
sg98
I9823
sg100
I9823
sg102
I9823
sg104
I9823
sg106
I9823
sg108
I9823
sg110
I9823
sg112
I9823
sg114
I9823
sg116
I9823
sg118
I9823
sg120
I9823
sg122
I9823
sg124
I9823
sg126
I9823
sg128
I9823
sg130
I9823
sg132
I9823
sg134
I9823
sg136
I9823
sg138
I9823
sg140
I9823
sg142
I9823
sg144
I9823
sg146
I9823
sg148
I9823
sg150
I9823
sg152
I9823
sg154
I9823
sg156
I9823
sg158
I9823
sg160
I9823
sg162
I9823
sg164
I9823
sg166
I9823
sg168
I9823
sg170
I9823
sg172
I9823
sg174
I9823
sg176
I9823
sg178
I9823
sg180
I9823
sg182
I9823
sg184
I9823
sg186
I9823
sg188
I9823
sg190
I9823
sg192
I9823
sg194
I9823
sg196
I9823
sa(dp199
g2
VF1SLA4
p200
sg4
VF1SGX5
p201
sg6
VF1SH89
p202
sg8
VF1SQZ5
p203
sg10
VF1SPH5
p204
sg12
VF1RNK3
p205
sg14
VF1RXV0
p206
sg16
VF1SB89
p207
sg18
VF1SQZ6
p208
sg20
VF1SUN1
p209
sg22
VF1RP45
p210
sg24
VF1S6X0
p211
sg26
VF1S2E5
p212
sg28
VF1SKA4
p213
sg30
VF1SR61
p214
sg32
VF1SKR4
p215
sg34
VF1RFS4
p216
sg36
VF1SEV8
p217
sg38
VB8Y650
p218
sg40
VP49171
p219
sg42
VF1RFY3
p220
sg44
VF1SHD6
p221
sg46
VF1SSH0
p222
sg48
VF1RIM1
p223
sg50
VF1RQS3
p224
sg52
VF1RN62
p225
sg54
VF1RY71
p226
sg56
VQ2QEH5
p227
sg58
VF1S4Q0
p228
sg60
VF1RU07
p229
sg62
VB7SFP8
p230
sg64
VF1RXS5
p231
sg66
VQ6TA49
p232
sg68
VF1RTX5
p233
sg70
VF1S3D3
p234
sg72
VF1SU64
p235
sg74
VQ29271
p236
sg76
VF1RF33
p237
sg78
VF1RRN3
p238
sg80
VF1SQQ2
p239
sg82
VF1S6S8
p240
sg84
VF1RL96
p241
sg86
VF2Z5M3
p242
sg88
VF1SKR1
p243
sg90
VA5GFT5
p244
sg92
VQ8HYQ7
p245
sg94
VF1RUE4
p246
sg96
VB7SFP5
p247
sg98
VQ4VYA0
p248
sg100
VF1S5Z8
p249
sg102
VF1RUR7
p250
sg104
VF1SCI1
p251
sg106
VF1S108
p252
sg108
VF1S8X5
p253
sg110
VF1SKR8
p254
sg112
VP29412
p255
sg114
VF2Z546
p256
sg116
VD0G0C6
p257
sg118
VF1RUR6
p258
sg120
VF1SC02
p259
sg122
VF1RW46
p260
sg124
VF1RN43
p261
sg126
VF1RFB7
p262
sg128
VF1SAD7
p263
sg130
VF1SK31
p264
sg132
VF1SB33
p265
sg134
VF1RRE1
p266
sg136
VF1RMG9
p267
sg138
VB7SFP7
p268
sg140
VF1SKR2
p269
sg142
VF1S6W9
p270
sg144
VF1SKA3
p271
sg146
VF1S349
p272
sg148
VF1RN60
p273
sg150
VF1S0D6
p274
sg152
VF1SNB6
p275
sg154
VF1RW43
p276
sg156
VF1S7V7
p277
sg158
VA5GFR6
p278
sg160
VF1SE90
p279
sg162
VF1RTV5
p280
sg164
VF8SIP5
p281
sg166
VF1SB44
p282
sg168
VF1SGB6
p283
sg170
VF1RYZ3
p284
sg172
VF1RRD9
p285
sg174
VF1RUA0
p286
sg176
VH6WA55
p287
sg178
VQ95L19
p288
sg180
VQ2VI02
p289
sg182
VC3UP60
p290
sg184
VF1RUC1
p291
sg186
VF1SU70
p292
sg188
VF1S134
p293
sg190
VQ29571
p294
sg192
VF1RRD5
p295
sg194
VB7SFP6
p296
sg196
VB3GBX6
p297
sa.