(lp0
(dp1
VA4IIQ0_XENTR
p2
(dp3
I3200
F0.04
sI3297
F0.04
sI3165
F0.04
sI3094
F0.09
sI3101
F0.81
sI3295
F0.48
ssVF1Q4Y9_DANRE
p4
(dp5
I3200
F0.18
sI3297
F0.18
sI3165
F0.18
sI3094
F0.22
sI3101
F0.48
sI3295
F0.77
ssVQ93550_CAEEL
p6
(dp7
I3200
F0.18
sI3297
F0.82
sI3165
F0.18
sI3094
F0.18
sI3101
F0.22
sI3295
F0.18
ssVE1FKB9_LOALO
p8
(dp9
I3200
F0.18
sI3297
F0.82
sI3165
F0.18
sI3094
F0.18
sI3101
F0.21
sI3295
F0.18
ssVH9J2D0_BOMMO
p10
(dp11
I3200
F0.1
sI3297
F0.82
sI3165
F0.1
sI3094
F0.1
sI3101
F0.21
sI3295
F0.1
ssVG0MHZ3_CAEBE
p12
(dp13
I3200
F0.18
sI3297
F0.82
sI3165
F0.18
sI3094
F0.19
sI3101
F0.22
sI3295
F0.18
ssVC3Y4T6_BRAFL
p14
(dp15
I3200
F0.1
sI3297
F0.81
sI3165
F0.1
sI3094
F0.1
sI3101
F0.19
sI3295
F0.1
ssVQ5FX75_CANFA
p16
(dp17
I3200
F0.01
sI3297
F0.01
sI3165
F0.01
sI3094
F0.1
sI3101
F0.83
sI3295
F0.01
ssVG5BQA6_HETGA
p18
(dp19
I3200
F0.01
sI3297
F0.01
sI3165
F0.01
sI3094
F0.16
sI3101
F0.82
sI3295
F0.01
ssVG1SCG0_RABIT
p20
(dp21
I3200
F0.01
sI3297
F0.01
sI3165
F0.01
sI3094
F0.11
sI3101
F0.83
sI3295
F0.01
ssVE1C5S3_CHICK
p22
(dp23
I3200
F0.03
sI3297
F0.03
sI3165
F0.03
sI3094
F0.1
sI3101
F0.8
sI3295
F0.44
ssVE5SJD8_TRISP
p24
(dp25
I3200
F0.15
sI3297
F0.81
sI3165
F0.15
sI3094
F0.16
sI3101
F0.19
sI3295
F0.15
ssVA4IG10_DANRE
p26
(dp27
I3200
F0.31
sI3297
F0.31
sI3165
F0.31
sI3094
F0.34
sI3101
F0.53
sI3295
F0.77
ssVA8PR64_BRUMA
p28
(dp29
I3200
F0.18
sI3297
F0.82
sI3165
F0.18
sI3094
F0.19
sI3101
F0.22
sI3295
F0.18
ssVE5SJE0_TRISP
p30
(dp31
I3200
F0.18
sI3297
F0.81
sI3165
F0.18
sI3094
F0.19
sI3101
F0.22
sI3295
F0.19
ssVE3MMF1_CAERE
p32
(dp33
I3200
F0.18
sI3297
F0.82
sI3165
F0.18
sI3094
F0.19
sI3101
F0.22
sI3295
F0.18
ssa(dp34
g2
I8364
sg4
I7955
sg6
I6239
sg8
I7209
sg10
I7091
sg14
I7739
sg12
I135651
sg28
I6279
sg16
I9615
sg18
I10181
sg20
I9986
sg22
I9031
sg24
I6334
sg26
I7955
sg30
I6334
sg32
I31234
sa(dp35
g2
VA4IIQ0
p36
sg4
VF1Q4Y9
p37
sg6
VQ93550
p38
sg8
VE1FKB9
p39
sg10
VH9J2D0
p40
sg14
VC3Y4T6
p41
sg12
VG0MHZ3
p42
sg28
VA8PR64
p43
sg16
VQ5FX75
p44
sg18
VG5BQA6
p45
sg20
VG1SCG0
p46
sg22
VE1C5S3
p47
sg24
VE5SJD8
p48
sg26
VA4IG10
p49
sg30
VE5SJE0
p50
sg32
VE3MMF1
p51
sa(dp52
Vseq1
p53
(lp54
(lp55
VE3MMF1_CAERE
p56
aF1258.82
aF0.0
aF95.0
aa(lp57
VG0MHZ3_CAEBE
p58
aF1237.25
aF0.0
aF93.0
aa(lp59
VQ93550_CAEEL
p60
aF1230.7
aF0.0
aF92.0
aa(lp61
VE1FKB9_LOALO
p62
aF561.607
aF0.0
aF45.0
aa(lp63
VA8PR64_BRUMA
p64
aF502.671
aF2.32162e-166
aF43.0
aa(lp65
VE5SJE0_TRISP
p66
aF394.43
aF6.05871e-125
aF40.0
aa(lp67
VE5SJD8_TRISP
p68
aF366.311
aF6.41979e-114
aF47.0
aa(lp69
VJ9ERJ5_WUCBA
p70
aF278.87
aF2.59009e-84
aF46.0
aa(lp71
VC3Y4T6_BRAFL
p72
aF274.248
aF3.23713e-79
aF29.0
aa(lp73
VA4IIQ0_XENTR
p74
aF267.7
aF4.49482e-76
aF28.0
aa(lp75
VE1C5S3_CHICK
p76
aF260.766
aF1.97307e-73
aF28.0
aa(lp77
VA4IG10_DANRE
p78
aF259.996
aF3.69303e-73
aF29.0
aa(lp79
VF1Q4Y9_DANRE
p80
aF259.61
aF7.14322e-73
aF29.0
aa(lp81
VG1SCG0_RABIT
p82
aF253.447
aF6.65913e-71
aF29.0
aa(lp83
VQ5FX75_CANFA
p84
aF251.906
aF2.1909e-70
aF29.0
aa(lp85
VH9J2D0_BOMMO
p86
aF256.144
aF5.04927e-70
aF27.0
aa(lp87
VG5BQA6_HETGA
p88
aF245.743
aF2.3451e-68
aF29.0
aasaI1
a.