(dp0
VF1RN62_PIG
p1
(dp2
I3297
F0.78
ssVA8WRK7_CAEBR
p3
(dp4
I3297
F0.78
sI3101
F0.21
ssVH3J4I4_STRPU
p5
(dp6
I3200
F0.22
sI3297
F0.77
sI3101
F0.35
sI3094
F0.23
sI3165
F0.22
sI3295
F0.22
ssVQ8K4K9_RAT
p7
(dp8
I3297
F0.75
ssVH3IQD9_STRPU
p9
(dp10
I3297
F0.77
sI3101
F0.32
ssVG1TI46_RABIT
p11
(dp12
I3297
F0.78
sI3101
F0.24
ssVSO4A1_MOUSE
p13
(dp14
I3297
F0.76
sI3101
F0.5
ssVG3UKL3_LOXAF
p15
(dp16
I3297
F0.78
sI3101
F0.23
ssVB7P3S5_IXOSC
p17
(dp18
I3200
F0.51
sI3297
F0.89
sI3101
F0.65
sI3094
F0.78
sI3165
F0.51
sI3295
F0.54
ssVG2HJC6_PANTR
p19
(dp20
I3101
F0.78
ssVF1SLA4_PIG
p21
(dp22
I3101
F0.78
ssVC9JHU9_HUMAN
p23
(dp24
I3094
F0.78
ssVH2Q5K4_PANTR
p25
(dp26
I3094
F0.78
sI3295
F0.69
ssVG3QGZ3_GORGO
p27
(dp28
I3297
F0.78
ssVB4KXF0_DROMO
p29
(dp30
I3297
F0.78
sI3101
F0.21
ssVH3INQ6_STRPU
p31
(dp32
I3200
F0.28
sI3297
F0.9
sI3101
F0.5
sI3094
F0.29
sI3165
F0.28
sI3295
F0.28
ssVD3YXA8_MOUSE
p33
(dp34
I3297
F0.78
ssVH0YGD2_HUMAN
p35
(dp36
I3094
F0.77
sI3295
F0.62
ssVE1FV67_LOALO
p37
(dp38
I3200
F0.22
sI3297
F0.77
sI3101
F0.4
sI3094
F0.22
sI3165
F0.22
sI3295
F0.22
ssVG7PC00_MACFA
p39
(dp40
I3297
F0.77
sI3101
F0.28
ssVG5BJ45_HETGA
p41
(dp42
I3094
F0.75
sI3295
F0.74
ssVH2LI10_ORYLA
p43
(dp44
I3094
F0.74
sI3295
F0.69
ssVG1KDM6_ANOCA
p45
(dp46
I3297
F0.78
sI3101
F0.44
ssVB4KJ36_DROMO
p47
(dp48
I3200
F0.28
sI3297
F0.77
sI3101
F0.3
sI3094
F0.28
sI3165
F0.28
sI3295
F0.28
ssVE3WL16_ANODA
p49
(dp50
I3297
F0.78
sI3101
F0.36
ssVC3Y4F8_BRAFL
p51
(dp52
I3200
F0.42
sI3297
F0.9
sI3101
F0.57
sI3094
F0.43
sI3165
F0.42
sI3295
F0.43
ssVSO1A6_RAT
p53
(dp54
I3094
F0.78
sI3295
F0.21
ssVH0VF80_CAVPO
p55
(dp56
I3094
F0.78
ssVH3IYT3_STRPU
p57
(dp58
I3200
F0.38
sI3297
F0.91
sI3101
F0.63
sI3094
F0.4
sI3165
F0.38
sI3295
F0.39
ssVH2XWZ2_CIOIN
p59
(dp60
I3297
F0.77
sI3101
F0.43
ssVB7Q7F9_IXOSC
p61
(dp62
I3200
F0.29
sI3297
F0.77
sI3101
F0.32
sI3094
F0.3
sI3165
F0.29
sI3295
F0.29
ssVF7FQD4_CALJA
p63
(dp64
I3101
F0.27
sI3094
F0.33
sI3295
F0.77
ssVC3Y4U1_BRAFL
p65
(dp66
I3200
F0.29
sI3297
F0.9
sI3101
F0.35
sI3094
F0.29
sI3165
F0.29
sI3295
F0.29
ssVH2TWS4_TAKRU
p67
(dp68
I3297
F0.78
sI3101
F0.27
ssVH0WWR0_OTOGA
p69
(dp70
I3297
F0.78
ssVE4YN72_OIKDI
p71
(dp72
I3297
F0.78
sI3101
F0.24
ssVQ3B7Q4_DANRE
p73
(dp74
I3101
F0.4
sI3295
F0.72
ssVG3R1F3_GORGO
p75
(dp76
I3200
F0.29
sI3297
F0.9
sI3101
F0.45
sI3094
F0.29
sI3165
F0.29
sI3295
F0.29
ssVB7ZAD4_HUMAN
p77
(dp78
I3094
F0.78
ssVD3YY31_MOUSE
p79
(dp80
I3200
F0.35
sI3297
F0.75
sI3101
F0.44
sI3094
F0.35
sI3165
F0.35
sI3295
F0.35
ssVF6SNS4_XENTR
p81
(dp82
I3297
F0.78
sI3101
F0.44
ssVH2ME23_ORYLA
p83
(dp84
I3101
F0.44
sI3295
F0.77
ssVH2LWA1_ORYLA
p85
(dp86
I3094
F0.75
sI3295
F0.7
ssVH9GK46_ANOCA
p87
(dp88
I3101
F0.7
sI3295
F0.42
ssVH2WEQ3_CAEJA
p89
(dp90
I3200
F0.36
sI3297
F0.9
sI3101
F0.4
sI3094
F0.36
sI3165
F0.36
sI3295
F0.36
ssVH3B9U6_LATCH
p91
(dp92
I3297
F0.78
sI3101
F0.25
ssVE1BC23_BOVIN
p93
(dp94
I3094
F0.78
sI3295
F0.69
ssVF6X5N8_CIOIN
p95
(dp96
I3200
F0.28
sI3297
F0.28
sI3101
F0.76
sI3094
F0.29
sI3165
F0.28
sI3295
F0.28
ssVQ5JAR4_HUMAN
p97
(dp98
I3094
F0.9
sI3295
F0.75
ssVA7SWE4_NEMVE
p99
(dp100
I3200
F0.2
sI3297
F0.77
sI3101
F0.34
sI3094
F0.2
sI3165
F0.2
sI3295
F0.2
ssVF6X587_XENTR
p101
(dp102
I3297
F0.78
sI3101
F0.25
ssVD2HW96_AILME
p103
(dp104
I3297
F0.78
ssVH2T322_TAKRU
p105
(dp106
I3297
F0.78
ssVE0W488_PEDHC
p107
(dp108
I3297
F0.78
sI3101
F0.21
ssVI1FF21_AMPQE
p109
(dp110
I3297
F0.77
sI3101
F0.31
ssVH2TWS2_TAKRU
p111
(dp112
I3297
F0.78
sI3101
F0.27
ssVF4WZT5_ACREC
p113
(dp114
I3297
F0.78
sI3101
F0.21
ssVH2YEL7_CIOSA
p115
(dp116
I3297
F0.78
sI3101
F0.22
ssVSO1A4_MOUSE
p117
(dp118
I3094
F0.78
ssVF1NEX3_CHICK
p119
(dp120
I3297
F0.78
sI3101
F0.44
ssVF6SFJ8_ORNAN
p121
(dp122
I3094
F0.75
sI3295
F0.73
ssVH3DF25_TETNG
p123
(dp124
I3094
F0.75
sI3295
F0.7
ssVQ7PI57_ANOGA
p125
(dp126
I3200
F0.27
sI3297
F0.77
sI3101
F0.3
sI3094
F0.28
sI3165
F0.27
sI3295
F0.27
ssVA8WJB0_CAEBR
p127
(dp128
I3297
F0.78
sI3101
F0.32
ssVF7C2I8_MACMU
p129
(dp130
I3297
F0.78
sI3101
F0.46
ssVG1QU38_NOMLE
p131
(dp132
I3101
F0.78
ssVC3YC54_BRAFL
p133
(dp134
I3200
F0.43
sI3297
F0.9
sI3101
F0.81
sI3094
F0.45
sI3165
F0.43
sI3295
F0.44
ssVH0ZDV3_TAEGU
p135
(dp136
I3297
F0.78
ssVF7I0Q4_CALJA
p137
(dp138
I3297
F0.78
ssVB0W4W5_CULQU
p139
(dp140
I3200
F0.24
sI3297
F0.9
sI3101
F0.56
sI3094
F0.25
sI3165
F0.24
sI3295
F0.25
ssVB3RLK6_TRIAD
p141
(dp142
I3297
F0.77
sI3101
F0.29
ssVA2ACT3_MOUSE
p143
(dp144
I3297
F0.76
sI3101
F0.5
ssVB4GHI4_DROPE
p145
(dp146
I3200
F0.31
sI3297
F0.77
sI3101
F0.33
sI3094
F0.31
sI3165
F0.31
sI3295
F0.31
ssVQ148W1_MOUSE
p147
(dp148
I3297
F0.78
sI3101
F0.24
ssVE2BWD4_HARSA
p149
(dp150
I3297
F0.78
sI3101
F0.35
ssVG3NKK4_GASAC
p151
(dp152
I3297
F0.78
sI3101
F0.38
ssVB3KUC7_HUMAN
p153
(dp154
I3297
F0.78
sI3101
F0.23
ssVH2YTS1_CIOSA
p155
(dp156
I3101
F0.78
ssVB4HYY3_DROSE
p157
(dp158
I3200
F0.29
sI3297
F0.76
sI3101
F0.36
sI3094
F0.3
sI3165
F0.29
sI3295
F0.29
ssVG8F3I8_MACFA
p159
(dp160
I3101
F0.24
sI3094
F0.35
sI3295
F0.78
ssVB4N049_DROWI
p161
(dp162
I3297
F0.78
sI3101
F0.35
ssVF1PII7_CANFA
p163
(dp164
I3297
F0.78
ssVG3WUN1_SARHA
p165
(dp166
I3200
F0.24
sI3297
F0.77
sI3101
F0.33
sI3094
F0.24
sI3165
F0.24
sI3295
F0.24
ssVG3TF40_LOXAF
p167
(dp168
I3297
F0.78
sI3101
F0.24
ssVA7T5W1_NEMVE
p169
(dp170
I3200
F0.25
sI3297
F0.9
sI3101
F0.46
sI3094
F0.26
sI3165
F0.25
sI3295
F0.25
ss.