(lp0
(dp1
VF1RN62_PIG
p2
(dp3
I3200
F0.06
sI3297
F0.82
sI3165
F0.06
sI3094
F0.07
sI3101
F0.16
sI3295
F0.07
ssVA8WRK7_CAEBR
p4
(dp5
I3200
F0.18
sI3297
F0.82
sI3165
F0.18
sI3094
F0.19
sI3101
F0.22
sI3295
F0.18
ssVH3J4I4_STRPU
p6
(dp7
I3200
F0.23
sI3297
F0.81
sI3165
F0.23
sI3094
F0.24
sI3101
F0.37
sI3295
F0.23
ssVQ8K4K9_RAT
p8
(dp9
I3200
F0.03
sI3297
F0.79
sI3165
F0.03
sI3094
F0.07
sI3101
F0.1
sI3295
F0.07
ssVH3IQD9_STRPU
p10
(dp11
I3200
F0.19
sI3297
F0.81
sI3165
F0.19
sI3094
F0.19
sI3101
F0.34
sI3295
F0.19
ssVG1TI46_RABIT
p12
(dp13
I3200
F0.11
sI3297
F0.82
sI3165
F0.11
sI3094
F0.12
sI3101
F0.25
sI3295
F0.11
ssVSO4A1_MOUSE
p14
(dp15
I3200
F0.15
sI3297
F0.8
sI3165
F0.15
sI3094
F0.16
sI3101
F0.52
sI3295
F0.15
ssVG3UKL3_LOXAF
p16
(dp17
I3200
F0.11
sI3297
F0.82
sI3165
F0.11
sI3094
F0.11
sI3101
F0.25
sI3295
F0.11
ssVB7P3S5_IXOSC
p18
(dp19
I3200
F0.53
sI3297
F0.9
sI3165
F0.53
sI3094
F0.81
sI3101
F0.68
sI3295
F0.56
ssVG2HJC6_PANTR
p20
(dp21
I10232
F0.01
sI10427
F0.01
sI3101
F0.83
sI3094
F0.09
ssVF1SLA4_PIG
p22
(dp23
I3200
F0.01
sI3297
F0.01
sI3165
F0.01
sI3094
F0.11
sI3101
F0.82
sI3295
F0.01
ssVC9JHU9_HUMAN
p24
(dp25
I3200
F0.01
sI3297
F0.04
sI3165
F0.01
sI3094
F0.82
sI3101
F0.02
sI3295
F0.12
ssVH2Q5K4_PANTR
p26
(dp27
I3200
F0.01
sI3297
F0.01
sI3165
F0.01
sI3094
F0.82
sI3101
F0.01
sI3295
F0.73
ssVG3QGZ3_GORGO
p28
(dp29
I3200
F0.12
sI3297
F0.83
sI3165
F0.12
sI3094
F0.12
sI3101
F0.16
sI3295
F0.12
ssVB4KXF0_DROMO
p30
(dp31
I3200
F0.19
sI3297
F0.82
sI3165
F0.19
sI3094
F0.19
sI3101
F0.22
sI3295
F0.19
ssVH3INQ6_STRPU
p32
(dp33
I3200
F0.29
sI3297
F0.92
sI3165
F0.29
sI3094
F0.3
sI3101
F0.52
sI3295
F0.3
ssVD3YXA8_MOUSE
p34
(dp35
I3200
F0.12
sI3297
F0.83
sI3165
F0.12
sI3094
F0.12
sI3101
F0.15
sI3295
F0.12
ssVH0YGD2_HUMAN
p36
(dp37
I3200
F0.03
sI3297
F0.03
sI3165
F0.03
sI3094
F0.81
sI3101
F0.03
sI3295
F0.65
ssVE1FV67_LOALO
p38
(dp39
I3200
F0.23
sI3297
F0.81
sI3165
F0.23
sI3094
F0.23
sI3101
F0.42
sI3295
F0.23
ssVG7PC00_MACFA
p40
(dp41
I3200
F0.18
sI3297
F0.81
sI3165
F0.18
sI3094
F0.18
sI3101
F0.3
sI3295
F0.18
ssVG5BJ45_HETGA
p42
(dp43
I3200
F0.04
sI3297
F0.03
sI3165
F0.04
sI3094
F0.78
sI3101
F0.03
sI3295
F0.78
ssVH2LI10_ORYLA
p44
(dp45
I3200
F0.06
sI3297
F0.06
sI3165
F0.06
sI3094
F0.78
sI3101
F0.06
sI3295
F0.73
ssVG1KDM6_ANOCA
p46
(dp47
I3200
F0.02
sI3297
F0.82
sI3165
F0.02
sI3094
F0.03
sI3101
F0.46
sI3295
F0.02
ssVB4KJ36_DROMO
p48
(dp49
I3200
F0.29
sI3297
F0.81
sI3165
F0.29
sI3094
F0.29
sI3101
F0.31
sI3295
F0.29
ssVA7SWE4_NEMVE
p50
(dp51
I3200
F0.21
sI3297
F0.81
sI3165
F0.21
sI3094
F0.22
sI3101
F0.35
sI3295
F0.21
ssVE3WL16_ANODA
p52
(dp53
I3200
F0.14
sI3297
F0.82
sI3165
F0.14
sI3094
F0.15
sI3101
F0.37
sI3295
F0.14
ssVC3Y4F8_BRAFL
p54
(dp55
I3200
F0.44
sI3297
F0.91
sI3165
F0.44
sI3094
F0.45
sI3101
F0.59
sI3295
F0.45
ssVSO1A6_RAT
p56
(dp57
I3200
F0.02
sI3297
F0.08
sI3165
F0.02
sI3094
F0.82
sI3101
F0.03
sI3295
F0.23
ssVH0VF80_CAVPO
p58
(dp59
I3200
F0.01
sI3297
F0.05
sI3165
F0.01
sI3094
F0.82
sI3101
F0.02
sI3295
F0.16
ssVH3IYT3_STRPU
p60
(dp61
I3200
F0.4
sI3297
F0.92
sI3165
F0.4
sI3094
F0.41
sI3101
F0.65
sI3295
F0.41
ssVH2XWZ2_CIOIN
p62
(dp63
I3200
F0.13
sI3297
F0.81
sI3165
F0.13
sI3094
F0.14
sI3101
F0.45
sI3295
F0.13
ssVB7Q7F9_IXOSC
p64
(dp65
I3200
F0.31
sI3297
F0.81
sI3165
F0.31
sI3094
F0.31
sI3101
F0.33
sI3295
F0.31
ssVF7FQD4_CALJA
p66
(dp67
I3200
F0.14
sI3297
F0.14
sI3165
F0.14
sI3094
F0.35
sI3101
F0.29
sI3295
F0.81
ssVC3Y4U1_BRAFL
p68
(dp69
I3200
F0.3
sI3297
F0.92
sI3165
F0.3
sI3094
F0.3
sI3101
F0.37
sI3295
F0.3
ssVH2TWS4_TAKRU
p70
(dp71
I3200
F0.15
sI3297
F0.82
sI3165
F0.15
sI3094
F0.16
sI3101
F0.28
sI3295
F0.16
ssVH0WWR0_OTOGA
p72
(dp73
I3200
F0.11
sI3297
F0.83
sI3165
F0.11
sI3094
F0.12
sI3101
F0.15
sI3295
F0.12
ssVE4YN72_OIKDI
p74
(dp75
I3200
F0.12
sI3297
F0.82
sI3165
F0.12
sI3094
F0.12
sI3101
F0.25
sI3295
F0.12
ssVG1QU38_NOMLE
p76
(dp77
I10232
F0.01
sI10427
F0.01
sI3101
F0.83
sI3094
F0.1
ssVB4HYY3_DROSE
p78
(dp79
I3200
F0.31
sI3297
F0.8
sI3165
F0.31
sI3094
F0.31
sI3101
F0.38
sI3295
F0.31
ssVB7ZAD4_HUMAN
p80
(dp81
I3297
F0.03
sI10427
F0.01
sI3101
F0.01
sI3094
F0.83
sI3295
F0.08
ssVD3YY31_MOUSE
p82
(dp83
I3200
F0.37
sI3297
F0.79
sI3165
F0.37
sI3094
F0.37
sI3101
F0.47
sI3295
F0.37
ssVF6SNS4_XENTR
p84
(dp85
I3200
F0.07
sI3297
F0.82
sI3165
F0.07
sI3094
F0.08
sI3101
F0.46
sI3295
F0.07
ssVH2ME23_ORYLA
p86
(dp87
I3200
F0.09
sI3297
F0.09
sI3165
F0.09
sI3094
F0.14
sI3101
F0.46
sI3295
F0.81
ssVH2LWA1_ORYLA
p88
(dp89
I3200
F0.08
sI3297
F0.08
sI3165
F0.08
sI3094
F0.79
sI3101
F0.08
sI3295
F0.74
ssVH9GK46_ANOCA
p90
(dp91
I3200
F0.06
sI3297
F0.06
sI3165
F0.06
sI3094
F0.1
sI3101
F0.74
sI3295
F0.44
ssVH2WEQ3_CAEJA
p92
(dp93
I3200
F0.38
sI3297
F0.92
sI3165
F0.38
sI3094
F0.38
sI3101
F0.42
sI3295
F0.38
ssVH3B9U6_LATCH
p94
(dp95
I3200
F0.13
sI3297
F0.82
sI3165
F0.13
sI3094
F0.14
sI3101
F0.26
sI3295
F0.14
ssVE1BC23_BOVIN
p96
(dp97
I3200
F0.02
sI3297
F0.02
sI3165
F0.02
sI3094
F0.82
sI3101
F0.02
sI3295
F0.72
ssVF6X5N8_CIOIN
p98
(dp99
I3200
F0.29
sI3297
F0.29
sI3165
F0.29
sI3094
F0.31
sI3101
F0.8
sI3295
F0.29
ssVQ5JAR4_HUMAN
p100
(dp101
I3200
F0.04
sI3297
F0.04
sI3165
F0.04
sI3094
F0.92
sI3101
F0.04
sI3295
F0.78
ssVG3R1F3_GORGO
p102
(dp103
I3200
F0.3
sI3297
F0.92
sI3165
F0.3
sI3094
F0.31
sI3101
F0.47
sI3295
F0.3
ssVF6X587_XENTR
p104
(dp105
I3200
F0.13
sI3297
F0.82
sI3165
F0.13
sI3094
F0.14
sI3101
F0.26
sI3295
F0.14
ssVD2HW96_AILME
p106
(dp107
I3200
F0.09
sI3297
F0.82
sI3165
F0.09
sI3094
F0.12
sI3101
F0.19
sI3295
F0.12
ssVE0W488_PEDHC
p108
(dp109
I3200
F0.11
sI3297
F0.82
sI3165
F0.11
sI3094
F0.12
sI3101
F0.23
sI3295
F0.11
ssVI1FF21_AMPQE
p110
(dp111
I3200
F0.19
sI3297
F0.81
sI3165
F0.19
sI3094
F0.19
sI3101
F0.32
sI3295
F0.19
ssVH2TWS2_TAKRU
p112
(dp113
I3200
F0.15
sI3297
F0.82
sI3165
F0.15
sI3094
F0.16
sI3101
F0.28
sI3295
F0.16
ssVF4WZT5_ACREC
p114
(dp115
I3200
F0.11
sI3297
F0.82
sI3165
F0.11
sI3094
F0.11
sI3101
F0.22
sI3295
F0.11
ssVH2YEL7_CIOSA
p116
(dp117
I3200
F0.09
sI3297
F0.82
sI3165
F0.09
sI3094
F0.11
sI3101
F0.23
sI3295
F0.1
ssVF7I0Q4_CALJA
p118
(dp119
I3200
F0.05
sI3297
F0.82
sI3165
F0.05
sI3094
F0.06
sI3101
F0.16
sI3295
F0.06
ssVF1NEX3_CHICK
p120
(dp121
I3200
F0.02
sI3297
F0.82
sI3165
F0.02
sI3094
F0.03
sI3101
F0.46
sI3295
F0.03
ssVF6SFJ8_ORNAN
p122
(dp123
I3200
F0.04
sI3297
F0.04
sI3165
F0.04
sI3094
F0.79
sI3101
F0.04
sI3295
F0.77
ssVH3DF25_TETNG
p124
(dp125
I3200
F0.06
sI3297
F0.06
sI3165
F0.06
sI3094
F0.79
sI3101
F0.07
sI3295
F0.74
ssVB0W4W5_CULQU
p126
(dp127
I3200
F0.25
sI3297
F0.92
sI3165
F0.25
sI3094
F0.27
sI3101
F0.58
sI3295
F0.26
ssVA8WJB0_CAEBR
p128
(dp129
I3200
F0.18
sI3297
F0.82
sI3165
F0.18
sI3094
F0.19
sI3101
F0.34
sI3295
F0.19
ssVF7C2I8_MACMU
p130
(dp131
I3200
F0.03
sI3297
F0.82
sI3165
F0.03
sI3094
F0.05
sI3101
F0.48
sI3295
F0.04
ssVQ3B7Q4_DANRE
p132
(dp133
I3200
F0.04
sI3297
F0.04
sI3165
F0.04
sI3094
F0.1
sI3101
F0.42
sI3295
F0.76
ssVC3YC54_BRAFL
p134
(dp135
I3200
F0.45
sI3297
F0.9
sI3165
F0.45
sI3094
F0.47
sI3101
F0.82
sI3295
F0.46
ssVH0ZDV3_TAEGU
p136
(dp137
I3200
F0.11
sI3297
F0.82
sI3165
F0.11
sI3094
F0.11
sI3101
F0.15
sI3295
F0.11
ssVSO1A4_MOUSE
p138
(dp139
I3297
F0.03
sI3101
F0.01
sI3094
F0.82
sI3295
F0.09
ssVQ7PI57_ANOGA
p140
(dp141
I3200
F0.29
sI3297
F0.81
sI3165
F0.29
sI3094
F0.29
sI3101
F0.31
sI3295
F0.29
ssVB3RLK6_TRIAD
p142
(dp143
I3200
F0.14
sI3297
F0.82
sI3165
F0.14
sI3094
F0.15
sI3101
F0.31
sI3295
F0.14
ssVA2ACT3_MOUSE
p144
(dp145
I3200
F0.15
sI3297
F0.8
sI3165
F0.15
sI3094
F0.16
sI3101
F0.52
sI3295
F0.15
ssVB4GHI4_DROPE
p146
(dp147
I3200
F0.33
sI3297
F0.81
sI3165
F0.33
sI3094
F0.33
sI3101
F0.35
sI3295
F0.33
ssVQ148W1_MOUSE
p148
(dp149
I3200
F0.12
sI3297
F0.83
sI3165
F0.12
sI3094
F0.12
sI3101
F0.25
sI3295
F0.12
ssVE2BWD4_HARSA
p150
(dp151
I3200
F0.12
sI3297
F0.82
sI3165
F0.12
sI3094
F0.13
sI3101
F0.37
sI3295
F0.13
ssVG3NKK4_GASAC
p152
(dp153
I3200
F0.03
sI3297
F0.82
sI3165
F0.03
sI3094
F0.04
sI3101
F0.4
sI3295
F0.04
ssVB3KUC7_HUMAN
p154
(dp155
I3200
F0.11
sI3297
F0.83
sI3165
F0.11
sI3094
F0.11
sI3101
F0.25
sI3295
F0.11
ssVH2YTS1_CIOSA
p156
(dp157
I3200
F0.14
sI3297
F0.14
sI3165
F0.14
sI3094
F0.17
sI3101
F0.82
sI3295
F0.14
ssVH2T322_TAKRU
p158
(dp159
I3200
F0.13
sI3297
F0.82
sI3165
F0.13
sI3094
F0.14
sI3101
F0.17
sI3295
F0.13
ssVG8F3I8_MACFA
p160
(dp161
I3200
F0.01
sI3297
F0.01
sI3165
F0.01
sI3094
F0.36
sI3101
F0.25
sI3295
F0.82
ssVB4N049_DROWI
p162
(dp163
I3200
F0.13
sI3297
F0.82
sI3165
F0.13
sI3094
F0.14
sI3101
F0.37
sI3295
F0.14
ssVF1PII7_CANFA
p164
(dp165
I3200
F0.12
sI3297
F0.82
sI3165
F0.12
sI3094
F0.13
sI3101
F0.16
sI3295
F0.12
ssVG3WUN1_SARHA
p166
(dp167
I3200
F0.25
sI3297
F0.81
sI3165
F0.25
sI3094
F0.25
sI3101
F0.35
sI3295
F0.25
ssVG3TF40_LOXAF
p168
(dp169
I3200
F0.11
sI3297
F0.82
sI3165
F0.11
sI3094
F0.12
sI3101
F0.25
sI3295
F0.11
ssVA7T5W1_NEMVE
p170
(dp171
I3200
F0.26
sI3297
F0.92
sI3165
F0.26
sI3094
F0.27
sI3101
F0.48
sI3295
F0.26
ssa(dp172
VF1RN62_PIG
p173
I9823
sVA8WRK7_CAEBR
p174
I6238
sVH3J4I4_STRPU
p175
I7668
sVQ8K4K9_RAT
p176
I10116
sVH3IQD9_STRPU
p177
I7668
sVH2XWZ2_CIOIN
p178
I7719
sVSO4A1_MOUSE
p179
I10090
sVG3UKL3_LOXAF
p180
I9785
sVB7P3S5_IXOSC
p181
I6945
sVG3NKK4_GASAC
p182
I69293
sVF1SLA4_PIG
p183
I9823
sVF1NEX3_CHICK
p184
I9031
sVH2Q5K4_PANTR
p185
I9598
sVH0ZDV3_TAEGU
p186
I59729
sVB4KXF0_DROMO
p187
I7230
sVH3INQ6_STRPU
p188
I7668
sVH2T322_TAKRU
p189
I31033
sVH0YGD2_HUMAN
p190
I0
sVE1FV67_LOALO
p191
I0
sVG7PC00_MACFA
p192
I9541
sVG5BJ45_HETGA
p193
I10181
sVH2LI10_ORYLA
p194
I8090
sVG1KDM6_ANOCA
p195
I28377
sVB4KJ36_DROMO
p196
I7230
sVA7SWE4_NEMVE
p197
I45351
sVE3WL16_ANODA
p198
I43151
sVC3Y4F8_BRAFL
p199
I7739
sVD3YXA8_MOUSE
p200
I10090
sVSO1A6_RAT
p201
I10116
sVH0VF80_CAVPO
p202
I10141
sVH2TWS2_TAKRU
p203
I31033
sVH3IYT3_STRPU
p204
I7668
sVG1TI46_RABIT
p205
I9986
sVB7Q7F9_IXOSC
p206
I6945
sVF7FQD4_CALJA
p207
I9483
sVC3Y4U1_BRAFL
p208
I7739
sVH2TWS4_TAKRU
p209
I31033
sVH3B9U6_LATCH
p210
I7897
sVH0WWR0_OTOGA
p211
I30611
sVE4YN72_OIKDI
p212
I34765
sVG1QU38_NOMLE
p213
I61853
sVB7ZAD4_HUMAN
p214
I9606
sVD3YY31_MOUSE
p215
I10090
sVF6SNS4_XENTR
p216
I8364
sVH3DF25_TETNG
p217
I99883
sVH2LWA1_ORYLA
p218
I8090
sVH9GK46_ANOCA
p219
I28377
sVH2WEQ3_CAEJA
p220
I281687
sVF1PII7_CANFA
p221
I0
sVE1BC23_BOVIN
p222
I9913
sVF6X5N8_CIOIN
p223
I7719
sVQ5JAR4_HUMAN
p224
I9606
sVG3R1F3_GORGO
p225
I9595
sVF6X587_XENTR
p226
I8364
sVD2HW96_AILME
p227
I9646
sVE0W488_PEDHC
p228
I121224
sVI1FF21_AMPQE
p229
I400682
sVG2HJC6_PANTR
p230
I9598
sVG3QGZ3_GORGO
p231
I9595
sVF4WZT5_ACREC
p232
I103372
sVF7C2I8_MACMU
p233
I9544
sVSO1A4_MOUSE
p234
I10090
sVC9JHU9_HUMAN
p235
I9606
sVF6SFJ8_ORNAN
p236
I9258
sVH2ME23_ORYLA
p237
I8090
sVQ7PI57_ANOGA
p238
I7165
sVA8WJB0_CAEBR
p239
I6238
sVH2YTS1_CIOSA
p240
I51511
sVH2YEL7_CIOSA
p241
I51511
sVQ3B7Q4_DANRE
p242
I7955
sVC3YC54_BRAFL
p243
I7739
sVB4GHI4_DROPE
p244
I7234
sVF7I0Q4_CALJA
p245
I9483
sVB0W4W5_CULQU
p246
I7176
sVB3RLK6_TRIAD
p247
I10228
sVA2ACT3_MOUSE
p248
I0
sVQ148W1_MOUSE
p249
I10090
sVE2BWD4_HARSA
p250
I610380
sVB3KUC7_HUMAN
p251
I9606
sVB4HYY3_DROSE
p252
I7238
sVG8F3I8_MACFA
p253
I9541
sVB4N049_DROWI
p254
I7260
sVG3WUN1_SARHA
p255
I9305
sVG3TF40_LOXAF
p256
I9785
sVA7T5W1_NEMVE
p257
I45351
sa(dp258
g173
VF1RN62
p259
sg174
VA8WRK7
p260
sg175
VH3J4I4
p261
sg176
VQ8K4K9
p262
sg177
VH3IQD9
p263
sg178
VH2XWZ2
p264
sg179
VQ8K078
p265
sg180
VG3UKL3
p266
sg181
VB7P3S5
p267
sg182
VG3NKK4
p268
sg183
VF1SLA4
p269
sg184
VF1NEX3
p270
sg185
VH2Q5K4
p271
sg186
VH0ZDV3
p272
sg187
VB4KXF0
p273
sg188
VH3INQ6
p274
sg189
VH2T322
p275
sg190
V
p276
sg191
g276
sg192
VG7PC00
p277
sg193
VG5BJ45
p278
sg194
VH2LI10
p279
sg195
VG1KDM6
p280
sg196
VB4KJ36
p281
sg197
VA7SWE4
p282
sg198
VE3WL16
p283
sg199
VC3Y4F8
p284
sg200
VD3YXA8
p285
sg201
VQ9QYE2
p286
sg202
VH0VF80
p287
sg203
VH2TWS2
p288
sg204
VH3IYT3
p289
sg205
VG1TI46
p290
sg206
VB7Q7F9
p291
sg207
VF7FQD4
p292
sg208
VC3Y4U1
p293
sg209
VH2TWS4
p294
sg210
VH3B9U6
p295
sg211
VH0WWR0
p296
sg212
VE4YN72
p297
sg213
VG1QU38
p298
sg214
VB7ZAD4
p299
sg215
VD3YY31
p300
sg216
VF6SNS4
p301
sg217
VH3DF25
p302
sg218
VH2LWA1
p303
sg219
VH9GK46
p304
sg220
VH2WEQ3
p305
sg221
g276
sg222
VE1BC23
p306
sg223
VF6X5N8
p307
sg224
VQ5JAR4
p308
sg225
VG3R1F3
p309
sg226
VF6X587
p310
sg227
VD2HW96
p311
sg228
VE0W488
p312
sg229
VI1FF21
p313
sg230
VG2HJC6
p314
sg231
VG3QGZ3
p315
sg232
VF4WZT5
p316
sg233
VF7C2I8
p317
sg234
VQ9EP96
p318
sg235
VC9JHU9
p319
sg236
VF6SFJ8
p320
sg237
VH2ME23
p321
sg238
VQ7PI57
p322
sg239
VA8WJB0
p323
sg240
VH2YTS1
p324
sg241
VH2YEL7
p325
sg242
VQ3B7Q4
p326
sg243
VC3YC54
p327
sg244
VB4GHI4
p328
sg245
VF7I0Q4
p329
sg246
VB0W4W5
p330
sg247
VB3RLK6
p331
sg248
g276
sg249
VQ148W1
p332
sg250
VE2BWD4
p333
sg251
VB3KUC7
p334
sg252
VB4HYY3
p335
sg253
VG8F3I8
p336
sg254
VB4N049
p337
sg255
VG3WUN1
p338
sg256
VG3TF40
p339
sg257
VA7T5W1
p340
sa.