(lp0
(dp1
a(dp2
a(dp3
a(dp4
Vseq1
p5
(lp6
(lp7
VTID_DROME
p8
aF1076.23
aF0.0
aF100.0
aa(lp9
VTID_DROME
p10
aF1073.15
aF0.0
aF100.0
aa(lp11
VTID_DROME
p12
aF1063.52
aF0.0
aF99.0
aa(lp13
VTID_DROME
p14
aF1059.28
aF0.0
aF99.0
aa(lp15
VT2GGE7_DROME
p16
aF1052.74
aF0.0
aF98.0
aa(lp17
VTID_DROME
p18
aF932.939
aF0.0
aF100.0
aa(lp19
VD3DN23_DROME
p20
aF932.169
aF0.0
aF100.0
aa(lp21
VTID_DROME
p22
aF929.087
aF0.0
aF99.0
aa(lp23
VQ7KVH7_DROME
p24
aF860.136
aF0.0
aF99.0
aa(lp25
VD6W4V2_DROME
p26
aF855.129
aF0.0
aF99.0
aa(lp27
VB4QAY0_DROSI
p28
aF850.121
aF0.0
aF97.0
aa(lp29
VB4P9R9_DROYA
p30
aF845.114
aF0.0
aF96.0
aa(lp31
VB3NPR2_DROER
p32
aF837.025
aF0.0
aF95.0
aa(lp33
VB4I8S2_DROSE
p34
aF770.385
aF0.0
aF86.0
aa(lp35
VB3MFJ4_DROAN
p36
aF748.814
aF0.0
aF85.0
aa(lp37
VTID_DROVI
p38
aF717.998
aF0.0
aF72.0
aa(lp39
VB4GHT7_DROPE
p40
aF714.916
aF0.0
aF73.0
aa(lp41
VB5E1J0_DROPS
p42
aF712.22
aF0.0
aF73.0
aa(lp43
VB4J871_DROGR
p44
aF701.049
aF0.0
aF77.0
aa(lp45
VB4KQ15_DROMO
p46
aF699.508
aF0.0
aF75.0
aa(lp47
VB4NML0_DROWI
p48
aF696.041
aF0.0
aF78.0
aa(lp49
VB4MDV9_DROVI
p50
aF687.952
aF0.0
aF77.0
aa(lp51
VT1PAG9_MUSDO
p52
aF652.129
aF0.0
aF70.0
aa(lp53
VQ16R72_AEDAE
p54
aF615.92
aF0.0
aF73.0
aa(lp55
VW5JTS9_ANODA
p56
aF581.637
aF0.0
aF73.0
aa(lp57
VW5JHS9_ANODA
p58
aF583.563
aF0.0
aF72.0
aa(lp59
VA0A084VEZ2_9DIPT
p60
aF573.933
aF0.0
aF69.0
aa(lp61
VE9J573_SOLIN
p62
aF565.844
aF0.0
aF63.0
aa(lp63
VE2ADT8_CAMFO
p64
aF560.451
aF0.0
aF61.0
aa(lp65
VA0A026WNX8_CERBI
p66
aF557.755
aF0.0
aF59.0
aa(lp67
VE2BN18_HARSA
p68
aF555.058
aF0.0
aF65.0
aa(lp69
VF4WP97_ACREC
p70
aF553.518
aF0.0
aF65.0
aa(lp71
VA0A067QSP8_ZOONE
p72
aF550.436
aF0.0
aF67.0
aa(lp73
VA7UR98_ANOGA
p74
aF543.888
aF0.0
aF67.0
aa(lp75
VA0A022T6E8_9HYME
p76
aF543.117
aF0.0
aF61.0
aa(lp77
VE9H747_DAPPU
p78
aF539.65
aF0.0
aF60.0
aa(lp79
VG6DRS5_DANPL
p80
aF540.421
aF0.0
aF61.0
aa(lp81
VQ7QJL2_ANOGA
p82
aF538.88
aF0.0
aF68.0
aa(lp83
VE0VXY1_PEDHC
p84
aF528.094
aF0.0
aF64.0
aa(lp85
VN6UCG7_DENPD
p86
aF522.316
aF1.27892e-177
aF55.0
aa(lp87
VN6UFE3_DENPD
p88
aF516.924
aF3.42939e-176
aF59.0
aa(lp89
VJ3JWQ6_DENPD
p90
aF516.153
aF1.03994e-175
aF57.0
aa(lp91
VH6VTQ4_BOMMO
p92
aF518.079
aF1.23812e-175
aF65.0
aa(lp93
VD1ZZJ9_TRICA
p94
aF504.982
aF2.39523e-171
aF62.0
aa(lp95
VN6UCG2_DENPD
p96
aF491.115
aF3.19722e-166
aF57.0
aa(lp97
VJ9K2H1_ACYPI
p98
aF481.485
aF3.14186e-162
aF58.0
aa(lp99
VT1FMB7_HELRO
p100
aF476.093
aF4.62572e-160
aF57.0
aa(lp101
VB0WJM4_CULQU
p102
aF470.7
aF1.24891e-158
aF74.0
aa(lp103
VA0A085M412_9BILA
p104
aF472.626
aF1.27829e-156
aF56.0
aa(lp105
VA0A085NPN4_9BILA
p106
aF466.463
aF3.75066e-156
aF57.0
aa(lp107
VR7TPK9_CAPTE
p108
aF463.381
aF1.51215e-154
aF58.0
aa(lp109
VA0A077ZED0_TRITR
p110
aF455.292
aF7.81023e-152
aF57.0
aa(lp111
VA0A087SZ58_9ARAC
p112
aF439.113
aF1.06826e-145
aF55.0
aa(lp113
VA1A4J9_BOVIN
p114
aF427.172
aF3.03775e-141
aF53.0
aa(lp115
VW5NZC5_SHEEP
p116
aF427.557
aF5.06824e-141
aF52.0
aa(lp117
VM3WGU5_FELCA
p118
aF426.787
aF1.14058e-140
aF51.0
aa(lp119
VD2HQ81_AILME
p120
aF424.476
aF8.07035e-140
aF52.0
aasaI1
a.