(dp0
VF8VS27_HUMAN
p1
(dp2
I1999
F0.73
ssVRM09_HUMAN
p3
(dp4
I527
F0.74
ssVQ71RH4_HUMAN
p5
(dp6
I529
F0.85
sI1999
F0.82
ssVB1AK63_HUMAN
p7
(dp8
I1999
F0.63
ssVE9PQC9_HUMAN
p9
(dp10
I529
F0.86
sI1999
F0.82
ssVE7ETK0_HUMAN
p11
(dp12
I527
F0.71
ssVB3KS61_HUMAN
p13
(dp14
I646
F0.74
ssVYTDC2_HUMAN
p15
(dp16
I4816
F0.71
sI2114
F0.71
ssVA6NGJ0_HUMAN
p17
(dp18
I7464
F0.75
sI6928
F0.76
ssVEF1D_HUMAN
p19
(dp20
I529
F0.85
sI1515
F0.81
sI1999
F0.86
ssVH7C0P9_HUMAN
p21
(dp22
I5666
F0.72
sI1222
F0.72
sI7016
F0.72
sI522
F0.72
sI2114
F0.72
sI495
F0.72
sI4816
F0.72
sI18
F0.72
sI6998
F0.72
sI2008
F0.72
ssVIF5A1_HUMAN
p23
(dp24
I8118
F0.72
sI4143
F0.71
ssVC9JJV6_HUMAN
p25
(dp26
I4822
F0.78
ssVSNG3_HUMAN
p27
(dp28
I2101
F0.77
ssVR3HD1_HUMAN
p29
(dp30
I5666
F0.72
sI1222
F0.72
sI7016
F0.72
sI522
F0.72
sI2114
F0.72
sI495
F0.72
sI4816
F0.72
sI18
F0.72
sI6998
F0.72
sI2008
F0.72
ssVQ5T2B5_HUMAN
p31
(dp32
I5617
F0.85
ssVTC1D4_HUMAN
p33
(dp34
I7464
F0.75
sI6928
F0.75
ssVEF1B_HUMAN
p35
(dp36
I529
F0.77
sI1999
F0.84
ssVSO1A2_HUMAN
p37
(dp38
I3094
F0.78
ssVCHDH_HUMAN
p39
(dp40
I10217
F0.81
sI2566
F0.87
ssVE9PG42_HUMAN
p41
(dp42
I5666
F0.72
sI1222
F0.72
sI7016
F0.72
sI522
F0.72
sI2114
F0.72
sI495
F0.72
sI4816
F0.72
sI18
F0.72
sI6998
F0.72
sI2008
F0.72
ssVE9PEZ1_HUMAN
p43
(dp44
I4816
F0.86
ssVB4DJE6_HUMAN
p45
(dp46
I3094
F0.78
ssVNAF1_HUMAN
p47
(dp48
I6222
F0.74
sI1999
F0.75
ssVQ75MH1_HUMAN
p49
(dp50
I1999
F0.82
ssVB7ZAD4_HUMAN
p51
(dp52
I3094
F0.78
ssVQ53S54_HUMAN
p53
(dp54
I5617
F0.69
sI5039
F0.71
ssVD6RCF4_HUMAN
p55
(dp56
I6928
F0.62
sI9447
F0.59
ssVQ6NUN2_HUMAN
p57
(dp58
I5666
F0.56
sI1222
F0.56
sI7016
F0.56
sI522
F0.56
sI2114
F0.71
sI495
F0.56
sI4816
F0.71
sI18
F0.56
sI6998
F0.56
sI2008
F0.56
ssVF8WEJ5_HUMAN
p59
(dp60
I808
F0.74
ssVB4DPS6_HUMAN
p61
(dp62
I2190
F0.81
ssVQ5VTU5_HUMAN
p63
(dp64
I7464
F0.75
sI6928
F0.75
ssVCKLF8_HUMAN
p65
(dp66
I4822
F0.78
ssVQ5JAR5_HUMAN
p67
(dp68
I3094
F0.77
sI3295
F0.63
ssVQ5JAR4_HUMAN
p69
(dp70
I3094
F0.9
sI3295
F0.75
ssVPUR6_HUMAN
p71
(dp72
I1308
F0.88
sI1309
F0.83
sI6927
F0.88
ssVA4FUP2_HUMAN
p73
(dp74
I136
F0.89
ssVE9PPU8_HUMAN
p75
(dp76
I3295
F0.77
ssVB4DS32_HUMAN
p77
(dp78
I2190
F0.83
ssVF5H060_HUMAN
p79
(dp80
I3094
F0.78
ssVF2Z2T2_HUMAN
p81
(dp82
I6928
F0.54
sI482
F0.52
sI4819
F0.54
ssVA3F768_HUMAN
p83
(dp84
I4816
F0.7
sI2114
F0.7
ssVC9J0A2_HUMAN
p85
(dp86
I3414
F0.77
ssVB4DLA3_HUMAN
p87
(dp88
I1488
F0.88
ssVTEAD4_HUMAN
p89
(dp90
I136
F0.53
ssVMADL2_HUMAN
p91
(dp92
I4822
F0.9
ssVB7Z1Y1_HUMAN
p93
(dp94
I5617
F0.87
ssVQ96L30_HUMAN
p95
(dp96
I2101
F0.77
ssVH7C2F9_HUMAN
p97
(dp98
I5666
F0.72
sI1222
F0.72
sI7016
F0.72
sI522
F0.72
sI2114
F0.72
sI495
F0.72
sI4816
F0.72
sI18
F0.72
sI6998
F0.72
sI2008
F0.72
ssVE9PBB4_HUMAN
p99
(dp100
I5666
F0.72
sI1222
F0.72
sI7016
F0.72
sI522
F0.72
sI2114
F0.72
sI495
F0.72
sI4816
F0.72
sI18
F0.72
sI6998
F0.72
sI2008
F0.72
ssVB4DGA9_HUMAN
p101
(dp102
I3295
F0.78
ssVH7C1L6_HUMAN
p103
(dp104
I5039
F0.88
ssVMALD2_HUMAN
p105
(dp106
I4822
F0.74
ssVSPAG7_HUMAN
p107
(dp108
I5666
F0.7
sI1222
F0.7
sI7016
F0.7
sI522
F0.7
sI2114
F0.71
sI495
F0.7
sI4816
F0.72
sI18
F0.7
sI6998
F0.7
sI2008
F0.7
ssVSNG4_HUMAN
p109
(dp110
I2101
F0.78
ssVIF5AL_HUMAN
p111
(dp112
I8118
F0.72
ssVARP21_HUMAN
p113
(dp114
I5666
F0.72
sI1222
F0.72
sI7016
F0.72
sI522
F0.72
sI2114
F0.72
sI495
F0.72
sI4816
F0.72
sI18
F0.72
sI6998
F0.72
sI2008
F0.72
ssVD3DWK1_HUMAN
p115
(dp116
I529
F0.77
sI1515
F0.74
sI1999
F0.78
ssVCISD1_HUMAN
p117
(dp118
I6928
F0.62
sI9447
F0.59
ssVRL19_HUMAN
p119
(dp120
I516
F0.7
sI527
F0.71
ssVH3BMA8_HUMAN
p121
(dp122
I3094
F0.78
sI3295
F0.63
ssVB3KU45_HUMAN
p123
(dp124
I4816
F0.81
sI1488
F0.74
ssVCUL3_HUMAN
p125
(dp126
I5168
F0.76
sI5285
F0.87
sI5039
F0.87
sI4816
F0.76
sI5617
F0.76
sI1488
F0.88
sI5335
F0.76
ssVE9PQZ1_HUMAN
p127
(dp128
I529
F0.82
sI1999
F0.78
ssVSO1C1_HUMAN
p129
(dp130
I3094
F0.76
sI3295
F0.68
ssVQ76N56_HUMAN
p131
(dp132
I1999
F0.82
ssVSNG2L_HUMAN
p133
(dp134
I2101
F0.78
ssVF8VPA7_HUMAN
p135
(dp136
I1999
F0.74
ssVH7C399_HUMAN
p137
(dp138
I5039
F0.87
ssVC9JZL8_HUMAN
p139
(dp140
I4822
F0.65
ssVQ5SZR1_HUMAN
p141
(dp142
I527
F0.74
ssVB4DR09_HUMAN
p143
(dp144
I3297
F0.9
ssVB4DGH7_HUMAN
p145
(dp146
I1488
F0.88
ssVB4DJH3_HUMAN
p147
(dp148
I3295
F0.78
ssVD6RF50_HUMAN
p149
(dp150
I4816
F0.73
sI2114
F0.67
ssVC9JHU9_HUMAN
p151
(dp152
I3094
F0.78
ssVSO5A1_HUMAN
p153
(dp154
I3297
F0.78
ssVQ0VGL9_HUMAN
p155
(dp156
I3094
F0.78
ssVB7Z8J8_HUMAN
p157
(dp158
I3101
F0.91
ssVB4DT53_HUMAN
p159
(dp160
I136
F0.7
ssVC9K059_HUMAN
p161
(dp162
I3094
F0.78
ssVCKLF4_HUMAN
p163
(dp164
I2101
F0.77
ssVSO6A1_HUMAN
p165
(dp166
I3297
F0.78
ssVH0YCA0_HUMAN
p167
(dp168
I5617
F0.65
sI1631
F0.77
ssVH0YG62_HUMAN
p169
(dp170
I136
F0.75
ssVCUL4B_HUMAN
p171
(dp172
I5168
F0.85
sI5285
F0.85
sI5039
F0.85
sI4816
F0.85
sI5617
F0.85
sI5335
F0.85
ssVB3KP78_HUMAN
p173
(dp174
I3094
F0.78
ssVDYLT3_HUMAN
p175
(dp176
I7464
F0.7
sI6928
F0.7
ssVASND1_HUMAN
p177
(dp178
I808
F0.72
ssVD6R9T8_HUMAN
p179
(dp180
I4816
F0.73
sI2114
F0.68
ssVMAL2_HUMAN
p181
(dp182
I4822
F0.71
ssVF8W9W8_HUMAN
p183
(dp184
I3101
F0.78
ssVB3KUC7_HUMAN
p185
(dp186
I3297
F0.78
ssVSYPL1_HUMAN
p187
(dp188
I2101
F0.75
ssVB3KTW0_HUMAN
p189
(dp190
I4816
F0.87
ssVB5MCM0_HUMAN
p191
(dp192
I500
F0.75
ssVB4DQG5_HUMAN
p193
(dp194
I915
F0.81
ssVB3KPQ3_HUMAN
p195
(dp196
I4822
F0.77
ssVSO1B7_HUMAN
p197
(dp198
I3094
F0.77
sI3295
F0.63
ssVQ63HP3_HUMAN
p199
(dp200
I3297
F0.78
ssVH0YCZ6_HUMAN
p201
(dp202
I136
F0.61
sI500
F0.7
ssVQ53G49_HUMAN
p203
(dp204
I516
F0.68
sI527
F0.71
ssVB4DKT2_HUMAN
p205
(dp206
I5617
F0.26
ssVSMBP2_HUMAN
p207
(dp208
I5666
F0.73
sI7016
F0.74
sI2114
F0.74
sI495
F0.74
sI4816
F0.7
sI18
F0.73
sI6998
F0.61
sI2008
F0.61
ssVOCLN_HUMAN
p209
(dp210
I2101
F0.14
ssVF5H094_HUMAN
p211
(dp212
I3094
F0.78
sI3295
F0.63
ssVA6NE76_HUMAN
p213
(dp214
I5617
F0.88
ssVIYD1_HUMAN
p215
(dp216
I1138
F0.85
ssVANC2_HUMAN
p217
(dp218
I1488
F0.74
ssVH0YE58_HUMAN
p219
(dp220
I529
F0.86
sI1999
F0.85
ssVC9JGK7_HUMAN
p221
(dp222
I3094
F0.78
ssVIPO8_HUMAN
p223
(dp224
I2376
F0.82
sI6886
F0.83
ssVD6RA70_HUMAN
p225
(dp226
I5666
F0.72
sI1222
F0.72
sI7016
F0.72
sI522
F0.72
sI2114
F0.72
sI495
F0.72
sI4816
F0.72
sI18
F0.72
sI6998
F0.72
sI2008
F0.72
ssVIF5A2_HUMAN
p227
(dp228
I8118
F0.71
ssVQ9H7G6_HUMAN
p229
(dp230
I529
F0.86
sI1999
F0.82
ssVG3V2B7_HUMAN
p231
(dp232
I3297
F0.78
ssVQ5T2B7_HUMAN
p233
(dp234
I5617
F0.88
ssVPLLP_HUMAN
p235
(dp236
I4822
F0.78
ssVMAL_HUMAN
p237
(dp238
I4822
F0.78
ssVEFTS_HUMAN
p239
(dp240
I1999
F0.88
ssVCUL7_HUMAN
p241
(dp242
I4816
F0.82
ssVF2Z328_HUMAN
p243
(dp244
I7464
F0.71
sI6928
F0.72
ssVTC1D3_HUMAN
p245
(dp246
I7464
F0.76
sI6928
F0.76
ssVA3F769_HUMAN
p247
(dp248
I5666
F0.69
sI1222
F0.69
sI7016
F0.69
sI522
F0.69
sI2114
F0.72
sI495
F0.69
sI4816
F0.72
sI18
F0.69
sI6998
F0.69
sI2008
F0.69
ssVB4DUC5_HUMAN
p249
(dp250
I2190
F0.82
ssVB4DY32_HUMAN
p251
(dp252
I808
F0.73
ssVA2I829_HUMAN
p253
(dp254
I4816
F0.7
sI2114
F0.68
ssVRS26_HUMAN
p255
(dp256
I521
F0.71
sI1999
F0.82
ssVH7C4W3_HUMAN
p257
(dp258
I3414
F0.78
ssVQ8IV69_HUMAN
p259
(dp260
I3094
F0.78
ssVE9PN87_HUMAN
p261
(dp262
I3295
F0.78
ssVPEPL1_HUMAN
p263
(dp264
I6927
F0.78
ssVASNS_HUMAN
p265
(dp266
I808
F0.75
ssVCUL1_HUMAN
p267
(dp268
I5168
F0.86
sI5285
F0.86
sI5039
F0.86
sI4816
F0.86
sI5617
F0.86
sI5335
F0.86
ssVH0YEJ9_HUMAN
p269
(dp270
I136
F0.89
ssVCUL9_HUMAN
p271
(dp272
I4816
F0.85
ssVCKLF3_HUMAN
p273
(dp274
I2101
F0.76
ssVTEAD2_HUMAN
p275
(dp276
I500
F0.58
ssVAMPL_HUMAN
p277
(dp278
I915
F0.71
ssVRT16_HUMAN
p279
(dp280
I1999
F0.87
ssVB4DM67_HUMAN
p281
(dp282
I2190
F0.81
ssVQ5VTU3_HUMAN
p283
(dp284
I7464
F0.76
sI6928
F0.76
ssVB4DTB0_HUMAN
p285
(dp286
I3295
F0.78
ssVDYLT1_HUMAN
p287
(dp288
I7464
F0.76
sI6928
F0.77
ssVF5GXY6_HUMAN
p289
(dp290
I3094
F0.78
ssVQ2VPV9_HUMAN
p291
(dp292
I1138
F0.9
ssVA8K9U1_HUMAN
p293
(dp294
I4816
F0.87
ssVB4DGY8_HUMAN
p295
(dp296
I3984
F0.86
sI4225
F0.88
ssVRS26L_HUMAN
p297
(dp298
I1999
F0.82
ssVF6RGB9_HUMAN
p299
(dp300
I480
F0.35
sI136
F0.36
sI10058
F0.37
sI7628
F0.37
sI1997
F0.35
sI6928
F0.37
sI4819
F0.37
sI6933
F0.37
sI7063
F0.37
sI2008
F0.35
sI219
F0.36
ssVE9PRY8_HUMAN
p301
(dp302
I529
F0.76
sI1515
F0.58
sI1999
F0.76
ssVEAF6_HUMAN
p303
(dp304
I1999
F0.63
ssVSO4C1_HUMAN
p305
(dp306
I3297
F0.78
ssVC9JC07_HUMAN
p307
(dp308
I4822
F0.9
ssVSO1B1_HUMAN
p309
(dp310
I3094
F0.78
ssVQ05CV5_HUMAN
p311
(dp312
I3094
F0.71
sI3295
F0.76
ssVCKLF5_HUMAN
p313
(dp314
I2101
F0.65
ssVQ96M12_HUMAN
p315
(dp316
I4822
F0.76
ssVQ96G15_HUMAN
p317
(dp318
I136
F0.71
ssVB4E3M3_HUMAN
p319
(dp320
I3295
F0.78
ssVE7ESA3_HUMAN
p321
(dp322
I7464
F0.75
sI6928
F0.75
ssVCKLF6_HUMAN
p323
(dp324
I2101
F0.78
ssVE9PK01_HUMAN
p325
(dp326
I529
F0.86
sI1999
F0.82
ssVH9KVB1_HUMAN
p327
(dp328
I136
F0.66
ssVE9PPJ4_HUMAN
p329
(dp330
I3295
F0.78
ssVRUNX1_HUMAN
p331
(dp332
I136
F0.7
sI10058
F0.69
sI7628
F0.7
sI1997
F0.62
sI6928
F0.7
sI4819
F0.68
sI6933
F0.69
sI7063
F0.69
sI219
F0.69
ssVH7C2X8_HUMAN
p333
(dp334
I5666
F0.72
sI1222
F0.72
sI7016
F0.72
sI522
F0.72
sI2114
F0.72
sI495
F0.72
sI4816
F0.72
sI18
F0.72
sI6998
F0.72
sI2008
F0.72
ssVE9PPI0_HUMAN
p335
(dp336
I3297
F0.78
ssVB4DVE5_HUMAN
p337
(dp338
I136
F0.7
ssVE9PI53_HUMAN
p339
(dp340
I3295
F0.78
ssVRUNX3_HUMAN
p341
(dp342
I219
F0.63
ssVF8W8U5_HUMAN
p343
(dp344
I480
F0.34
sI136
F0.34
sI10058
F0.38
sI7628
F0.38
sI1997
F0.34
sI6928
F0.38
sI4819
F0.38
sI6933
F0.38
sI7063
F0.38
sI2008
F0.34
sI219
F0.36
ssVF8WDZ3_HUMAN
p345
(dp346
I2101
F0.78
ssVC9JXJ9_HUMAN
p347
(dp348
I1138
F0.88
ssVRS24_HUMAN
p349
(dp350
I527
F0.71
ssVE5KS95_HUMAN
p351
(dp352
I1999
F0.88
ssVE9PRW4_HUMAN
p353
(dp354
I3295
F0.77
ssVCISD2_HUMAN
p355
(dp356
I6928
F0.65
sI9447
F0.64
ssVQ5T802_HUMAN
p357
(dp358
I480
F0.36
sI136
F0.36
sI10058
F0.37
sI7628
F0.37
sI1997
F0.36
sI6928
F0.37
sI4819
F0.37
sI6933
F0.37
sI7063
F0.37
sI2008
F0.36
sI219
F0.36
ssVICMT_HUMAN
p359
(dp360
I646
F0.74
ssVQ53GI4_HUMAN
p361
(dp362
I136
F0.75
ssVTEAD1_HUMAN
p363
(dp364
I136
F0.73
ssVA4D1M6_HUMAN
p365
(dp366
I529
F0.73
sI1999
F0.78
ssVB4DM31_HUMAN
p367
(dp368
I2190
F0.82
ssVD3DQ68_HUMAN
p369
(dp370
I7464
F0.75
sI6928
F0.75
ssVD3DSZ4_HUMAN
p371
(dp372
I3297
F0.78
ssVF8WCE4_HUMAN
p373
(dp374
I2101
F0.78
ssVA2A283_HUMAN
p375
(dp376
I2101
F0.78
ssVCUL2_HUMAN
p377
(dp378
I5168
F0.85
sI5285
F0.85
sI5039
F0.85
sI4816
F0.85
sI5617
F0.87
sI5335
F0.88
ssVR3HD2_HUMAN
p379
(dp380
I5666
F0.58
sI1222
F0.58
sI7016
F0.58
sI522
F0.58
sI2114
F0.69
sI495
F0.58
sI4816
F0.71
sI18
F0.58
sI6998
F0.58
sI2008
F0.58
ssVD6RA09_HUMAN
p381
(dp382
I4822
F0.69
ssVE7ERN5_HUMAN
p383
(dp384
I3295
F0.73
ssVTC1D2_HUMAN
p385
(dp386
I7464
F0.72
sI6928
F0.72
ssVA8K2G9_HUMAN
p387
(dp388
I3295
F0.78
ssVB4DWF6_HUMAN
p389
(dp390
I2101
F0.78
ssVQ3KQZ2_HUMAN
p391
(dp392
I2101
F0.78
ssVIPO7_HUMAN
p393
(dp394
I2376
F0.82
sI1699
F0.8
sI2190
F0.8
sI6886
F0.74
ssVH0YE11_HUMAN
p395
(dp396
I3295
F0.78
ssVA8K1V0_HUMAN
p397
(dp398
I5666
F0.72
sI1222
F0.72
sI7016
F0.72
sI522
F0.72
sI2114
F0.72
sI495
F0.72
sI4816
F0.72
sI18
F0.72
sI6998
F0.72
sI2008
F0.72
ssVH0Y7B0_HUMAN
p399
(dp400
I136
F0.74
ssVR3HD4_HUMAN
p401
(dp402
I5666
F0.72
sI1222
F0.72
sI7016
F0.72
sI522
F0.72
sI2114
F0.72
sI495
F0.72
sI4816
F0.72
sI18
F0.72
sI6998
F0.72
sI2008
F0.72
ssVCKLF7_HUMAN
p403
(dp404
I2101
F0.77
ssVH7C1B6_HUMAN
p405
(dp406
I5666
F0.72
sI1222
F0.72
sI7016
F0.72
sI522
F0.72
sI2114
F0.72
sI495
F0.72
sI4816
F0.72
sI18
F0.72
sI6998
F0.72
sI2008
F0.72
ssVTEAD3_HUMAN
p407
(dp408
I136
F0.13
ssVD6RC46_HUMAN
p409
(dp410
I3984
F0.85
sI4225
F0.88
ssVH0YFQ8_HUMAN
p411
(dp412
I3094
F0.77
sI3295
F0.62
ssVMALL_HUMAN
p413
(dp414
I4822
F0.47
ssVH0YEP3_HUMAN
p415
(dp416
I6927
F0.88
ssVSNG2_HUMAN
p417
(dp418
I2101
F0.78
ssVH0YGS2_HUMAN
p419
(dp420
I136
F0.75
ssVE9PKB7_HUMAN
p421
(dp422
I136
F0.73
ssVQ9BW34_HUMAN
p423
(dp424
I529
F0.77
sI1999
F0.76
ssVB3KXQ9_HUMAN
p425
(dp426
I5666
F0.72
sI1222
F0.72
sI7016
F0.72
sI522
F0.72
sI2114
F0.72
sI495
F0.72
sI4816
F0.72
sI18
F0.72
sI6998
F0.72
sI2008
F0.72
ssVMALD1_HUMAN
p427
(dp428
I4822
F0.75
ssVCUL5_HUMAN
p429
(dp430
I5617
F0.82
sI1858
F0.74
sI1631
F0.74
sI5335
F0.81
ssVA8K865_HUMAN
p431
(dp432
I2101
F0.79
ssVQ7Z4M3_HUMAN
p433
(dp434
I3094
F0.72
sI3295
F0.77
ssVMYADM_HUMAN
p435
(dp436
I4822
F0.87
ssVQ5T2B4_HUMAN
p437
(dp438
I5617
F0.87
ssVE7ER86_HUMAN
p439
(dp440
I7464
F0.74
sI6928
F0.75
ssVC9JG34_HUMAN
p441
(dp442
I3094
F0.78
ssVQ8IWR8_HUMAN
p443
(dp444
I516
F0.63
sI527
F0.7
ssVC9J4W5_HUMAN
p445
(dp446
I8118
F0.71
ssVC9JYN0_HUMAN
p447
(dp448
I2101
F0.79
ssVC9JUW6_HUMAN
p449
(dp450
I3094
F0.78
ssVCUL4A_HUMAN
p451
(dp452
I5617
F0.76
ssVA6ND22_HUMAN
p453
(dp454
I1999
F0.86
ssVA4D0R1_HUMAN
p455
(dp456
I2101
F0.75
ssVA4D0R2_HUMAN
p457
(dp458
I2101
F0.77
ssVF6VN83_HUMAN
p459
(dp460
I1138
F0.87
ssVC9JTF6_HUMAN
p461
(dp462
I3094
F0.78
ssVC9J020_HUMAN
p463
(dp464
I3297
F0.91
ssVQ59EF3_HUMAN
p465
(dp466
I136
F0.73
ssVH0YE88_HUMAN
p467
(dp468
I136
F0.72
ssVB4DG42_HUMAN
p469
(dp470
I4822
F0.9
ssVF5H8K0_HUMAN
p471
(dp472
I3094
F0.78
ssVF5H4J4_HUMAN
p473
(dp474
I10058
F0.35
sI7628
F0.35
sI6928
F0.35
sI4819
F0.35
sI6933
F0.35
sI7063
F0.35
sI219
F0.4
ssVQ6NSD0_HUMAN
p475
(dp476
I3094
F0.78
ssVSYPL2_HUMAN
p477
(dp478
I2101
F0.73
ssVSYPH_HUMAN
p479
(dp480
I3414
F0.47
ssVF5H543_HUMAN
p481
(dp482
I1138
F0.9
ssVH0YGG9_HUMAN
p483
(dp484
I3094
F0.78
ssVGAR1_HUMAN
p485
(dp486
I6222
F0.65
ssVC9JG32_HUMAN
p487
(dp488
I1999
F0.74
ssVSO3A1_HUMAN
p489
(dp490
I3297
F0.78
ssVB4DLH6_HUMAN
p491
(dp492
I4816
F0.72
sI2114
F0.65
ssVH0YE72_HUMAN
p493
(dp494
I529
F0.77
sI1515
F0.66
sI1999
F0.78
ssVE7EU40_HUMAN
p495
(dp496
I3101
F0.9
ssVXPO2_HUMAN
p497
(dp498
I2190
F0.83
ssVSO1B3_HUMAN
p499
(dp500
I3094
F0.78
ssVE1P5H9_HUMAN
p501
(dp502
I3297
F0.78
ssVQ6ICS3_HUMAN
p503
(dp504
I7464
F0.73
sI6928
F0.74
ssVE9PBS1_HUMAN
p505
(dp506
I1308
F0.86
ssVB7Z600_HUMAN
p507
(dp508
I5039
F0.88
ssVH7C4J8_HUMAN
p509
(dp510
I2101
F0.78
ssVE9PIU9_HUMAN
p511
(dp512
I3295
F0.78
ssVH7C4A7_HUMAN
p513
(dp514
I500
F0.75
ssVC9JYW4_HUMAN
p515
(dp516
I10217
F0.8
sI2566
F0.86
ssVE9PKK7_HUMAN
p517
(dp518
I3984
F0.85
sI4225
F0.88
ssVSO2B1_HUMAN
p519
(dp520
I3295
F0.77
ssVC9IYZ1_HUMAN
p521
(dp522
I808
F0.72
ssVB5MCG9_HUMAN
p523
(dp524
I5666
F0.71
sI1222
F0.71
sI7016
F0.71
sI522
F0.71
sI2114
F0.72
sI495
F0.71
sI4816
F0.72
sI18
F0.71
sI6998
F0.71
sI2008
F0.71
ssVB4DUJ1_HUMAN
p525
(dp526
I527
F0.74
ssVC9J7D8_HUMAN
p527
(dp528
I10217
F0.8
sI2566
F0.86
ssVB4DYR7_HUMAN
p529
(dp530
I2101
F0.78
ssVQ6NSF9_HUMAN
p531
(dp532
I3094
F0.71
sI3295
F0.76
ssVSO4A1_HUMAN
p533
(dp534
I3297
F0.78
ssVB3KVD8_HUMAN
p535
(dp536
I3414
F0.79
ssVSNG1_HUMAN
p537
(dp538
I2101
F0.76
ssVB4DDZ7_HUMAN
p539
(dp540
I527
F0.74
ssVC9J976_HUMAN
p541
(dp542
I3414
F0.78
ssVB5MCD7_HUMAN
p543
(dp544
I2101
F0.78
ssVD3DUQ6_HUMAN
p545
(dp546
I136
F0.75
ssVPHLD_HUMAN
p547
(dp548
I1291
F0.69
ssVB2RAR6_HUMAN
p549
(dp550
I529
F0.77
sI1515
F0.75
sI1999
F0.77
ssVB4E032_HUMAN
p551
(dp552
I1999
F0.84
ssVH0UI76_HUMAN
p553
(dp554
I6927
F0.79
ssVQ14DL7_HUMAN
p555
(dp556
I2101
F0.79
ssVQ53SQ1_HUMAN
p557
(dp558
I5666
F0.72
sI1222
F0.72
sI7016
F0.72
sI522
F0.72
sI2114
F0.72
sI495
F0.72
sI4816
F0.72
sI18
F0.72
sI6998
F0.72
sI2008
F0.72
ssVB5MCU0_HUMAN
p559
(dp560
I5666
F0.72
sI1222
F0.72
sI7016
F0.72
sI522
F0.72
sI2114
F0.72
sI495
F0.72
sI4816
F0.72
sI18
F0.72
sI6998
F0.72
sI2008
F0.72
ssVF8W6R3_HUMAN
p561
(dp562
I1999
F0.88
ssVC9JT21_HUMAN
p563
(dp564
I1999
F0.74
ssVB7Z359_HUMAN
p565
(dp566
I3414
F0.78
ssVB2RDV2_HUMAN
p567
(dp568
I6927
F0.86
ssVB4DHY8_HUMAN
p569
(dp570
I1999
F0.88
ssVQ71U35_HUMAN
p571
(dp572
I136
F0.71
ssVC9J5M0_HUMAN
p573
(dp574
I4822
F0.9
ssVB2RBV7_HUMAN
p575
(dp576
I5617
F0.81
ssVB4DYL5_HUMAN
p577
(dp578
I3295
F0.78
ssVNKRF_HUMAN
p579
(dp580
I4816
F0.71
sI2114
F0.71
ssVH0YFF9_HUMAN
p581
(dp582
I136
F0.74
ssVH0YIX9_HUMAN
p583
(dp584
I5666
F0.72
sI1222
F0.72
sI7016
F0.72
sI522
F0.72
sI2114
F0.72
sI495
F0.72
sI4816
F0.72
sI18
F0.72
sI6998
F0.72
sI2008
F0.72
ssVA8K3T2_HUMAN
p585
(dp586
I2101
F0.73
ssVA8K0N4_HUMAN
p587
(dp588
I4822
F0.78
ssVH7C1J0_HUMAN
p589
(dp590
I5039
F0.87
ssVB4DMQ4_HUMAN
p591
(dp592
I10217
F0.81
sI2566
F0.87
ssVTC1D1_HUMAN
p593
(dp594
I7464
F0.75
sI6928
F0.75
ssVQ76N57_HUMAN
p595
(dp596
I1999
F0.82
ssVNFX1_HUMAN
p597
(dp598
I5666
F0.65
sI1222
F0.65
sI7016
F0.65
sI522
F0.65
sI2114
F0.68
sI495
F0.65
sI4816
F0.72
sI18
F0.65
sI6998
F0.65
sI2008
F0.65
ssVQ0VGM0_HUMAN
p599
(dp600
I3094
F0.71
sI3295
F0.76
ssVD6RF62_HUMAN
p601
(dp602
I1308
F0.85
ssVH0Y9Q1_HUMAN
p603
(dp604
I915
F0.94
ssVSYNPR_HUMAN
p605
(dp606
I3414
F0.79
ssVC9JSB7_HUMAN
p607
(dp608
I3094
F0.78
ssVQ7Z454_HUMAN
p609
(dp610
I3094
F0.78
ssVXPA_HUMAN
p611
(dp612
I6928
F0.65
sI482
F0.64
sI4819
F0.65
ssVPLP2_HUMAN
p613
(dp614
I3048
F0.32
ssVRUNX2_HUMAN
p615
(dp616
I10058
F0.29
sI7628
F0.29
sI6928
F0.29
sI4819
F0.29
sI6933
F0.29
sI7063
F0.29
ssVG5E9G8_HUMAN
p617
(dp618
I4816
F0.71
sI2114
F0.68
ssVH3BNA6_HUMAN
p619
(dp620
I2101
F0.78
ssVSO2A1_HUMAN
p621
(dp622
I3101
F0.78
ssVQ75MQ1_HUMAN
p623
(dp624
I1488
F0.88
ssVR3HC1_HUMAN
p625
(dp626
I5666
F0.71
sI1222
F0.71
sI7016
F0.71
sI522
F0.71
sI2114
F0.71
sI495
F0.71
sI4816
F0.72
sI18
F0.71
sI6998
F0.71
sI2008
F0.71
ssVQ53R84_HUMAN
p627
(dp628
I4822
F0.76
ss.