(lp0
(dp1
a(dp2
a(dp3
a(dp4
Vseq1
p5
(lp6
(lp7
c__builtin__
set
p8
((lp9
VTID_DROME
p10
atp11
Rp12
aF258.84
aF6.7305e-82
aF100.0
aa(lp13
g8
((lp14
VTID_DROME
p15
atp16
Rp17
aF258.455
aF8.16924e-82
aF100.0
aa(lp18
g8
((lp19
VTID_DROME
p20
atp21
Rp22
aF260.381
aF8.72522e-82
aF100.0
aa(lp23
g8
((lp24
VTID_DROME
p25
atp26
Rp27
aF260.381
aF8.72522e-82
aF100.0
aa(lp28
g8
((lp29
VD3DN23_DROME
p30
atp31
Rp32
aF258.455
aF8.81666e-82
aF100.0
aa(lp33
g8
((lp34
VT2GGE7_DROME
p35
atp36
Rp37
aF259.225
aF2.8152e-81
aF99.0
aa(lp38
g8
((lp39
VD6W4V2_DROME
p40
atp41
Rp42
aF258.84
aF3.13551e-81
aF100.0
aa(lp43
g8
((lp44
VQ7KVH7_DROME
p45
atp46
Rp47
aF258.455
aF3.72174e-81
aF100.0
aa(lp48
g8
((lp49
VTID_DROME
p50
atp51
Rp52
aF258.07
aF7.53981e-81
aF99.0
aa(lp53
g8
((lp54
VB4QAY0_DROSI
p55
atp56
Rp57
aF251.906
aF1.3936e-78
aF97.0
aa(lp58
g8
((lp59
VTID_DROME
p60
atp61
Rp62
aF251.521
aF2.30205e-78
aF98.0
aa(lp63
g8
((lp64
VB4I8S2_DROSE
p65
atp66
Rp67
aF246.899
aF7.623e-77
aF95.0
aa(lp68
g8
((lp69
VB4P9R9_DROYA
p70
atp71
Rp72
aF246.514
aF1.70312e-76
aF95.0
aa(lp73
g8
((lp74
VB3NPR2_DROER
p75
atp76
Rp77
aF240.736
aF2.83994e-74
aF94.0
aa(lp78
g8
((lp79
VB3MFJ4_DROAN
p80
atp81
Rp82
aF171.785
aF4.42727e-48
aF66.0
aa(lp83
g8
((lp84
VB4GHT7_DROPE
p85
atp86
Rp87
aF157.532
aF9.13587e-43
aF61.0
aa(lp88
g8
((lp89
VB5E1J0_DROPS
p90
atp91
Rp92
aF155.221
aF7.40194e-42
aF60.0
aa(lp93
g8
((lp94
VB4NML0_DROWI
p95
atp96
Rp97
aF154.066
aF1.44753e-41
aF61.0
aa(lp98
g8
((lp99
VB4MDV9_DROVI
p100
atp101
Rp102
aF140.198
aF1.35868e-36
aF55.0
aa(lp103
g8
((lp104
VTID_DROVI
p105
atp106
Rp107
aF140.198
aF1.5179e-36
aF55.0
aa(lp108
g8
((lp109
VB4J871_DROGR
p110
atp111
Rp112
aF133.265
aF4.14666e-34
aF59.0
aa(lp113
g8
((lp114
VB4KQ15_DROMO
p115
atp116
Rp117
aF132.494
aF7.12226e-34
aF53.0
aa(lp118
g8
((lp119
VT1PAG9_MUSDO
p120
atp121
Rp122
aF127.872
aF2.49841e-32
aF81.0
aa(lp123
g8
((lp124
VA0A084VEZ2_9DIPT
p125
atp126
Rp127
aF123.635
aF9.11385e-31
aF78.0
aa(lp128
g8
((lp129
VQ16R72_AEDAE
p130
atp131
Rp132
aF119.013
aF5.15029e-29
aF76.0
aa(lp133
g8
((lp134
VW5JTS9_ANODA
p135
atp136
Rp137
aF117.857
aF8.88096e-29
aF77.0
aa(lp138
g8
((lp139
VA7UR98_ANOGA
p140
atp141
Rp142
aF117.857
aF1.3796e-28
aF71.0
aa(lp143
g8
((lp144
VE2ADT8_CAMFO
p145
atp146
Rp147
aF117.857
aF1.77976e-28
aF56.0
aa(lp148
g8
((lp149
VW5JHS9_ANODA
p150
atp151
Rp152
aF117.472
aF2.0742e-28
aF73.0
aa(lp153
g8
((lp154
VQ7QJL2_ANOGA
p155
atp156
Rp157
aF116.701
aF6.03054e-28
aF71.0
aa(lp158
g8
((lp159
VF4WP97_ACREC
p160
atp161
Rp162
aF114.775
aF1.56959e-27
aF74.0
aa(lp163
g8
((lp164
VA0A026WNX8_CERBI
p165
atp166
Rp167
aF114.775
aF2.47764e-27
aF73.0
aa(lp168
g8
((lp169
VE9J573_SOLIN
p170
atp171
Rp172
aF114.39
aF3.5232e-27
aF55.0
aa(lp173
g8
((lp174
VE2BN18_HARSA
p175
atp176
Rp177
aF113.62
aF3.53132e-27
aF73.0
aa(lp178
g8
((lp179
VH6VTQ4_BOMMO
p180
atp181
Rp182
aF114.005
aF5.64392e-27
aF69.0
aa(lp183
g8
((lp184
VG6DRS5_DANPL
p185
atp186
Rp187
aF112.849
aF1.68043e-26
aF55.0
aa(lp188
g8
((lp189
VA0A067QSP8_ZOONE
p190
atp191
Rp192
aF108.997
aF3.14376e-25
aF79.0
aa(lp193
g8
((lp194
VD7T2W9_VITVI
p195
atp196
Rp197
aF106.686
aF8.9122e-25
aF57.0
aa(lp198
g8
((lp199
VM0SAK9_MUSAM
p200
atp201
Rp202
aF105.916
aF1.79022e-24
aF50.0
aa(lp203
g8
((lp204
VA0A077ZN80_TRITR
p205
atp206
Rp207
aF103.219
aF7.92567e-24
aF65.0
aa(lp208
g8
((lp209
VA0A022T6E8_9HYME
p210
atp211
Rp212
aF105.145
aF9.24433e-24
aF65.0
aa(lp213
g8
((lp214
VE0VXY1_PEDHC
p215
atp216
Rp217
aF103.219
aF1.97537e-23
aF66.0
aa(lp218
g8
((lp219
VA0A087U298_9ARAC
p220
atp221
Rp222
aF98.5969
aF3.07262e-23
aF49.0
aa(lp223
g8
((lp224
VE9H747_DAPPU
p225
atp226
Rp227
aF102.834
aF3.32749e-23
aF61.0
aa(lp228
g8
((lp229
VA0A077ZED0_TRITR
p230
atp231
Rp232
aF102.449
aF4.53569e-23
aF65.0
aa(lp233
g8
((lp234
VA0A085NPN4_9BILA
p235
atp236
Rp237
aF102.449
aF4.82794e-23
aF64.0
aa(lp238
g8
((lp239
VDNJA3_MOUSE
p240
atp241
Rp242
aF101.679
aF6.04412e-23
aF66.0
aa(lp243
g8
((lp244
VA1KXF7_RAT
p245
atp246
Rp247
aF101.679
aF6.16743e-23
aF66.0
aa(lp248
g8
((lp249
VU3CDU6_CALJA
p250
atp251
Rp252
aF101.679
aF6.37285e-23
aF66.0
aa(lp253
g8
((lp254
VL8HPQ8_9CETA
p255
atp256
Rp257
aF100.138
aF7.88531e-23
aF65.0
aasaI1
a.