(dp0
S'result'
p1
(lp2
(lp3
VF1RN62_PIG
p4
aVF1RN62
p5
aVSus scrofa
p6
aI9823
a(lp7
(lp8
VGO:0015349
p9
aVthyroid hormone transmembrane transporter activity
p10
aS'0.79'
p11
aa(lp12
VGO:0015132
p13
aVprostaglandin transmembrane transporter activity
p14
aS'0.77'
p15
aaaa(lp16
VA8WRK7_CAEBR
p17
aVA8WRK7
p18
aVCaenorhabditis briggsae
p19
aI6238
a(lp20
(lp21
g9
ag10
aS'0.82'
p22
aa(lp23
g13
ag14
aS'0.22'
p24
aa(lp25
VGO:0015125
p26
aVbile acid transmembrane transporter activity
p27
aS'0.19'
p28
aa(lp29
VGO:0015238
p30
aVdrug transmembrane transporter activity
p31
aS'0.18'
p32
aa(lp33
VGO:0015198
p34
aVoligopeptide transporter activity
p35
aS'0.18'
p36
aa(lp37
VGO:0015347
p38
aVsodium-independent organic anion transmembrane transporter activity
p39
aS'0.18'
p40
aaaa(lp41
VH3J4I4_STRPU
p42
aVH3J4I4
p43
aVStrongylocentrotus purpuratus
p44
aI7668
a(lp45
(lp46
g9
ag10
aS'0.81'
p47
aa(lp48
g13
ag14
aS'0.37'
p49
aaaa(lp50
VQ8K4K9_RAT
p51
aVQ8K4K9
p52
aVRattus norvegicus
p53
aI10116
a(lp54
(lp55
g9
ag10
aS'0.75'
p56
aa(lp57
g13
ag14
aS'0.71'
p58
aaaa(lp59
VH3IQD9_STRPU
p60
aVH3IQD9
p61
aVStrongylocentrotus purpuratus
p62
aI7668
a(lp63
(lp64
g9
ag10
aS'0.84'
p65
aa(lp66
g13
ag14
aS'0.72'
p67
aaaa(lp68
VG1TI46_RABIT
p69
aVG1TI46
p70
aVOryctolagus cuniculus
p71
aI9986
a(lp72
(lp73
g9
ag10
aS'0.82'
p74
aa(lp75
g13
ag14
aS'0.25'
p76
aaaa(lp77
VSO4A1_MOUSE
p78
aVQ8K078
p79
aVMus musculus
p80
aI10090
a(lp81
(lp82
g9
ag10
aS'0.84'
p83
aa(lp84
g13
ag14
aS'0.81'
p85
aaaa(lp86
VG3UKL3_LOXAF
p87
aVG3UKL3
p88
aVLoxodonta africana
p89
aI9785
a(lp90
(lp91
g9
ag10
aS'0.89'
p92
aa(lp93
g13
ag14
aS'0.29'
p94
aaaa(lp95
VB7P3S5_IXOSC
p96
aVB7P3S5
p97
aVIxodes scapularis
p98
aI6945
a(lp99
(lp100
g9
ag10
aS'0.88'
p101
aa(lp102
g26
ag27
aS'0.85'
p103
aa(lp104
g13
ag14
aS'0.76'
p105
aaaa(lp106
VG2HJC6_PANTR
p107
aVG2HJC6
p108
aVPan troglodytes
p109
aI9598
a(lp110
(lp111
g13
ag14
aS'0.91'
p112
aa(lp113
g26
ag27
aS'0.16'
p114
aaaa(lp115
VF1SLA4_PIG
p116
aVF1SLA4
p117
aVSus scrofa
p118
aI9823
a(lp119
(lp120
g13
ag14
aS'0.82'
p121
aa(lp122
g26
ag27
aS'0.11'
p123
aaaa(lp124
VC9JHU9_HUMAN
p125
aVC9JHU9
p126
aVHomo sapiens
p127
aI9606
a(lp128
(lp129
g26
ag27
aS'0.82'
p130
aa(lp131
g38
ag39
aS'0.12'
p132
aaaa(lp133
VH2Q5K4_PANTR
p134
aVH2Q5K4
p135
aVPan troglodytes
p136
aI9598
a(lp137
(lp138
g26
ag27
aS'0.91'
p139
aa(lp140
g38
ag39
aS'0.7'
p141
aaaa(lp142
VG3QGZ3_GORGO
p143
aVG3QGZ3
p144
aVGorilla gorilla gorilla
p145
aI9595
a(lp146
(lp147
g9
ag10
aS'0.8'
p148
aa(lp149
g13
ag14
aS'0.67'
p150
aaaa(lp151
VB4KXF0_DROMO
p152
aVB4KXF0
p153
aVDrosophila mojavensis
p154
aI7230
a(lp155
(lp156
g9
ag10
aS'0.8'
p157
aa(lp158
g13
ag14
aS'0.78'
p159
aaaa(lp160
VH3INQ6_STRPU
p161
aVH3INQ6
p162
aVStrongylocentrotus purpuratus
p163
aI7668
a(lp164
(lp165
g9
ag10
aS'0.89'
p166
aa(lp167
VGO:0004867
p168
aVserine-type endopeptidase inhibitor activity
p169
aS'0.69'
p170
aaaa(lp171
VD3YXA8_MOUSE
p172
aVD3YXA8
p173
aVMus musculus
p174
aI10090
a(lp175
(lp176
g9
ag10
aS'0.8'
p177
aa(lp178
g13
ag14
aS'0.76'
p179
aaaa(lp180
VH0YGD2_HUMAN
p181
aV
p182
aVunclassified
p183
aI0
a(lp184
(lp185
g26
ag27
aS'0.81'
p186
aa(lp187
g38
ag39
aS'0.65'
p188
aaaa(lp189
VE1FV67_LOALO
p190
ag182
aVunclassified
p191
aI0
a(lp192
(lp193
g9
ag10
aS'0.81'
p194
aa(lp195
g13
ag14
aS'0.42'
p196
aaaa(lp197
VG7PC00_MACFA
p198
aVG7PC00
p199
aVMacaca fascicularis
p200
aI9541
a(lp201
(lp202
g9
ag10
aS'0.86'
p203
aa(lp204
g13
ag14
aS'0.32'
p205
aaaa(lp206
VG5BJ45_HETGA
p207
aVG5BJ45
p208
aVHeterocephalus glaber
p209
aI10181
a(lp210
(lp211
g38
ag39
aS'0.88'
p212
aa(lp213
g26
ag27
aS'0.84'
p214
aaaa(lp215
VH2LI10_ORYLA
p216
aVH2LI10
p217
aVOryzias latipes
p218
aI8090
a(lp219
(lp220
g26
ag27
aS'0.91'
p221
aa(lp222
g38
ag39
aS'0.7'
p223
aaaa(lp224
VG1KDM6_ANOCA
p225
aVG1KDM6
p226
aVAnolis carolinensis
p227
aI28377
a(lp228
(lp229
g9
ag10
aS'0.91'
p230
aa(lp231
g13
ag14
aS'0.53'
p232
aaaa(lp233
VB4KJ36_DROMO
p234
aVB4KJ36
p235
aVDrosophila mojavensis
p236
aI7230
a(lp237
(lp238
g9
ag10
aS'0.81'
p239
aa(lp240
g13
ag14
aS'0.31'
p241
aa(lp242
g30
ag31
aS'0.29'
p243
aa(lp244
g26
ag27
aS'0.29'
p245
aa(lp246
g34
ag35
aS'0.29'
p247
aa(lp248
g38
ag39
aS'0.29'
p249
aaaa(lp250
VE3WL16_ANODA
p251
aVE3WL16
p252
aVAnopheles darlingi
p253
aI43151
a(lp254
(lp255
g9
ag10
aS'0.82'
p256
aa(lp257
g13
ag14
aS'0.37'
p258
aaaa(lp259
VC3Y4F8_BRAFL
p260
aVC3Y4F8
p261
aVBranchiostoma floridae
p262
aI7739
a(lp263
(lp264
g9
ag10
aS'0.89'
p265
aa(lp266
g13
ag14
aS'0.84'
p267
aaaa(lp268
VSO1A6_RAT
p269
aVQ9QYE2
p270
aVRattus norvegicus
p271
aI10116
a(lp272
(lp273
g26
ag27
aS'0.91'
p274
aa(lp275
g38
ag39
aS'0.45'
p276
aaaa(lp277
VH0VF80_CAVPO
p278
aVH0VF80
p279
aVCavia porcellus
p280
aI10141
a(lp281
(lp282
g26
ag27
aS'0.91'
p283
aa(lp284
g38
ag39
aS'0.48'
p285
aaaa(lp286
VH2TWS2_TAKRU
p287
aVH2TWS2
p288
aVTakifugu rubripes
p289
aI31033
a(lp290
(lp291
g9
ag10
aS'0.91'
p292
aa(lp293
g13
ag14
aS'0.34'
p294
aaaa(lp295
VH3IYT3_STRPU
p296
aVH3IYT3
p297
aVStrongylocentrotus purpuratus
p298
aI7668
a(lp299
(lp300
g9
ag10
aS'0.9'
p301
aa(lp302
g13
ag14
aS'0.81'
p303
aaaa(lp304
VH2XWZ2_CIOIN
p305
aVH2XWZ2
p306
aVCiona intestinalis
p307
aI7719
a(lp308
(lp309
g9
ag10
aS'0.81'
p310
aa(lp311
g13
ag14
aS'0.45'
p312
aaaa(lp313
VH0ZDV3_TAEGU
p314
aVH0ZDV3
p315
aVTaeniopygia guttata
p316
aI59729
a(lp317
(lp318
g9
ag10
aS'0.79'
p319
aa(lp320
g13
ag14
aS'0.77'
p321
aaaa(lp322
VB7Q7F9_IXOSC
p323
aVB7Q7F9
p324
aVIxodes scapularis
p325
aI6945
a(lp326
(lp327
g9
ag10
aS'0.81'
p328
aa(lp329
g13
ag14
aS'0.33'
p330
aa(lp331
g30
ag31
aS'0.31'
p332
aa(lp333
g26
ag27
aS'0.31'
p334
aa(lp335
g34
ag35
aS'0.31'
p336
aa(lp337
g38
ag39
aS'0.31'
p338
aaaa(lp339
VF7FQD4_CALJA
p340
aVF7FQD4
p341
aVCallithrix jacchus
p342
aI9483
a(lp343
(lp344
g38
ag39
aS'0.81'
p345
aa(lp346
g26
ag27
aS'0.35'
p347
aa(lp348
g13
ag14
aS'0.29'
p349
aaaa(lp350
VC3Y4U1_BRAFL
p351
aVC3Y4U1
p352
aVBranchiostoma floridae
p353
aI7739
a(lp354
(lp355
g9
ag10
aS'0.91'
p356
aa(lp357
g13
ag14
aS'0.5'
p358
aaaa(lp359
VH2TWS4_TAKRU
p360
aVH2TWS4
p361
aVTakifugu rubripes
p362
aI31033
a(lp363
(lp364
g9
ag10
aS'0.91'
p365
aa(lp366
g13
ag14
aS'0.39'
p367
aaaa(lp368
VH3B9U6_LATCH
p369
aVH3B9U6
p370
aVLatimeria chalumnae
p371
aI7897
a(lp372
(lp373
g9
ag10
aS'0.91'
p374
aa(lp375
g13
ag14
aS'0.33'
p376
aaaa(lp377
VH0WWR0_OTOGA
p378
aVH0WWR0
p379
aVOtolemur garnettii
p380
aI30611
a(lp381
(lp382
g9
ag10
aS'0.8'
p383
aa(lp384
g13
ag14
aS'0.74'
p385
aaaa(lp386
VE4YN72_OIKDI
p387
aVE4YN72
p388
aVOikopleura dioica
p389
aI34765
a(lp390
(lp391
g9
ag10
aS'0.82'
p392
aa(lp393
g13
ag14
aS'0.25'
p394
aaaa(lp395
VQ3B7Q4_DANRE
p396
aVQ3B7Q4
p397
aVDanio rerio
p398
aI7955
a(lp399
(lp400
g38
ag39
aS'0.76'
p401
aa(lp402
g13
ag14
aS'0.42'
p403
aaaa(lp404
VG3R1F3_GORGO
p405
aVG3R1F3
p406
aVGorilla gorilla gorilla
p407
aI9595
a(lp408
(lp409
g9
ag10
aS'0.91'
p410
aa(lp411
g13
ag14
aS'0.5'
p412
aaaa(lp413
VI1FF21_AMPQE
p414
aVI1FF21
p415
aVAmphimedon queenslandica
p416
aI400682
a(lp417
(lp418
g9
ag10
aS'0.78'
p419
aa(lp420
g26
ag27
aS'0.77'
p421
aaaa(lp422
VB7ZAD4_HUMAN
p423
aVB7ZAD4
p424
aVHomo sapiens
p425
aI9606
a(lp426
(lp427
g26
ag27
aS'0.91'
p428
aa(lp429
g38
ag39
aS'0.09'
p430
aaaa(lp431
VD3YY31_MOUSE
p432
aVD3YY31
p433
aVMus musculus
p434
aI10090
a(lp435
(lp436
g9
ag10
aS'0.79'
p437
aa(lp438
g13
ag14
aS'0.47'
p439
aa(lp440
g30
ag31
aS'0.37'
p441
aa(lp442
g26
ag27
aS'0.37'
p443
aa(lp444
g34
ag35
aS'0.37'
p445
aa(lp446
g38
ag39
aS'0.37'
p447
aaaa(lp448
VF6SNS4_XENTR
p449
aVF6SNS4
p450
aVXenopus (Silurana) tropicalis
p451
aI8364
a(lp452
(lp453
g9
ag10
aS'0.82'
p454
aa(lp455
g13
ag14
aS'0.46'
p456
aaaa(lp457
VH2ME23_ORYLA
p458
aVH2ME23
p459
aVOryzias latipes
p460
aI8090
a(lp461
(lp462
g13
ag14
aS'0.83'
p463
aa(lp464
g38
ag39
aS'0.78'
p465
aaaa(lp466
VH2LWA1_ORYLA
p467
aVH2LWA1
p468
aVOryzias latipes
p469
aI8090
a(lp470
(lp471
g26
ag27
aS'0.79'
p472
aa(lp473
g38
ag39
aS'0.74'
p474
aaaa(lp475
VH9GK46_ANOCA
p476
aVH9GK46
p477
aVAnolis carolinensis
p478
aI28377
a(lp479
(lp480
g13
ag14
aS'0.89'
p481
aa(lp482
g38
ag39
aS'0.45'
p483
aaaa(lp484
VH2WEQ3_CAEJA
p485
aVH2WEQ3
p486
aVCaenorhabditis japonica
p487
aI281687
a(lp488
(lp489
g9
ag10
aS'0.92'
p490
aa(lp491
g13
ag14
aS'0.42'
p492
aa(lp493
g30
ag31
aS'0.38'
p494
aa(lp495
g26
ag27
aS'0.38'
p496
aa(lp497
g34
ag35
aS'0.38'
p498
aa(lp499
g38
ag39
aS'0.38'
p500
aaaa(lp501
VF1PII7_CANFA
p502
ag182
aVunclassified
p503
aI0
a(lp504
(lp505
g9
ag10
aS'0.82'
p506
aa(lp507
g13
ag14
aS'0.16'
p508
aa(lp509
g26
ag27
aS'0.13'
p510
aaaa(lp511
VE1BC23_BOVIN
p512
aVE1BC23
p513
aVBos taurus
p514
aI9913
a(lp515
(lp516
g26
ag27
aS'0.91'
p517
aa(lp518
g38
ag39
aS'0.69'
p519
aaaa(lp520
VF6X5N8_CIOIN
p521
aVF6X5N8
p522
aVCiona intestinalis
p523
aI7719
a(lp524
(lp525
g13
ag14
aS'0.8'
p526
aa(lp527
g26
ag27
aS'0.31'
p528
aa(lp529
g30
ag31
aS'0.29'
p530
aa(lp531
g9
ag10
aS'0.29'
p532
aa(lp533
g34
ag35
aS'0.29'
p534
aa(lp535
g38
ag39
aS'0.29'
p536
aaaa(lp537
VQ5JAR4_HUMAN
p538
aVQ5JAR4
p539
aVHomo sapiens
p540
aI9606
a(lp541
(lp542
g26
ag27
aS'0.9'
p543
aa(lp544
g38
ag39
aS'0.85'
p545
aaaa(lp546
VA7SWE4_NEMVE
p547
aVA7SWE4
p548
aVNematostella vectensis
p549
aI45351
a(lp550
(lp551
g26
ag27
aS'0.78'
p552
aa(lp553
g9
ag10
aS'0.78'
p554
aaaa(lp555
VF6X587_XENTR
p556
aVF6X587
p557
aVXenopus (Silurana) tropicalis
p558
aI8364
a(lp559
(lp560
g9
ag10
aS'0.91'
p561
aa(lp562
g13
ag14
aS'0.32'
p563
aaaa(lp564
VD2HW96_AILME
p565
aVD2HW96
p566
aVAiluropoda melanoleuca
p567
aI9646
a(lp568
(lp569
g9
ag10
aS'0.79'
p570
aa(lp571
g13
ag14
aS'0.77'
p572
aaaa(lp573
VH2T322_TAKRU
p574
aVH2T322
p575
aVTakifugu rubripes
p576
aI31033
a(lp577
(lp578
g9
ag10
aS'0.82'
p579
aa(lp580
g13
ag14
aS'0.17'
p581
aa(lp582
g26
ag27
aS'0.14'
p583
aa(lp584
g30
ag31
aS'0.13'
p585
aa(lp586
g34
ag35
aS'0.13'
p587
aa(lp588
g38
ag39
aS'0.13'
p589
aaaa(lp590
VE0W488_PEDHC
p591
aVE0W488
p592
aVPediculus humanus corporis
p593
aI121224
a(lp594
(lp595
g9
ag10
aS'0.79'
p596
aa(lp597
g26
ag27
aS'0.76'
p598
aaaa(lp599
VH2YEL7_CIOSA
p600
aVH2YEL7
p601
aVCiona savignyi
p602
aI51511
a(lp603
(lp604
g9
ag10
aS'0.8'
p605
aa(lp606
g13
ag14
aS'0.77'
p607
aaaa(lp608
VG3NKK4_GASAC
p609
aVG3NKK4
p610
aVGasterosteus aculeatus
p611
aI69293
a(lp612
(lp613
g9
ag10
aS'0.91'
p614
aa(lp615
g13
ag14
aS'0.5'
p616
aaaa(lp617
VF4WZT5_ACREC
p618
aVF4WZT5
p619
aVAcromyrmex echinatior
p620
aI103372
a(lp621
(lp622
g9
ag10
aS'0.77'
p623
aa(lp624
g26
ag27
aS'0.72'
p625
aa(lp626
VGO:0019900
p627
aVkinase binding
p628
aS'0.63'
p629
aa(lp630
VGO:0008424
p631
aVglycoprotein 6-alpha-L-fucosyltransferase activity
p632
aS'0.62'
p633
aaaa(lp634
VF7C2I8_MACMU
p635
aVF7C2I8
p636
aVMacaca mulatta
p637
aI9544
a(lp638
(lp639
g9
ag10
aS'0.91'
p640
aa(lp641
g13
ag14
aS'0.55'
p642
aaaa(lp643
VSO1A4_MOUSE
p644
aVQ9EP96
p645
aVMus musculus
p646
aI10090
a(lp647
(lp648
g26
ag27
aS'0.87'
p649
aa(lp650
g38
ag39
aS'0.42'
p651
aaaa(lp652
VF1NEX3_CHICK
p653
aVF1NEX3
p654
aVGallus gallus
p655
aI9031
a(lp656
(lp657
g9
ag10
aS'0.91'
p658
aa(lp659
g13
ag14
aS'0.53'
p660
aaaa(lp661
VF6SFJ8_ORNAN
p662
aVF6SFJ8
p663
aVOrnithorhynchus anatinus
p664
aI9258
a(lp665
(lp666
g26
ag27
aS'0.91'
p667
aa(lp668
g38
ag39
aS'0.74'
p669
aaaa(lp670
VH3DF25_TETNG
p671
aVH3DF25
p672
aVTetraodon nigroviridis
p673
aI99883
a(lp674
(lp675
g26
ag27
aS'0.9'
p676
aa(lp677
g38
ag39
aS'0.72'
p678
aaaa(lp679
VQ7PI57_ANOGA
p680
aVQ7PI57
p681
aVAnopheles gambiae
p682
aI7165
a(lp683
(lp684
g13
ag14
aS'0.8'
p685
aa(lp686
g9
ag10
aS'0.79'
p687
aaaa(lp688
VA8WJB0_CAEBR
p689
aVA8WJB0
p690
aVCaenorhabditis briggsae
p691
aI6238
a(lp692
(lp693
g9
ag10
aS'0.82'
p694
aa(lp695
g13
ag14
aS'0.34'
p696
aaaa(lp697
VH2YTS1_CIOSA
p698
aVH2YTS1
p699
aVCiona savignyi
p700
aI51511
a(lp701
(lp702
g13
ag14
aS'0.84'
p703
aa(lp704
g26
ag27
aS'0.49'
p705
aaaa(lp706
VG1QU38_NOMLE
p707
aVG1QU38
p708
aVNomascus leucogenys
p709
aI61853
a(lp710
(lp711
g13
ag14
aS'0.91'
p712
aa(lp713
g26
ag27
aS'0.17'
p714
aaaa(lp715
VC3YC54_BRAFL
p716
aVC3YC54
p717
aVBranchiostoma floridae
p718
aI7739
a(lp719
(lp720
g9
ag10
aS'0.89'
p721
aa(lp722
g13
ag14
aS'0.83'
p723
aaaa(lp724
VB4GHI4_DROPE
p725
aVB4GHI4
p726
aVDrosophila persimilis
p727
aI7234
a(lp728
(lp729
g9
ag10
aS'0.81'
p730
aa(lp731
g13
ag14
aS'0.35'
p732
aa(lp733
g30
ag31
aS'0.33'
p734
aa(lp735
g26
ag27
aS'0.33'
p736
aa(lp737
g34
ag35
aS'0.33'
p738
aa(lp739
g38
ag39
aS'0.33'
p740
aaaa(lp741
VF7I0Q4_CALJA
p742
aVF7I0Q4
p743
aVCallithrix jacchus
p744
aI9483
a(lp745
(lp746
g9
ag10
aS'0.79'
p747
aa(lp748
g13
ag14
aS'0.77'
p749
aaaa(lp750
VB0W4W5_CULQU
p751
aVB0W4W5
p752
aVCulex quinquefasciatus
p753
aI7176
a(lp754
(lp755
g9
ag10
aS'0.92'
p756
aa(lp757
g13
ag14
aS'0.63'
p758
aaaa(lp759
VB3RLK6_TRIAD
p760
aVB3RLK6
p761
aVTrichoplax adhaerens
p762
aI10228
a(lp763
(lp764
g9
ag10
aS'0.78'
p765
aa(lp766
g13
ag14
aS'0.57'
p767
aa(lp768
g26
ag27
aS'0.52'
p769
aaaa(lp770
VA2ACT3_MOUSE
p771
ag182
aVunclassified
p772
aI0
a(lp773
(lp774
g9
ag10
aS'0.84'
p775
aa(lp776
g13
ag14
aS'0.81'
p777
aaaa(lp778
VQ148W1_MOUSE
p779
aVQ148W1
p780
aVMus musculus
p781
aI10090
a(lp782
(lp783
g9
ag10
aS'0.83'
p784
aa(lp785
g13
ag14
aS'0.25'
p786
aaaa(lp787
VE2BWD4_HARSA
p788
aVE2BWD4
p789
aVHarpegnathos saltator
p790
aI610380
a(lp791
(lp792
g9
ag10
aS'0.91'
p793
aa(lp794
g13
ag14
aS'0.47'
p795
aaaa(lp796
VB3KUC7_HUMAN
p797
aVB3KUC7
p798
aVHomo sapiens
p799
aI9606
a(lp800
(lp801
g9
ag10
aS'0.83'
p802
aa(lp803
g13
ag14
aS'0.25'
p804
aaaa(lp805
VB4HYY3_DROSE
p806
aVB4HYY3
p807
aVDrosophila sechellia
p808
aI7238
a(lp809
(lp810
g26
ag27
aS'0.8'
p811
aa(lp812
g9
ag10
aS'0.77'
p813
aaaa(lp814
VG8F3I8_MACFA
p815
aVG8F3I8
p816
aVMacaca fascicularis
p817
aI9541
a(lp818
(lp819
g38
ag39
aS'0.82'
p820
aa(lp821
g26
ag27
aS'0.36'
p822
aaaa(lp823
VB4N049_DROWI
p824
aVB4N049
p825
aVDrosophila willistoni
p826
aI7260
a(lp827
(lp828
g9
ag10
aS'0.91'
p829
aa(lp830
g13
ag14
aS'0.46'
p831
aaaa(lp832
VG3WUN1_SARHA
p833
aVG3WUN1
p834
aVSarcophilus harrisii
p835
aI9305
a(lp836
(lp837
g9
ag10
aS'0.91'
p838
aa(lp839
g13
ag14
aS'0.4'
p840
aaaa(lp841
VG3TF40_LOXAF
p842
aVG3TF40
p843
aVLoxodonta africana
p844
aI9785
a(lp845
(lp846
g9
ag10
aS'0.82'
p847
aa(lp848
g13
ag14
aS'0.25'
p849
aaaa(lp850
VA7T5W1_NEMVE
p851
aVA7T5W1
p852
aVNematostella vectensis
p853
aI45351
a(lp854
(lp855
g9
ag10
aS'0.92'
p856
aa(lp857
g13
ag14
aS'0.48'
p858
aaaas.