(dp0
S'result'
p1
(lp2
(lp3
Vseq1
p4
a(lp5
(lp6
VE3MMF1_CAERE
p7
aVE3MMF1
p8
aVCaenorhabditis remanei
p9
aI31234
aF1258.82
aF0.0
aS'95'
p10
aS'98'
p11
a(lp12
(lp13
VGO:0015349
p14
aVthyroid hormone transmembrane transporter activity
p15
aS'0.82'
p16
aa(lp17
VGO:0015132
p18
aVprostaglandin transmembrane transporter activity
p19
aS'0.22'
p20
aa(lp21
VGO:0015125
p22
aVbile acid transmembrane transporter activity
p23
aS'0.19'
p24
aa(lp25
VGO:0015238
p26
aVdrug transmembrane transporter activity
p27
aS'0.18'
p28
aa(lp29
VGO:0015198
p30
aVoligopeptide transporter activity
p31
aS'0.18'
p32
aa(lp33
VGO:0015347
p34
aVsodium-independent organic anion transmembrane transporter activity
p35
aS'0.18'
p36
aaaa(lp37
VG0MHZ3_CAEBE
p38
aVG0MHZ3
p39
aVCaenorhabditis brenneri
p40
aI135651
aF1237.25
aF0.0
aS'93'
p41
aS'98'
p42
a(lp43
(lp44
g14
ag15
aS'0.82'
p45
aa(lp46
g18
ag19
aS'0.22'
p47
aa(lp48
g22
ag23
aS'0.19'
p49
aa(lp50
g26
ag27
aS'0.18'
p51
aa(lp52
g30
ag31
aS'0.18'
p53
aa(lp54
g34
ag35
aS'0.18'
p55
aaaa(lp56
VQ93550_CAEEL
p57
aVQ93550
p58
aVCaenorhabditis elegans
p59
aI6239
aF1230.7
aF0.0
aS'92'
p60
aS'98'
p61
a(lp62
(lp63
g14
ag15
aS'0.82'
p64
aa(lp65
g18
ag19
aS'0.22'
p66
aa(lp67
g26
ag27
aS'0.18'
p68
aa(lp69
g22
ag23
aS'0.18'
p70
aa(lp71
g30
ag31
aS'0.18'
p72
aa(lp73
g34
ag35
aS'0.18'
p74
aaaa(lp75
VE1FKB9_LOALO
p76
aVE1FKB9
p77
aVLoa loa
p78
aI7209
aF561.607
aF0.0
aS'45'
p79
aS'95'
p80
a(lp81
(lp82
g14
ag15
aS'0.82'
p83
aa(lp84
g18
ag19
aS'0.21'
p85
aa(lp86
g26
ag27
aS'0.18'
p87
aa(lp88
g22
ag23
aS'0.18'
p89
aa(lp90
g30
ag31
aS'0.18'
p91
aa(lp92
g34
ag35
aS'0.18'
p93
aaaa(lp94
VA8PR64_BRUMA
p95
aVA8PR64
p96
aVBrugia malayi
p97
aI6279
aF502.671
aF2.34752e-166
aS'43'
p98
aS'99'
p99
a(lp100
(lp101
g14
ag15
aS'0.82'
p102
aa(lp103
g18
ag19
aS'0.22'
p104
aa(lp105
g22
ag23
aS'0.19'
p106
aa(lp107
g26
ag27
aS'0.18'
p108
aa(lp109
g30
ag31
aS'0.18'
p110
aa(lp111
g34
ag35
aS'0.18'
p112
aaaa(lp113
VE5SJE0_TRISP
p114
aVE5SJE0
p115
aVTrichinella spiralis
p116
aI6334
aF394.43
aF6.12628e-125
aS'40'
p117
aS'84'
p118
a(lp119
(lp120
g14
ag15
aS'0.81'
p121
aa(lp122
g18
ag19
aS'0.22'
p123
aa(lp124
g22
ag23
aS'0.19'
p125
aa(lp126
g34
ag35
aS'0.19'
p127
aa(lp128
g26
ag27
aS'0.18'
p129
aa(lp130
g30
ag31
aS'0.18'
p131
aaaa(lp132
VE5SJD8_TRISP
p133
aVE5SJD8
p134
ag116
aI6334
aF366.311
aF6.49139e-114
aS'47'
p135
aS'62'
p136
a(lp137
(lp138
g14
ag15
aS'0.81'
p139
aa(lp140
g18
ag19
aS'0.19'
p141
aa(lp142
g22
ag23
aS'0.16'
p143
aa(lp144
g26
ag27
aS'0.15'
p145
aa(lp146
g30
ag31
aS'0.15'
p147
aa(lp148
g34
ag35
aS'0.15'
p149
aaaa(lp150
VC3Y4T6_BRAFL
p151
aVC3Y4T6
p152
aVBranchiostoma floridae
p153
aI7739
aF274.248
aF3.27323e-79
aS'29'
p154
aS'89'
p155
a(lp156
(lp157
g14
ag15
aS'0.81'
p158
aa(lp159
g18
ag19
aS'0.19'
p160
aaaa(lp161
VA4IIQ0_XENTR
p162
aVA4IIQ0
p163
aVXenopus (Silurana) tropicalis
p164
aI8364
aF267.7
aF4.54496e-76
aS'28'
p165
aS'96'
p166
a(lp167
(lp168
g18
ag19
aS'0.91'
p169
aa(lp170
g34
ag35
aS'0.48'
p171
aaaa(lp172
VE1C5S3_CHICK
p173
aVE1C5S3
p174
aVGallus gallus
p175
aI9031
aF260.766
aF1.99508e-73
aS'28'
p176
aS'93'
p177
a(lp178
(lp179
g18
ag19
aS'0.91'
p180
aa(lp181
g34
ag35
aS'0.45'
p182
aaaa(lp183
VA4IG10_DANRE
p184
aVA4IG10
p185
aVDanio rerio
p186
aI7955
aF259.996
aF3.73422e-73
aS'29'
p187
aS'93'
p188
a(lp189
(lp190
g18
ag19
aS'0.84'
p191
aa(lp192
g34
ag35
aS'0.75'
p193
aaaa(lp194
VF1Q4Y9_DANRE
p195
aVF1Q4Y9
p196
ag186
aI7955
aF259.61
aF7.22289e-73
aS'29'
p197
aS'93'
p198
a(lp199
(lp200
g18
ag19
aS'0.82'
p201
aa(lp202
g34
ag35
aS'0.75'
p203
aaaa(lp204
VG1SCG0_RABIT
p205
aVG1SCG0
p206
aVOryctolagus cuniculus
p207
aI9986
aF253.447
aF6.7334e-71
aS'29'
p208
aS'98'
p209
a(lp210
(lp211
g18
ag19
aS'0.91'
p212
aa(lp213
g22
ag23
aS'0.15'
p214
aaaa(lp215
VQ5FX75_CANFA
p216
aVQ5FX75
p217
aVCanis lupus familiaris
p218
aI9615
aF251.906
aF2.21534e-70
aS'29'
p219
aS'94'
p220
a(lp221
(lp222
g18
ag19
aS'0.91'
p223
aa(lp224
g22
ag23
aS'0.15'
p225
aaaa(lp226
VH9J2D0_BOMMO
p227
aVH9J2D0
p228
aVBombyx mori
p229
aI7091
aF256.144
aF5.10559e-70
aS'27'
p230
aS'94'
p231
a(lp232
(lp233
g14
ag15
aS'0.79'
p234
aa(lp235
g22
ag23
aS'0.76'
p236
aaaa(lp237
VG5BQA6_HETGA
p238
aVG5BQA6
p239
aVHeterocephalus glaber
p240
aI10181
aF245.743
aF2.37125e-68
aS'29'
p241
aS'93'
p242
a(lp243
(lp244
g18
ag19
aS'0.91'
p245
aa(lp246
g22
ag23
aS'0.16'
p247
aaaaaas.