(dp0
S'result'
p1
(lp2
(lp3
VE9PA09_YEASX
p4
aVE9PA09
p5
aVSaccharomyces cerevisiae
p6
aI4932
a(lp7
(lp8
VGO:0004519
p9
aVendonuclease activity
p10
aS'0.83'
p11
aaaa(lp12
VH9NBJ8_YEASX
p13
aVH9NBJ8
p14
ag6
aI4932
a(lp15
(lp16
VGO:0042802
p17
aVidentical protein binding
p18
aS'0.66'
p19
aa(lp20
VGO:0050998
p21
aVnitric-oxide synthase binding
p22
aS'0.54'
p23
aa(lp24
VGO:0019901
p25
aVprotein kinase binding
p26
aS'0.52'
p27
aa(lp28
VGO:0005200
p29
aVstructural constituent of cytoskeleton
p30
aS'0.51'
p31
aa(lp32
VGO:0019894
p33
aVkinesin binding
p34
aS'0.49'
p35
aa(lp36
VGO:0017022
p37
aVmyosin binding
p38
aS'0.49'
p39
aa(lp40
VGO:0030957
p41
aVTat protein binding
p42
aS'0.49'
p43
aaaa(lp44
VH1AB52_YEASX
p45
aVH1AB52
p46
ag6
aI4932
a(lp47
(lp48
VGO:0004407
p49
aVhistone deacetylase activity
p50
aS'0.68'
p51
aa(lp52
VGO:0042826
p53
aVhistone deacetylase binding
p54
aS'0.61'
p55
aa(lp56
VGO:0042803
p57
aVprotein homodimerization activity
p58
aS'0.6'
p59
aa(lp60
VGO:0051059
p61
aVNF-kappaB binding
p62
aS'0.55'
p63
aaaa(lp64
VH9NBH3_YEASX
p65
aVH9NBH3
p66
ag6
aI4932
a(lp67
(lp68
g17
ag18
aS'0.68'
p69
aa(lp70
g21
ag22
aS'0.54'
p71
aa(lp72
g25
ag26
aS'0.53'
p73
aa(lp74
g29
ag30
aS'0.51'
p75
aa(lp76
g33
ag34
aS'0.49'
p77
aa(lp78
g37
ag38
aS'0.49'
p79
aa(lp80
g41
ag42
aS'0.49'
p81
aaaa(lp82
VH9NBM9_YEASX
p83
aVH9NBM9
p84
ag6
aI4932
a(lp85
(lp86
g17
ag18
aS'0.73'
p87
aa(lp88
g21
ag22
aS'0.54'
p89
aa(lp90
g25
ag26
aS'0.53'
p91
aa(lp92
g29
ag30
aS'0.51'
p93
aa(lp94
g33
ag34
aS'0.49'
p95
aa(lp96
g37
ag38
aS'0.49'
p97
aa(lp98
g41
ag42
aS'0.49'
p99
aaaa(lp100
VH9NBK4_YEASX
p101
aVH9NBK4
p102
ag6
aI4932
a(lp103
(lp104
g17
ag18
aS'0.56'
p105
aa(lp106
g21
ag22
aS'0.48'
p107
aa(lp108
g29
ag30
aS'0.47'
p109
aa(lp110
g25
ag26
aS'0.47'
p111
aa(lp112
g33
ag34
aS'0.46'
p113
aa(lp114
g37
ag38
aS'0.46'
p115
aa(lp116
g41
ag42
aS'0.46'
p117
aaaa(lp118
VE9P8N8_YEASX
p119
aVE9P8N8
p120
ag6
aI4932
a(lp121
(lp122
VGO:0051082
p123
aVunfolded protein binding
p124
aS'0.68'
p125
aa(lp126
VGO:0003747
p127
aVtranslation release factor activity
p128
aS'0.1'
p129
aaaa(lp130
VH2EL86_YEASX
p131
aVH2EL86
p132
ag6
aI4932
a(lp133
(lp134
VGO:0031625
p135
aVubiquitin protein ligase binding
p136
aS'0.95'
p137
aa(lp138
VGO:0003899
p139
aVDNA-directed RNA polymerase activity
p140
aS'0.16'
p141
aa(lp142
VGO:0003677
p143
aVDNA binding
p144
aS'0.15'
p145
aaaa(lp146
VE9P8K2_YEASX
p147
aVE9P8K2
p148
ag6
aI4932
a(lp149
(lp150
VGO:0005515
p151
aVprotein binding
p152
aS'0.76'
p153
aa(lp154
VGO:0004872
p155
aVreceptor activity
p156
aS'0.37'
p157
aaaa(lp158
VQ7LMB1_YEASX
p159
aVQ7LMB1
p160
ag6
aI4932
a(lp161
(lp162
VGO:0003924
p163
aVGTPase activity
p164
aS'0.83'
p165
aa(lp166
VGO:0019002
p167
aVGMP binding
p168
aS'0.02'
p169
aa(lp170
VGO:0019003
p171
aVGDP binding
p172
aS'0.02'
p173
aa(lp174
VGO:0051117
p175
aVATPase binding
p176
aS'0.02'
p177
aa(lp178
VGO:0030911
p179
aVTPR domain binding
p180
aS'0.02'
p181
aa(lp182
VGO:0001671
p183
aVATPase activator activity
p184
aS'0.02'
p185
aa(lp186
VGO:0035255
p187
aVionotropic glutamate receptor binding
p188
aS'0.02'
p189
aa(lp190
VGO:0031489
p191
aVmyosin V binding
p192
aS'0.02'
p193
aa(lp194
VGO:0032794
p195
aVGTPase activating protein binding
p196
aS'0.02'
p197
aa(lp198
VGO:0080115
p199
aVmyosin XI tail binding
p200
aS'0.02'
p201
aa(lp202
VGO:0005546
p203
aVphosphatidylinositol-4,5-bisphosphate binding
p204
aS'0.02'
p205
aa(lp206
VGO:0051021
p207
aVGDP-dissociation inhibitor binding
p208
aS'0.02'
p209
aa(lp210
VGO:0048365
p211
aVRac GTPase binding
p212
aS'0.02'
p213
aa(lp214
VGO:0019905
p215
aVsyntaxin binding
p216
aS'0.02'
p217
aa(lp218
VGO:0034236
p219
aVprotein kinase A catalytic subunit binding
p220
aS'0.02'
p221
aa(lp222
VGO:0001948
p223
aVglycoprotein binding
p224
aS'0.02'
p225
aa(lp226
VGO:0005525
p227
aVGTP binding
p228
aS'0.02'
p229
aa(lp230
VGO:0008565
p231
aVprotein transporter activity
p232
aS'0.02'
p233
aa(lp234
VGO:0036313
p235
aVphosphatidylinositol 3-kinase catalytic subunit binding
p236
aS'0.02'
p237
aa(lp238
VGO:0030742
p239
aVGTP-dependent protein binding
p240
aS'0.02'
p241
aa(lp242
VGO:0008022
p243
aVprotein C-terminus binding
p244
aS'0.02'
p245
aaaa(lp246
VC9K4V1_YEASX
p247
aVC9K4V1
p248
ag6
aI4932
a(lp249
(lp250
VGO:0051670
p251
aVinulinase activity
p252
aS'0.93'
p253
aa(lp254
VGO:0050306
p255
aVsucrose 1F-fructosyltransferase activity
p256
aS'0.86'
p257
aa(lp258
VGO:0004564
p259
aVbeta-fructofuranosidase activity
p260
aS'0.86'
p261
aaaa(lp262
VH9BH29_YEASX
p263
aVH9BH29
p264
ag6
aI4932
a(lp265
(lp266
g25
ag26
aS'0.84'
p267
aa(lp268
VGO:0003746
p269
aVtranslation elongation factor activity
p270
aS'0.77'
p271
aa(lp272
g227
ag228
aS'0.7'
p273
aa(lp274
g127
ag128
aS'0.65'
p275
aa(lp276
g123
ag124
aS'0.62'
p277
aa(lp278
g163
ag164
aS'0.6'
p279
aaaa(lp280
VE9P8H3_YEASX
p281
aVE9P8H3
p282
ag6
aI4932
a(lp283
(lp284
VGO:0003684
p285
aVdamaged DNA binding
p286
aS'0.94'
p287
aa(lp288
VGO:0051908
p289
aVdouble-stranded DNA 5'-3' exodeoxyribonuclease activity
p290
aS'0.94'
p291
aa(lp292
VGO:0003690
p293
aVdouble-stranded DNA binding
p294
aS'0.94'
p295
aa(lp296
VGO:0017108
p297
aV5'-flap endonuclease activity
p298
aS'0.94'
p299
aa(lp300
VGO:0045145
p301
aVsingle-stranded DNA 5'-3' exodeoxyribonuclease activity
p302
aS'0.94'
p303
aa(lp304
VGO:0003697
p305
aVsingle-stranded DNA binding
p306
aS'0.94'
p307
aa(lp308
g57
ag58
aS'0.94'
p309
aa(lp310
VGO:0047485
p311
aVprotein N-terminus binding
p312
aS'0.94'
p313
aa(lp314
VGO:0004523
p315
aVribonuclease H activity
p316
aS'0.94'
p317
aa(lp318
VGO:0000405
p319
aVbubble DNA binding
p320
aS'0.94'
p321
aaaa(lp322
VD3W791_YEASX
p323
aVD3W791
p324
ag6
aI4932
a(lp325
(lp326
VGO:0015250
p327
aVwater channel activity
p328
aS'0.82'
p329
aa(lp330
VGO:0005267
p331
aVpotassium channel activity
p332
aS'0.36'
p333
aa(lp334
VGO:0005223
p335
aVintracellular cGMP activated cation channel activity
p336
aS'0.36'
p337
aa(lp338
VGO:0051739
p339
aVammonia transmembrane transporter activity
p340
aS'0.36'
p341
aa(lp342
g151
ag152
aS'0.36'
p343
aa(lp344
VGO:0035379
p345
aVcarbon dioxide transmembrane transporter activity
p346
aS'0.36'
p347
aa(lp348
VGO:0030184
p349
aVnitric oxide transmembrane transporter activity
p350
aS'0.36'
p351
aa(lp352
VGO:0005253
p353
aVanion channel activity
p354
aS'0.36'
p355
aaaa(lp356
VH9NBG9_YEASX
p357
aVH9NBG9
p358
ag6
aI4932
a(lp359
(lp360
g17
ag18
aS'0.56'
p361
aa(lp362
g21
ag22
aS'0.48'
p363
aa(lp364
g29
ag30
aS'0.47'
p365
aa(lp366
g25
ag26
aS'0.47'
p367
aa(lp368
g33
ag34
aS'0.46'
p369
aa(lp370
g37
ag38
aS'0.46'
p371
aa(lp372
g41
ag42
aS'0.46'
p373
aaaa(lp374
VD5MS17_YEASX
p375
aVD5MS17
p376
ag6
aI4932
a(lp377
(lp378
g251
ag252
aS'0.94'
p379
aa(lp380
g255
ag256
aS'0.62'
p381
aa(lp382
g259
ag260
aS'0.62'
p383
aaaa(lp384
VE9P9G0_YEASX
p385
aVE9P9G0
p386
ag6
aI4932
a(lp387
(lp388
VGO:0004357
p389
aVglutamate-cysteine ligase activity
p390
aS'0.85'
p391
aa(lp392
g151
ag152
aS'0.05'
p393
aaaa(lp394
VE9P8H9_YEASX
p395
aVE9P8H9
p396
ag6
aI4932
a(lp397
(lp398
VGO:0034450
p399
aVubiquitin-ubiquitin ligase activity
p400
aS'0.79'
p401
aa(lp402
g17
ag18
aS'0.79'
p403
aaaa(lp404
VH9BH45_YEASX
p405
aVH9BH45
p406
ag6
aI4932
a(lp407
(lp408
g25
ag26
aS'0.83'
p409
aa(lp410
g269
ag270
aS'0.83'
p411
aa(lp412
g227
ag228
aS'0.76'
p413
aa(lp414
g127
ag128
aS'0.68'
p415
aaaa(lp416
VH9NB31_YEASX
p417
aVH9NB31
p418
ag6
aI4932
a(lp419
(lp420
g135
ag136
aS'0.95'
p421
aa(lp422
g139
ag140
aS'0.16'
p423
aa(lp424
g143
ag144
aS'0.15'
p425
aaaa(lp426
VE9P8F5_YEASX
p427
aVE9P8F5
p428
ag6
aI4932
a(lp429
(lp430
VGO:0000978
p431
aVRNA polymerase II core promoter proximal region sequence-specific DNA binding
p432
aS'0.89'
p433
aa(lp434
VGO:0008144
p435
aVdrug binding
p436
aS'0.7'
p437
aa(lp438
VGO:0001077
p439
aVRNA polymerase II core promoter proximal region sequence-specific DNA binding transcription factor activity involved in positive regulation of transcription
p440
aS'0.67'
p441
aa(lp442
VGO:0008270
p443
aVzinc ion binding
p444
aS'0.67'
p445
aa(lp446
VGO:0004553
p447
aVhydrolase activity, hydrolyzing O-glycosyl compounds
p448
aS'0.64'
p449
aaaa(lp450
VH9NBM8_YEASX
p451
aVH9NBM8
p452
ag6
aI4932
a(lp453
(lp454
g17
ag18
aS'0.56'
p455
aa(lp456
g21
ag22
aS'0.47'
p457
aa(lp458
g25
ag26
aS'0.47'
p459
aa(lp460
g29
ag30
aS'0.46'
p461
aa(lp462
g33
ag34
aS'0.46'
p463
aa(lp464
g37
ag38
aS'0.46'
p465
aa(lp466
g41
ag42
aS'0.46'
p467
aaaa(lp468
VE9P9T5_YEASX
p469
aVE9P9T5
p470
ag6
aI4932
a(lp471
(lp472
VGO:0003825
p473
aValpha,alpha-trehalose-phosphate synthase (UDP-forming) activity
p474
aS'0.93'
p475
aa(lp476
VGO:0004805
p477
aVtrehalose-phosphatase activity
p478
aS'0.13'
p479
aaaa(lp480
VG4XS87_YEASX
p481
aVG4XS87
p482
ag6
aI4932
a(lp483
(lp484
VGO:0004340
p485
aVglucokinase activity
p486
aS'0.94'
p487
aa(lp488
VGO:0008865
p489
aVfructokinase activity
p490
aS'0.68'
p491
aaaa(lp492
VQ7I2Q6_YEASX
p493
aVQ7I2Q6
p494
ag6
aI4932
a(lp495
(lp496
VGO:0004129
p497
aVcytochrome-c oxidase activity
p498
aS'0.69'
p499
aaaa(lp500
VD0VFN3_YEASX
p501
aVD0VFN3
p502
ag6
aI4932
a(lp503
(lp504
VGO:0004351
p505
aVglutamate decarboxylase activity
p506
aS'0.87'
p507
aa(lp508
VGO:0004058
p509
aVaromatic-L-amino-acid decarboxylase activity
p510
aS'0.77'
p511
aa(lp512
VGO:0004398
p513
aVhistidine decarboxylase activity
p514
aS'0.77'
p515
aa(lp516
VGO:0008117
p517
aVsphinganine-1-phosphate aldolase activity
p518
aS'0.77'
p519
aa(lp520
g151
ag152
aS'0.77'
p521
aaaa(lp522
VE9P8L4_YEASX
p523
aVE9P8L4
p524
ag6
aI4932
a(lp525
(lp526
g151
ag152
aS'0.76'
p527
aa(lp528
g155
ag156
aS'0.39'
p529
aaaa(lp530
VE9P8J7_YEASX
p531
aVE9P8J7
p532
ag6
aI4932
a(lp533
(lp534
g151
ag152
aS'0.75'
p535
aa(lp536
g155
ag156
aS'0.36'
p537
aaaa(lp538
VQ7LMA0_YEASX
p539
aVQ7LMA0
p540
ag6
aI4932
a(lp541
(lp542
VGO:0003918
p543
aVDNA topoisomerase type II (ATP-hydrolyzing) activity
p544
aS'0.9'
p545
aa(lp546
VGO:0046982
p547
aVprotein heterodimerization activity
p548
aS'0.8'
p549
aa(lp550
VGO:0000287
p551
aVmagnesium ion binding
p552
aS'0.79'
p553
aa(lp554
VGO:0005524
p555
aVATP binding
p556
aS'0.76'
p557
aaaa(lp558
VE9P8M4_YEASX
p559
aVE9P8M4
p560
ag6
aI4932
a(lp561
(lp562
VGO:0003721
p563
aVtelomeric template RNA reverse transcriptase activity
p564
aS'0.93'
p565
aa(lp566
g57
ag58
aS'0.63'
p567
aa(lp568
VGO:0070034
p569
aVtelomeric RNA binding
p570
aS'0.62'
p571
aa(lp572
VGO:0042162
p573
aVtelomeric DNA binding
p574
aS'0.62'
p575
aaaa(lp576
VE1AFY8_YEASX
p577
aVE1AFY8
p578
ag6
aI4932
a(lp579
(lp580
VGO:0004575
p581
aVsucrose alpha-glucosidase activity
p582
aS'0.87'
p583
aa(lp584
VGO:0032450
p585
aVmaltose alpha-glucosidase activity
p586
aS'0.32'
p587
aa(lp588
VGO:0008788
p589
aValpha,alpha-phosphotrehalase activity
p590
aS'0.27'
p591
aa(lp592
VGO:0005432
p593
aVcalcium:sodium antiporter activity
p594
aS'0.26'
p595
aa(lp596
VGO:0047471
p597
aVmaltose alpha-D-glucosyltransferase activity
p598
aS'0.26'
p599
aa(lp600
VGO:0015174
p601
aVbasic amino acid transmembrane transporter activity
p602
aS'0.26'
p603
aa(lp604
VGO:0005509
p605
aVcalcium ion binding
p606
aS'0.26'
p607
aa(lp608
VGO:0004556
p609
aValpha-amylase activity
p610
aS'0.26'
p611
aa(lp612
g151
ag152
aS'0.26'
p613
aa(lp614
VGO:0016161
p615
aVbeta-amylase activity
p616
aS'0.26'
p617
aa(lp618
VGO:0015184
p619
aVL-cystine transmembrane transporter activity
p620
aS'0.26'
p621
aaaa(lp622
VH9TVN9_YEASX
p623
aVH9TVN9
p624
ag6
aI4932
a(lp625
(lp626
VGO:0004474
p627
aVmalate synthase activity
p628
aS'0.93'
p629
aa(lp630
VGO:0030145
p631
aVmanganese ion binding
p632
aS'0.13'
p633
aa(lp634
g57
ag58
aS'0.13'
p635
aa(lp636
g551
ag552
aS'0.13'
p637
aaaa(lp638
VD2XNR7_YEASX
p639
aVD2XNR7
p640
ag6
aI4932
a(lp641
(lp642
g151
ag152
aS'0.91'
p643
aaaa(lp644
VG8EXG7_YEASX
p645
aVG8EXG7
p646
ag6
aI4932
a(lp647
(lp648
VGO:0003700
p649
aVsequence-specific DNA binding transcription factor activity
p650
aS'0.74'
p651
aa(lp652
VGO:0008013
p653
aVbeta-catenin binding
p654
aS'0.27'
p655
aa(lp656
VGO:0051010
p657
aVmicrotubule plus-end binding
p658
aS'0.24'
p659
aaaa(lp660
VH9BH70_YEASX
p661
aVH9BH70
p662
ag6
aI4932
a(lp663
(lp664
g25
ag26
aS'0.82'
p665
aa(lp666
g269
ag270
aS'0.81'
p667
aa(lp668
g227
ag228
aS'0.8'
p669
aa(lp670
g127
ag128
aS'0.67'
p671
aa(lp672
g123
ag124
aS'0.63'
p673
aaaa(lp674
VE9P9L2_YEASX
p675
aVE9P9L2
p676
ag6
aI4932
a(lp677
(lp678
g649
ag650
aS'0.76'
p679
aa(lp680
g653
ag654
aS'0.3'
p681
aa(lp682
g657
ag658
aS'0.25'
p683
aaaa(lp684
VG4XSK3_YEASX
p685
aVG4XSK3
p686
ag6
aI4932
a(lp687
(lp688
VGO:0044212
p689
aVtranscription regulatory region DNA binding
p690
aS'0.93'
p691
aa(lp692
g649
ag650
aS'0.92'
p693
aa(lp694
VGO:0070491
p695
aVrepressing transcription factor binding
p696
aS'0.92'
p697
aa(lp698
VGO:0003713
p699
aVtranscription coactivator activity
p700
aS'0.92'
p701
aaaa(lp702
VH9TZ55_YEASX
p703
aVH9TZ55
p704
ag6
aI4932
a(lp705
(lp706
VGO:0045155
p707
aVelectron transporter, transferring electrons from CoQH2-cytochrome c reductase complex and cytochrome c oxidase complex activity
p708
aS'0.82'
p709
aa(lp710
VGO:0045153
p711
aVelectron transporter, transferring electrons within CoQH2-cytochrome c reductase complex activity
p712
aS'0.82'
p713
aa(lp714
g151
ag152
aS'0.8'
p715
aaaa(lp716
VH9NBI9_YEASX
p717
aVH9NBI9
p718
ag6
aI4932
a(lp719
(lp720
g29
ag30
aS'0.51'
p721
aa(lp722
g17
ag18
aS'0.39'
p723
aaaa(lp724
VH9TYV6_YEASX
p725
aVH9TYV6
p726
ag6
aI4932
a(lp727
(lp728
g151
ag152
aS'0.74'
p729
aaaa(lp730
VH9NBH7_YEASX
p731
aVH9NBH7
p732
ag6
aI4932
a(lp733
(lp734
g17
ag18
aS'0.73'
p735
aa(lp736
g21
ag22
aS'0.54'
p737
aa(lp738
g25
ag26
aS'0.53'
p739
aa(lp740
g29
ag30
aS'0.51'
p741
aa(lp742
g33
ag34
aS'0.49'
p743
aa(lp744
g37
ag38
aS'0.49'
p745
aa(lp746
g41
ag42
aS'0.49'
p747
aaaa(lp748
VG4XSN9_YEASX
p749
aVG4XSN9
p750
ag6
aI4932
a(lp751
(lp752
g473
ag474
aS'0.93'
p753
aa(lp754
g477
ag478
aS'0.13'
p755
aaaa(lp756
VMATA2_YEASX
p757
aVP0CY12
p758
ag6
aI4932
a(lp759
(lp760
VGO:0000980
p761
aVRNA polymerase II distal enhancer sequence-specific DNA binding
p762
aS'0.72'
p763
aa(lp764
VGO:0003727
p765
aVsingle-stranded RNA binding
p766
aS'0.02'
p767
aa(lp768
VGO:0000979
p769
aVRNA polymerase II core promoter sequence-specific DNA binding
p770
aS'0.02'
p771
aa(lp772
VGO:0003730
p773
aVmRNA 3'-UTR binding
p774
aS'0.02'
p775
aa(lp776
VGO:0000983
p777
aVRNA polymerase II core promoter sequence-specific DNA binding transcription factor activity
p778
aS'0.02'
p779
aa(lp780
g57
ag58
aS'0.02'
p781
aa(lp782
VGO:0017025
p783
aVTBP-class protein binding
p784
aS'0.02'
p785
aa(lp786
g53
ag54
aS'0.02'
p787
aa(lp788
VGO:0010736
p789
aVserum response element binding
p790
aS'0.02'
p791
aa(lp792
VGO:0008301
p793
aVDNA binding, bending
p794
aS'0.02'
p795
aa(lp796
VGO:0030284
p797
aVestrogen receptor activity
p798
aS'0.02'
p799
aa(lp800
VGO:0001190
p801
aVRNA polymerase II transcription factor binding transcription factor activity involved in positive regulation of transcription
p802
aS'0.02'
p803
aa(lp804
VGO:0030295
p805
aVprotein kinase activator activity
p806
aS'0.02'
p807
aa(lp808
VGO:0032403
p809
aVprotein complex binding
p810
aS'0.02'
p811
aa(lp812
VGO:0001205
p813
aVRNA polymerase II distal enhancer sequence-specific DNA binding transcription factor activity involved in positive regulation of transcription
p814
aS'0.02'
p815
aa(lp816
VGO:0030331
p817
aVestrogen receptor binding
p818
aS'0.02'
p819
aa(lp820
VGO:0043621
p821
aVprotein self-association
p822
aS'0.02'
p823
aa(lp824
VGO:0002039
p825
aVp53 binding
p826
aS'0.02'
p827
aa(lp828
VGO:0033613
p829
aVactivating transcription factor binding
p830
aS'0.02'
p831
aa(lp832
VGO:0031490
p833
aVchromatin DNA binding
p834
aS'0.02'
p835
aa(lp836
g695
ag696
aS'0.02'
p837
aa(lp838
VGO:0030371
p839
aVtranslation repressor activity
p840
aS'0.02'
p841
aa(lp842
g547
ag548
aS'0.02'
p843
aa(lp844
VGO:0071837
p845
aVHMG box domain binding
p846
aS'0.02'
p847
aa(lp848
g439
ag440
aS'0.02'
p849
aa(lp850
VGO:0001078
p851
aVRNA polymerase II core promoter proximal region sequence-specific DNA binding transcription factor activity involved in negative regulation of transcription
p852
aS'0.02'
p853
aa(lp854
VGO:0097162
p855
aVMADS box domain binding
p856
aS'0.02'
p857
aa(lp858
VGO:0008190
p859
aVeukaryotic initiation factor 4E binding
p860
aS'0.02'
p861
aa(lp862
g293
ag294
aS'0.02'
p863
aa(lp864
VGO:0003714
p865
aVtranscription corepressor activity
p866
aS'0.02'
p867
aa(lp868
VGO:0001104
p869
aVRNA polymerase II transcription cofactor activity
p870
aS'0.02'
p871
aa(lp872
VGO:0004882
p873
aVandrogen receptor activity
p874
aS'0.02'
p875
aa(lp876
VGO:0008656
p877
aVcysteine-type endopeptidase activator activity involved in apoptotic process
p878
aS'0.02'
p879
aa(lp880
g431
ag432
aS'0.02'
p881
aa(lp882
g699
ag700
aS'0.02'
p883
aa(lp884
VGO:0016015
p885
aVmorphogen activity
p886
aS'0.02'
p887
aaaa(lp888
VH9BH76_YEASX
p889
aVH9BH76
p890
ag6
aI4932
a(lp891
(lp892
g25
ag26
aS'0.82'
p893
aa(lp894
g269
ag270
aS'0.82'
p895
aa(lp896
g227
ag228
aS'0.8'
p897
aa(lp898
g127
ag128
aS'0.73'
p899
aa(lp900
g123
ag124
aS'0.62'
p901
aaaa(lp902
VH9NBJ3_YEASX
p903
aVH9NBJ3
p904
ag6
aI4932
a(lp905
(lp906
g17
ag18
aS'0.71'
p907
aa(lp908
g21
ag22
aS'0.54'
p909
aa(lp910
g25
ag26
aS'0.53'
p911
aa(lp912
g29
ag30
aS'0.51'
p913
aa(lp914
g33
ag34
aS'0.49'
p915
aa(lp916
g37
ag38
aS'0.49'
p917
aa(lp918
g41
ag42
aS'0.49'
p919
aaaa(lp920
VE9P9N7_YEASX
p921
aVE9P9N7
p922
ag6
aI4932
a(lp923
(lp924
VGO:0004934
p925
aVmating-type alpha-factor pheromone receptor activity
p926
aS'0.82'
p927
aa(lp928
g151
ag152
aS'0.78'
p929
aaaa(lp930
VE9P9D6_YEASX
p931
aVE9P9D6
p932
ag6
aI4932
a(lp933
(lp934
VGO:0004164
p935
aVdiphthine synthase activity
p936
aS'0.88'
p937
aa(lp938
VGO:0070677
p939
aVrRNA (cytosine-2'-O-)-methyltransferase activity
p940
aS'0.85'
p941
aaaa(lp942
VD5MS19_YEASX
p943
aVD5MS19
p944
ag6
aI4932
a(lp945
(lp946
g251
ag252
aS'0.94'
p947
aa(lp948
g255
ag256
aS'0.64'
p949
aa(lp950
g259
ag260
aS'0.64'
p951
aaaa(lp952
VH9NBH1_YEASX
p953
aVH9NBH1
p954
ag6
aI4932
a(lp955
(lp956
g17
ag18
aS'0.67'
p957
aa(lp958
g21
ag22
aS'0.54'
p959
aa(lp960
g25
ag26
aS'0.53'
p961
aa(lp962
g29
ag30
aS'0.51'
p963
aa(lp964
g33
ag34
aS'0.49'
p965
aa(lp966
g37
ag38
aS'0.49'
p967
aa(lp968
g41
ag42
aS'0.49'
p969
aaaa(lp970
VG5CCW0_YEASX
p971
aVG5CCW0
p972
ag6
aI4932
a(lp973
(lp974
VGO:0016646
p975
aVoxidoreductase activity, acting on the CH-NH group of donors, NAD or NADP as acceptor
p976
aS'0.91'
p977
aa(lp978
VGO:0005496
p979
aVsteroid binding
p980
aS'0.86'
p981
aa(lp982
VGO:0003959
p983
aVNADPH dehydrogenase activity
p984
aS'0.86'
p985
aa(lp986
VGO:0042562
p987
aVhormone binding
p988
aS'0.86'
p989
aa(lp990
VGO:0008748
p991
aVN-ethylmaleimide reductase activity
p992
aS'0.85'
p993
aa(lp994
g435
ag436
aS'0.85'
p995
aa(lp996
VGO:0016629
p997
aV12-oxophytodienoate reductase activity
p998
aS'0.85'
p999
aa(lp1000
VGO:0046857
p1001
aVoxidoreductase activity, acting on other nitrogenous compounds as donors, with NAD or NADP as acceptor
p1002
aS'0.85'
p1003
aaaa(lp1004
VE9P9G8_YEASX
p1005
aVE9P9G8
p1006
ag6
aI4932
a(lp1007
(lp1008
VGO:0005355
p1009
aVglucose transmembrane transporter activity
p1010
aS'0.7'
p1011
aa(lp1012
g155
ag156
aS'0.51'
p1013
aaaa(lp1014
VD3J7V5_YEASX
p1015
aVD3J7V5
p1016
ag6
aI4932
a(lp1017
(lp1018
g57
ag58
aS'0.54'
p1019
aa(lp1020
g123
ag124
aS'0.42'
p1021
aa(lp1022
VGO:0051087
p1023
aVchaperone binding
p1024
aS'0.39'
p1025
aaaa(lp1026
VD3W8P1_YEASX
p1027
aVD3W8P1
p1028
ag6
aI4932
a(lp1029
(lp1030
g327
ag328
aS'0.83'
p1031
aa(lp1032
g331
ag332
aS'0.22'
p1033
aa(lp1034
g335
ag336
aS'0.22'
p1035
aa(lp1036
g339
ag340
aS'0.22'
p1037
aa(lp1038
g151
ag152
aS'0.22'
p1039
aa(lp1040
g345
ag346
aS'0.22'
p1041
aa(lp1042
g349
ag350
aS'0.22'
p1043
aa(lp1044
g353
ag354
aS'0.22'
p1045
aaaa(lp1046
VB2KKZ1_YEASX
p1047
aVB2KKZ1
p1048
ag6
aI4932
a(lp1049
(lp1050
g473
ag474
aS'0.93'
p1051
aa(lp1052
g477
ag478
aS'0.13'
p1053
aaaa(lp1054
VMATA1_YEASX
p1055
aVP0CY10
p1056
ag6
aI4932
a(lp1057
(lp1058
VGO:0043565
p1059
aVsequence-specific DNA binding
p1060
aS'0.8'
p1061
aa(lp1062
g829
ag830
aS'0.18'
p1063
aa(lp1064
VGO:0003682
p1065
aVchromatin binding
p1066
aS'0.18'
p1067
aa(lp1068
g439
ag440
aS'0.18'
p1069
aa(lp1070
g293
ag294
aS'0.18'
p1071
aa(lp1072
g547
ag548
aS'0.18'
p1073
aa(lp1074
g57
ag58
aS'0.18'
p1075
aa(lp1076
g809
ag810
aS'0.18'
p1077
aa(lp1078
VGO:0003705
p1079
aVRNA polymerase II distal enhancer sequence-specific DNA binding transcription factor activity
p1080
aS'0.18'
p1081
aa(lp1082
VGO:0005102
p1083
aVreceptor binding
p1084
aS'0.18'
p1085
aa(lp1086
VGO:0001159
p1087
aVcore promoter proximal region DNA binding
p1088
aS'0.18'
p1089
aa(lp1090
g699
ag700
aS'0.18'
p1091
aaaa(lp1092
VE9P8D5_YEASX
p1093
aVE9P8D5
p1094
ag6
aI4932
a(lp1095
(lp1096
VGO:0046961
p1097
aVproton-transporting ATPase activity, rotational mechanism
p1098
aS'0.87'
p1099
aa(lp1100
VGO:0004520
p1101
aVendodeoxyribonuclease activity
p1102
aS'0.86'
p1103
aa(lp1104
VGO:0042288
p1105
aVMHC class I protein binding
p1106
aS'0.86'
p1107
aa(lp1108
VGO:0046933
p1109
aVproton-transporting ATP synthase activity, rotational mechanism
p1110
aS'0.8'
p1111
aaaa(lp1112
VH1AB59_YEASX
p1113
aVH1AB59
p1114
ag6
aI4932
a(lp1115
(lp1116
VGO:0003873
p1117
aV6-phosphofructo-2-kinase activity
p1118
aS'0.45'
p1119
aa(lp1120
VGO:0046538
p1121
aV2,3-bisphosphoglycerate-dependent phosphoglycerate mutase activity
p1122
aS'0.38'
p1123
aaaa(lp1124
VC9K4V0_YEASX
p1125
aVC9K4V0
p1126
ag6
aI4932
a(lp1127
(lp1128
g251
ag252
aS'0.94'
p1129
aa(lp1130
g255
ag256
aS'0.79'
p1131
aa(lp1132
g259
ag260
aS'0.79'
p1133
aaaa(lp1134
VE9P8I8_YEASX
p1135
aVE9P8I8
p1136
ag6
aI4932
a(lp1137
(lp1138
g151
ag152
aS'0.74'
p1139
aa(lp1140
g155
ag156
aS'0.46'
p1141
aaaa(lp1142
VG4XSB4_YEASX
p1143
aVG4XSB4
p1144
ag6
aI4932
a(lp1145
(lp1146
g485
ag486
aS'0.94'
p1147
aa(lp1148
g489
ag490
aS'0.8'
p1149
aa(lp1150
VGO:0045127
p1151
aVN-acetylglucosamine kinase activity
p1152
aS'0.67'
p1153
aa(lp1154
VGO:0005536
p1155
aVglucose binding
p1156
aS'0.66'
p1157
aa(lp1158
g151
ag152
aS'0.66'
p1159
aa(lp1160
g555
ag556
aS'0.66'
p1161
aaaa(lp1162
VE9P9E7_YEASX
p1163
aVE9P9E7
p1164
ag6
aI4932
a(lp1165
(lp1166
g29
ag30
aS'0.52'
p1167
aa(lp1168
g17
ag18
aS'0.24'
p1169
aaaa(lp1170
VE9P8E7_YEASX
p1171
aVE9P8E7
p1172
ag6
aI4932
a(lp1173
(lp1174
VGO:0005537
p1175
aVmannose binding
p1176
aS'0.83'
p1177
aa(lp1178
VGO:0008376
p1179
aVacetylgalactosaminyltransferase activity
p1180
aS'0.26'
p1181
aaaa(lp1182
VE9P977_YEASX
p1183
aVE9P977
p1184
ag6
aI4932
a(lp1185
(lp1186
g123
ag124
aS'0.83'
p1187
aaaa(lp1188
VE9P8N9_YEASX
p1189
aVE9P8N9
p1190
ag6
aI4932
a(lp1191
(lp1192
g123
ag124
aS'0.68'
p1193
aa(lp1194
g127
ag128
aS'0.28'
p1195
aaaa(lp1196
VH9TW38_YEASX
p1197
aVH9TW38
p1198
ag6
aI4932
a(lp1199
(lp1200
g151
ag152
aS'0.69'
p1201
aa(lp1202
g699
ag700
aS'0.05'
p1203
aaaa(lp1204
VH9NBH4_YEASX
p1205
aVH9NBH4
p1206
ag6
aI4932
a(lp1207
(lp1208
g17
ag18
aS'0.67'
p1209
aa(lp1210
g21
ag22
aS'0.54'
p1211
aa(lp1212
g25
ag26
aS'0.53'
p1213
aa(lp1214
g29
ag30
aS'0.51'
p1215
aa(lp1216
g33
ag34
aS'0.49'
p1217
aa(lp1218
g37
ag38
aS'0.49'
p1219
aa(lp1220
g41
ag42
aS'0.49'
p1221
aaaa(lp1222
VQ2VQ91_YEASX
p1223
aVQ2VQ91
p1224
ag6
aI4932
a(lp1225
(lp1226
g439
ag440
aS'0.69'
p1227
aa(lp1228
g653
ag654
aS'0.25'
p1229
aa(lp1230
g657
ag658
aS'0.22'
p1231
aaaa(lp1232
VE9P8N3_YEASX
p1233
aVE9P8N3
p1234
ag6
aI4932
a(lp1235
(lp1236
g497
ag498
aS'0.69'
p1237
aaaa(lp1238
VH9BH81_YEASX
p1239
aVH9BH81
p1240
ag6
aI4932
a(lp1241
(lp1242
g25
ag26
aS'0.82'
p1243
aa(lp1244
g269
ag270
aS'0.81'
p1245
aa(lp1246
g227
ag228
aS'0.81'
p1247
aa(lp1248
g127
ag128
aS'0.76'
p1249
aaaa(lp1250
VE9P8P5_YEASX
p1251
aVE9P8P5
p1252
ag6
aI4932
a(lp1253
(lp1254
g123
ag124
aS'0.7'
p1255
aa(lp1256
g127
ag128
aS'0.07'
p1257
aaaa(lp1258
VH9TT69_YEASX
p1259
aVH9TT69
p1260
ag6
aI4932
a(lp1261
(lp1262
VGO:0034041
p1263
aVsterol-transporting ATPase activity
p1264
aS'0.22'
p1265
aa(lp1266
g215
ag216
aS'0.17'
p1267
aa(lp1268
VGO:0017127
p1269
aVcholesterol transporter activity
p1270
aS'0.16'
p1271
aaaa(lp1272
VD3W8P6_YEASX
p1273
aVD3W8P6
p1274
ag6
aI4932
a(lp1275
(lp1276
g327
ag328
aS'0.86'
p1277
aa(lp1278
g331
ag332
aS'0.04'
p1279
aa(lp1280
g335
ag336
aS'0.04'
p1281
aa(lp1282
g339
ag340
aS'0.04'
p1283
aa(lp1284
g151
ag152
aS'0.04'
p1285
aa(lp1286
g345
ag346
aS'0.04'
p1287
aa(lp1288
g349
ag350
aS'0.04'
p1289
aa(lp1290
g353
ag354
aS'0.04'
p1291
aaaa(lp1292
VE9P8S3_YEASX
p1293
aVE9P8S3
p1294
ag6
aI4932
a(lp1295
(lp1296
g127
ag128
aS'0.72'
p1297
aa(lp1298
g123
ag124
aS'0.65'
p1299
aaaa(lp1300
VA0SXJ2_YEASX
p1301
aVA0SXJ2
p1302
ag6
aI4932
a(lp1303
(lp1304
VGO:0003958
p1305
aVNADPH-hemoprotein reductase activity
p1306
aS'0.8'
p1307
aa(lp1308
VGO:0004783
p1309
aVsulfite reductase (NADPH) activity
p1310
aS'0.72'
p1311
aaaa(lp1312
VE9P8N5_YEASX
p1313
aVE9P8N5
p1314
ag6
aI4932
a(lp1315
(lp1316
g123
ag124
aS'0.7'
p1317
aa(lp1318
g127
ag128
aS'0.01'
p1319
aaaa(lp1320
VE9P9N4_YEASX
p1321
aVE9P9N4
p1322
ag6
aI4932
a(lp1323
(lp1324
g925
ag926
aS'0.82'
p1325
aa(lp1326
g151
ag152
aS'0.69'
p1327
aaaa(lp1328
VENS2_YEASX
p1329
aVP12294
p1330
ag6
aI4932
a(lp1331
(lp1332
VGO:0003723
p1333
aVRNA binding
p1334
aS'0.89'
p1335
aa(lp1336
g9
ag10
aS'0.89'
p1337
aaaa(lp1338
VE9P8H1_YEASX
p1339
aVE9P8H1
p1340
ag6
aI4932
a(lp1341
(lp1342
g285
ag286
aS'0.94'
p1343
aa(lp1344
g289
ag290
aS'0.94'
p1345
aa(lp1346
g293
ag294
aS'0.94'
p1347
aa(lp1348
g297
ag298
aS'0.94'
p1349
aa(lp1350
g301
ag302
aS'0.94'
p1351
aa(lp1352
g305
ag306
aS'0.94'
p1353
aa(lp1354
g57
ag58
aS'0.94'
p1355
aa(lp1356
g311
ag312
aS'0.94'
p1357
aa(lp1358
g315
ag316
aS'0.94'
p1359
aa(lp1360
g319
ag320
aS'0.94'
p1361
aaaa(lp1362
VH9NBB8_YEASX
p1363
aVH9NBB8
p1364
ag6
aI4932
a(lp1365
(lp1366
VGO:0045296
p1367
aVcadherin binding
p1368
aS'0.81'
p1369
aa(lp1370
VGO:0005506
p1371
aViron ion binding
p1372
aS'0.81'
p1373
aa(lp1374
VGO:0008601
p1375
aVprotein phosphatase type 2A regulator activity
p1376
aS'0.81'
p1377
aa(lp1378
g547
ag548
aS'0.81'
p1379
aa(lp1380
VGO:0003823
p1381
aVantigen binding
p1382
aS'0.81'
p1383
aa(lp1384
g57
ag58
aS'0.81'
p1385
aa(lp1386
VGO:0019135
p1387
aVdeoxyhypusine monooxygenase activity
p1388
aS'0.81'
p1389
aaaa(lp1390
VE9P9X5_YEASX
p1391
aVE9P9X5
p1392
ag6
aI4932
a(lp1393
(lp1394
VGO:0046583
p1395
aVcation efflux transmembrane transporter activity
p1396
aS'0.8'
p1397
aa(lp1398
VGO:0086039
p1399
aVcalcium-transporting ATPase activity involved in regulation of cardiac muscle cell membrane potential
p1400
aS'0.47'
p1401
aa(lp1402
g57
ag58
aS'0.47'
p1403
aa(lp1404
g243
ag244
aS'0.47'
p1405
aa(lp1406
VGO:0044548
p1407
aVS100 protein binding
p1408
aS'0.47'
p1409
aa(lp1410
g605
ag606
aS'0.47'
p1411
aa(lp1412
VGO:0019899
p1413
aVenzyme binding
p1414
aS'0.47'
p1415
aa(lp1416
VGO:0005516
p1417
aVcalmodulin binding
p1418
aS'0.47'
p1419
aa(lp1420
VGO:0030165
p1421
aVPDZ domain binding
p1422
aS'0.47'
p1423
aa(lp1424
g555
ag556
aS'0.47'
p1425
aaaa(lp1426
VH9TTR5_YEASX
p1427
aVH9TTR5
p1428
ag6
aI4932
a(lp1429
(lp1430
VGO:0004810
p1431
aVtRNA adenylyltransferase activity
p1432
aS'0.94'
p1433
aa(lp1434
VGO:0004652
p1435
aVpolynucleotide adenylyltransferase activity
p1436
aS'0.89'
p1437
aa(lp1438
VGO:0016437
p1439
aVtRNA cytidylyltransferase activity
p1440
aS'0.87'
p1441
aa(lp1442
VGO:0000049
p1443
aVtRNA binding
p1444
aS'0.87'
p1445
aa(lp1446
g555
ag556
aS'0.87'
p1447
aaaa(lp1448
VH9NBH5_YEASX
p1449
aVH9NBH5
p1450
ag6
aI4932
a(lp1451
(lp1452
g17
ag18
aS'0.74'
p1453
aa(lp1454
g21
ag22
aS'0.54'
p1455
aa(lp1456
g25
ag26
aS'0.53'
p1457
aa(lp1458
g29
ag30
aS'0.51'
p1459
aa(lp1460
g33
ag34
aS'0.49'
p1461
aa(lp1462
g37
ag38
aS'0.49'
p1463
aa(lp1464
g41
ag42
aS'0.49'
p1465
aaaa(lp1466
VB5LST7_YEASX
p1467
aVB5LST7
p1468
ag6
aI4932
a(lp1469
(lp1470
VGO:0004367
p1471
aVglycerol-3-phosphate dehydrogenase [NAD+] activity
p1472
aS'0.93'
p1473
aa(lp1474
VGO:0047952
p1475
aVglycerol-3-phosphate dehydrogenase [NAD(P)+] activity
p1476
aS'0.1'
p1477
aa(lp1478
VGO:0044325
p1479
aVion channel binding
p1480
aS'0.09'
p1481
aa(lp1482
VGO:0017080
p1483
aVsodium channel regulator activity
p1484
aS'0.09'
p1485
aaaa(lp1486
VE9P8F6_YEASX
p1487
aVE9P8F6
p1488
ag6
aI4932
a(lp1489
(lp1490
g431
ag432
aS'0.89'
p1491
aa(lp1492
g439
ag440
aS'0.66'
p1493
aa(lp1494
g435
ag436
aS'0.55'
p1495
aa(lp1496
g443
ag444
aS'0.52'
p1497
aaaa(lp1498
VD6C7G4_YEASX
p1499
aVD6C7G4
p1500
ag6
aI4932
a(lp1501
(lp1502
VGO:0008705
p1503
aVmethionine synthase activity
p1504
aS'0.86'
p1505
aa(lp1506
VGO:0003871
p1507
aV5-methyltetrahydropteroyltriglutamate-homocysteine S-methyltransferase activity
p1508
aS'0.84'
p1509
aaaa(lp1510
VB2NIG2_YEASX
p1511
aVB2NIG2
p1512
ag6
aI4932
a(lp1513
(lp1514
VGO:0008694
p1515
aV3-octaprenyl-4-hydroxybenzoate carboxy-lyase activity
p1516
aS'0.9'
p1517
aa(lp1518
VGO:0016491
p1519
aVoxidoreductase activity
p1520
aS'0.47'
p1521
aa(lp1522
VGO:0004633
p1523
aVphosphopantothenoylcysteine decarboxylase activity
p1524
aS'0.44'
p1525
aa(lp1526
VGO:0010181
p1527
aVFMN binding
p1528
aS'0.41'
p1529
aa(lp1530
VGO:0004632
p1531
aVphosphopantothenate--cysteine ligase activity
p1532
aS'0.41'
p1533
aaaa(lp1534
VB0M8X6_YEASX
p1535
aVB0M8X6
p1536
ag6
aI4932
a(lp1537
(lp1538
g431
ag432
aS'0.89'
p1539
aa(lp1540
g439
ag440
aS'0.68'
p1541
aa(lp1542
g435
ag436
aS'0.58'
p1543
aa(lp1544
g443
ag444
aS'0.55'
p1545
aa(lp1546
g447
ag448
aS'0.52'
p1547
aaaa(lp1548
VB5LYQ1_YEASX
p1549
aVB5LYQ1
p1550
ag6
aI4932
a(lp1551
(lp1552
VGO:0004614
p1553
aVphosphoglucomutase activity
p1554
aS'0.95'
p1555
aa(lp1556
VGO:0004615
p1557
aVphosphomannomutase activity
p1558
aS'0.17'
p1559
aa(lp1560
VGO:0005198
p1561
aVstructural molecule activity
p1562
aS'0.17'
p1563
aa(lp1564
g151
ag152
aS'0.17'
p1565
aa(lp1566
VGO:0008966
p1567
aVphosphoglucosamine mutase activity
p1568
aS'0.17'
p1569
aa(lp1570
VGO:0047933
p1571
aVglucose-1,6-bisphosphate synthase activity
p1572
aS'0.17'
p1573
aa(lp1574
VGO:0008973
p1575
aVphosphopentomutase activity
p1576
aS'0.17'
p1577
aaaa(lp1578
VQ7LMB5_YEASX
p1579
aVQ7LMB5
p1580
ag6
aI4932
a(lp1581
(lp1582
g285
ag286
aS'0.94'
p1583
aa(lp1584
g289
ag290
aS'0.94'
p1585
aa(lp1586
g293
ag294
aS'0.94'
p1587
aa(lp1588
g297
ag298
aS'0.94'
p1589
aa(lp1590
g301
ag302
aS'0.94'
p1591
aa(lp1592
g305
ag306
aS'0.94'
p1593
aa(lp1594
g57
ag58
aS'0.94'
p1595
aa(lp1596
g311
ag312
aS'0.94'
p1597
aa(lp1598
g315
ag316
aS'0.94'
p1599
aa(lp1600
g319
ag320
aS'0.94'
p1601
aaaa(lp1602
VG4XS77_YEASX
p1603
aVG4XS77
p1604
ag6
aI4932
a(lp1605
(lp1606
g485
ag486
aS'0.95'
p1607
aa(lp1608
g489
ag490
aS'0.64'
p1609
aaaa(lp1610
VE9P9D0_YEASX
p1611
aVE9P9D0
p1612
ag6
aI4932
a(lp1613
(lp1614
g1305
ag1306
aS'0.92'
p1615
aa(lp1616
g1309
ag1310
aS'0.3'
p1617
aaaa(lp1618
VE9P8K6_YEASX
p1619
aVE9P8K6
p1620
ag6
aI4932
a(lp1621
(lp1622
g151
ag152
aS'0.75'
p1623
aa(lp1624
g155
ag156
aS'0.4'
p1625
aaaa(lp1626
VH9NBL4_YEASX
p1627
aVH9NBL4
p1628
ag6
aI4932
a(lp1629
(lp1630
g17
ag18
aS'0.71'
p1631
aa(lp1632
g21
ag22
aS'0.54'
p1633
aa(lp1634
g25
ag26
aS'0.53'
p1635
aa(lp1636
g29
ag30
aS'0.51'
p1637
aa(lp1638
g33
ag34
aS'0.49'
p1639
aa(lp1640
g37
ag38
aS'0.49'
p1641
aa(lp1642
g41
ag42
aS'0.49'
p1643
aaaa(lp1644
VH9NBF9_YEASX
p1645
aVH9NBF9
p1646
ag6
aI4932
a(lp1647
(lp1648
g17
ag18
aS'0.66'
p1649
aa(lp1650
g21
ag22
aS'0.54'
p1651
aa(lp1652
g25
ag26
aS'0.53'
p1653
aa(lp1654
g29
ag30
aS'0.51'
p1655
aa(lp1656
g33
ag34
aS'0.49'
p1657
aa(lp1658
g37
ag38
aS'0.49'
p1659
aa(lp1660
g41
ag42
aS'0.49'
p1661
aaaa(lp1662
VG8EXD4_YEASX
p1663
aVG8EXD4
p1664
ag6
aI4932
a(lp1665
(lp1666
g627
ag628
aS'0.92'
p1667
aa(lp1668
g631
ag632
aS'0.13'
p1669
aa(lp1670
g57
ag58
aS'0.13'
p1671
aa(lp1672
g551
ag552
aS'0.13'
p1673
aaaa(lp1674
VG8EXD2_YEASX
p1675
aVG8EXD2
p1676
ag6
aI4932
a(lp1677
(lp1678
g627
ag628
aS'0.92'
p1679
aa(lp1680
g631
ag632
aS'0.13'
p1681
aa(lp1682
g57
ag58
aS'0.13'
p1683
aa(lp1684
g551
ag552
aS'0.13'
p1685
aaaa(lp1686
VE9P8R7_YEASX
p1687
aVE9P8R7
p1688
ag6
aI4932
a(lp1689
(lp1690
g135
ag136
aS'0.95'
p1691
aa(lp1692
g139
ag140
aS'0.16'
p1693
aa(lp1694
g143
ag144
aS'0.15'
p1695
aaaa(lp1696
VE9P8F0_YEASX
p1697
aVE9P8F0
p1698
ag6
aI4932
a(lp1699
(lp1700
g1515
ag1516
aS'0.9'
p1701
aa(lp1702
g1519
ag1520
aS'0.47'
p1703
aa(lp1704
g1523
ag1524
aS'0.44'
p1705
aa(lp1706
g1527
ag1528
aS'0.41'
p1707
aa(lp1708
g1531
ag1532
aS'0.41'
p1709
aaaa(lp1710
VB3IUC5_YEASX
p1711
aVB3IUC5
p1712
ag6
aI4932
a(lp1713
(lp1714
g327
ag328
aS'0.84'
p1715
aa(lp1716
g331
ag332
aS'0.19'
p1717
aa(lp1718
g335
ag336
aS'0.19'
p1719
aa(lp1720
g339
ag340
aS'0.19'
p1721
aa(lp1722
g151
ag152
aS'0.19'
p1723
aa(lp1724
g345
ag346
aS'0.19'
p1725
aa(lp1726
g349
ag350
aS'0.19'
p1727
aa(lp1728
g353
ag354
aS'0.19'
p1729
aaaa(lp1730
VH1AB68_YEASX
p1731
aVH1AB68
p1732
ag6
aI4932
a(lp1733
(lp1734
g845
ag846
aS'0.88'
p1735
aa(lp1736
VGO:0001133
p1737
aVsequence-specific transcription regulatory region DNA binding RNA polymerase II transcription factor recruiting transcription factor activity
p1738
aS'0.05'
p1739
aa(lp1740
g699
ag700
aS'0.05'
p1741
aa(lp1742
g801
ag802
aS'0.04'
p1743
aa(lp1744
g695
ag696
aS'0.04'
p1745
aa(lp1746
VGO:0001094
p1747
aVTFIID-class transcription factor binding
p1748
aS'0.04'
p1749
aaaa(lp1750
VD5MS15_YEASX
p1751
aVD5MS15
p1752
ag6
aI4932
a(lp1753
(lp1754
g251
ag252
aS'0.94'
p1755
aa(lp1756
g255
ag256
aS'0.49'
p1757
aa(lp1758
g259
ag260
aS'0.49'
p1759
aaaa(lp1760
VE9P9H1_YEASX
p1761
aVE9P9H1
p1762
ag6
aI4932
a(lp1763
(lp1764
g1009
ag1010
aS'0.72'
p1765
aa(lp1766
g155
ag156
aS'0.51'
p1767
aaaa(lp1768
VA0SXK1_YEASX
p1769
aVA0SXK1
p1770
ag6
aI4932
a(lp1771
(lp1772
g935
ag936
aS'0.91'
p1773
aa(lp1774
g939
ag940
aS'0.87'
p1775
aaaa(lp1776
VE9P8K4_YEASX
p1777
aVE9P8K4
p1778
ag6
aI4932
a(lp1779
(lp1780
g151
ag152
aS'0.87'
p1781
aa(lp1782
g1065
ag1066
aS'0.56'
p1783
aa(lp1784
VGO:0004672
p1785
aVprotein kinase activity
p1786
aS'0.56'
p1787
aa(lp1788
g439
ag440
aS'0.56'
p1789
aaaa(lp1790
VH9TYX3_YEASX
p1791
aVH9TYX3
p1792
ag6
aI4932
a(lp1793
(lp1794
g151
ag152
aS'0.74'
p1795
aaaa(lp1796
VE9P8L3_YEASX
p1797
aVE9P8L3
p1798
ag6
aI4932
a(lp1799
(lp1800
g151
ag152
aS'0.74'
p1801
aa(lp1802
g155
ag156
aS'0.19'
p1803
aaaa(lp1804
VD5KUG5_YEASX
p1805
aVD5KUG5
p1806
ag6
aI4932
a(lp1807
(lp1808
VGO:0003985
p1809
aVacetyl-CoA C-acetyltransferase activity
p1810
aS'0.89'
p1811
aa(lp1812
VGO:0004419
p1813
aVhydroxymethylglutaryl-CoA lyase activity
p1814
aS'0.72'
p1815
aaaa(lp1816
VINV5_YEASX
p1817
aVP10597
p1818
ag6
aI4932
a(lp1819
(lp1820
g251
ag252
aS'0.91'
p1821
aa(lp1822
g255
ag256
aS'0.21'
p1823
aa(lp1824
g259
ag260
aS'0.21'
p1825
aaaa(lp1826
VE9P8E6_YEASX
p1827
aVE9P8E6
p1828
ag6
aI4932
a(lp1829
(lp1830
g1175
ag1176
aS'0.82'
p1831
aa(lp1832
g1179
ag1180
aS'0.26'
p1833
aaaa(lp1834
VH9TW15_YEASX
p1835
aVH9TW15
p1836
ag6
aI4932
a(lp1837
(lp1838
g151
ag152
aS'0.69'
p1839
aa(lp1840
g699
ag700
aS'0.08'
p1841
aaaa(lp1842
VE9P9B1_YEASX
p1843
aVE9P9B1
p1844
ag6
aI4932
a(lp1845
(lp1846
VGO:0003735
p1847
aVstructural constituent of ribosome
p1848
aS'0.93'
p1849
aa(lp1850
g443
ag444
aS'0.65'
p1851
aa(lp1852
g151
ag152
aS'0.53'
p1853
aaaa(lp1854
VE7DB83_YEASX
p1855
aVE7DB83
p1856
ag6
aI4932
a(lp1857
(lp1858
VGO:0005391
p1859
aVsodium:potassium-exchanging ATPase activity
p1860
aS'0.89'
p1861
aa(lp1862
g1395
ag1396
aS'0.82'
p1863
aa(lp1864
VGO:0008553
p1865
aVhydrogen-exporting ATPase activity, phosphorylative mechanism
p1866
aS'0.63'
p1867
aaaa(lp1868
VE9P9F9_YEASX
p1869
aVE9P9F9
p1870
ag6
aI4932
a(lp1871
(lp1872
g1009
ag1010
aS'0.85'
p1873
aa(lp1874
VGO:0005365
p1875
aVmyo-inositol transmembrane transporter activity
p1876
aS'0.4'
p1877
aa(lp1878
g17
ag18
aS'0.35'
p1879
aa(lp1880
VGO:0015147
p1881
aVL-arabinose transmembrane transporter activity
p1882
aS'0.35'
p1883
aa(lp1884
VGO:0015517
p1885
aVgalactose:hydrogen symporter activity
p1886
aS'0.35'
p1887
aa(lp1888
g821
ag822
aS'0.35'
p1889
aa(lp1890
VGO:0015150
p1891
aVfucose transmembrane transporter activity
p1892
aS'0.35'
p1893
aa(lp1894
VGO:0015519
p1895
aVD-xylose:hydrogen symporter activity
p1896
aS'0.35'
p1897
aaaa(lp1898
VE9P9G1_YEASX
p1899
aVE9P9G1
p1900
ag6
aI4932
a(lp1901
(lp1902
VGO:0004363
p1903
aVglutathione synthase activity
p1904
aS'0.93'
p1905
aa(lp1906
VGO:0043295
p1907
aVglutathione binding
p1908
aS'0.28'
p1909
aa(lp1910
g551
ag552
aS'0.28'
p1911
aa(lp1912
g57
ag58
aS'0.28'
p1913
aa(lp1914
g555
ag556
aS'0.28'
p1915
aaaa(lp1916
VH9TZ30_YEASX
p1917
aVH9TZ30
p1918
ag6
aI4932
a(lp1919
(lp1920
g707
ag708
aS'0.83'
p1921
aa(lp1922
g711
ag712
aS'0.81'
p1923
aa(lp1924
g151
ag152
aS'0.75'
p1925
aaaa(lp1926
VE9P8K8_YEASX
p1927
aVE9P8K8
p1928
ag6
aI4932
a(lp1929
(lp1930
g151
ag152
aS'0.75'
p1931
aa(lp1932
g155
ag156
aS'0.35'
p1933
aaaa(lp1934
VH9NBI2_YEASX
p1935
aVH9NBI2
p1936
ag6
aI4932
a(lp1937
(lp1938
g17
ag18
aS'0.68'
p1939
aa(lp1940
g21
ag22
aS'0.54'
p1941
aa(lp1942
g25
ag26
aS'0.53'
p1943
aa(lp1944
g29
ag30
aS'0.51'
p1945
aa(lp1946
g33
ag34
aS'0.49'
p1947
aa(lp1948
g37
ag38
aS'0.49'
p1949
aa(lp1950
g41
ag42
aS'0.49'
p1951
aaaa(lp1952
VB5LYR7_YEASX
p1953
aVB5LYR7
p1954
ag6
aI4932
a(lp1955
(lp1956
VGO:0005503
p1957
aVall-trans retinal binding
p1958
aS'0.78'
p1959
aaaa(lp1960
VG8EXF6_YEASX
p1961
aVG8EXF6
p1962
ag6
aI4932
a(lp1963
(lp1964
g649
ag650
aS'0.54'
p1965
aa(lp1966
g653
ag654
aS'0.48'
p1967
aa(lp1968
g657
ag658
aS'0.38'
p1969
aaaa(lp1970
VH9NBG7_YEASX
p1971
aVH9NBG7
p1972
ag6
aI4932
a(lp1973
(lp1974
g17
ag18
aS'0.66'
p1975
aa(lp1976
g21
ag22
aS'0.53'
p1977
aa(lp1978
g25
ag26
aS'0.52'
p1979
aa(lp1980
g29
ag30
aS'0.5'
p1981
aa(lp1982
g33
ag34
aS'0.48'
p1983
aa(lp1984
g37
ag38
aS'0.48'
p1985
aa(lp1986
g41
ag42
aS'0.48'
p1987
aaaa(lp1988
VD2XNA6_YEASX
p1989
aVD2XNA6
p1990
ag6
aI4932
a(lp1991
(lp1992
g151
ag152
aS'0.69'
p1993
aaaa(lp1994
VQ7LJX8_YEASX
p1995
aVQ7LJX8
p1996
ag6
aI4932
a(lp1997
(lp1998
g123
ag124
aS'0.68'
p1999
aa(lp2000
g127
ag128
aS'0.27'
p2001
aaaa(lp2002
VE9P8Q8_YEASX
p2003
aVE9P8Q8
p2004
ag6
aI4932
a(lp2005
(lp2006
g497
ag498
aS'0.69'
p2007
aaaa(lp2008
VE9P9M2_YEASX
p2009
aVE9P9M2
p2010
ag6
aI4932
a(lp2011
(lp2012
g29
ag30
aS'0.48'
p2013
aa(lp2014
g17
ag18
aS'0.12'
p2015
aaaa(lp2016
VE9P982_YEASX
p2017
aVE9P982
p2018
ag6
aI4932
a(lp2019
(lp2020
g551
ag552
aS'0.76'
p2021
aa(lp2022
VGO:0004008
p2023
aVcopper-exporting ATPase activity
p2024
aS'0.75'
p2025
aa(lp2026
VGO:0005507
p2027
aVcopper ion binding
p2028
aS'0.75'
p2029
aa(lp2030
VGO:0016463
p2031
aVzinc-exporting ATPase activity
p2032
aS'0.72'
p2033
aa(lp2034
VGO:0032767
p2035
aVcopper-dependent protein binding
p2036
aS'0.72'
p2037
aa(lp2038
VGO:0008551
p2039
aVcadmium-exporting ATPase activity
p2040
aS'0.72'
p2041
aa(lp2042
g555
ag556
aS'0.71'
p2043
aa(lp2044
VGO:0015087
p2045
aVcobalt ion transmembrane transporter activity
p2046
aS'0.71'
p2047
aa(lp2048
VGO:0015094
p2049
aVlead ion transmembrane transporter activity
p2050
aS'0.71'
p2051
aa(lp2052
VGO:0015099
p2053
aVnickel cation transmembrane transporter activity
p2054
aS'0.71'
p2055
aaaa(lp2056
VE9P8G2_YEASX
p2057
aVE9P8G2
p2058
ag6
aI4932
a(lp2059
(lp2060
g431
ag432
aS'0.89'
p2061
aa(lp2062
g439
ag440
aS'0.66'
p2063
aa(lp2064
g435
ag436
aS'0.63'
p2065
aa(lp2066
g443
ag444
aS'0.6'
p2067
aa(lp2068
g447
ag448
aS'0.57'
p2069
aaaa(lp2070
VH9TYY0_YEASX
p2071
aVH9TYY0
p2072
ag6
aI4932
a(lp2073
(lp2074
g151
ag152
aS'0.74'
p2075
aaaa(lp2076
VG4XS55_YEASX
p2077
aVG4XS55
p2078
ag6
aI4932
a(lp2079
(lp2080
g485
ag486
aS'0.94'
p2081
aa(lp2082
g489
ag490
aS'0.68'
p2083
aaaa(lp2084
VH9BH66_YEASX
p2085
aVH9BH66
p2086
ag6
aI4932
a(lp2087
(lp2088
g25
ag26
aS'0.82'
p2089
aa(lp2090
g269
ag270
aS'0.82'
p2091
aa(lp2092
g227
ag228
aS'0.81'
p2093
aa(lp2094
g127
ag128
aS'0.63'
p2095
aa(lp2096
g123
ag124
aS'0.63'
p2097
aaaa(lp2098
VSTE2_YEASX
p2099
aVP0CI39
p2100
ag6
aI4932
a(lp2101
(lp2102
g925
ag926
aS'0.6'
p2103
aa(lp2104
g151
ag152
aS'0.47'
p2105
aaaa(lp2106
VE9P9I1_YEASX
p2107
aVE9P9I1
p2108
ag6
aI4932
a(lp2109
(lp2110
VGO:0042623
p2111
aVATPase activity, coupled
p2112
aS'0.85'
p2113
aa(lp2114
g57
ag58
aS'0.83'
p2115
aa(lp2116
VGO:0044183
p2117
aVprotein binding involved in protein folding
p2118
aS'0.81'
p2119
aaaa(lp2120
VE9P8K7_YEASX
p2121
aVE9P8K7
p2122
ag6
aI4932
a(lp2123
(lp2124
g151
ag152
aS'0.75'
p2125
aa(lp2126
g155
ag156
aS'0.41'
p2127
aaaa(lp2128
VH9BH65_YEASX
p2129
aVH9BH65
p2130
ag6
aI4932
a(lp2131
(lp2132
g25
ag26
aS'0.83'
p2133
aa(lp2134
g269
ag270
aS'0.78'
p2135
aa(lp2136
g227
ag228
aS'0.78'
p2137
aa(lp2138
g127
ag128
aS'0.74'
p2139
aa(lp2140
g123
ag124
aS'0.61'
p2141
aaaa(lp2142
VH9TT99_YEASX
p2143
aVH9TT99
p2144
ag6
aI4932
a(lp2145
(lp2146
g1263
ag1264
aS'0.22'
p2147
aa(lp2148
VGO:0043531
p2149
aVADP binding
p2150
aS'0.17'
p2151
aa(lp2152
g1269
ag1270
aS'0.16'
p2153
aa(lp2154
g215
ag216
aS'0.14'
p2155
aaaa(lp2156
VH9TYW5_YEASX
p2157
aVH9TYW5
p2158
ag6
aI4932
a(lp2159
(lp2160
g151
ag152
aS'0.74'
p2161
aaaa(lp2162
VE9P9B3_YEASX
p2163
aVE9P9B3
p2164
ag6
aI4932
a(lp2165
(lp2166
VGO:0004591
p2167
aVoxoglutarate dehydrogenase (succinyl-transferring) activity
p2168
aS'0.94'
p2169
aa(lp2170
VGO:0009055
p2171
aVelectron carrier activity
p2172
aS'0.61'
p2173
aa(lp2174
g551
ag552
aS'0.61'
p2175
aa(lp2176
VGO:0050439
p2177
aV2-hydroxy-3-oxoadipate synthase activity
p2178
aS'0.61'
p2179
aa(lp2180
VGO:0008683
p2181
aV2-oxoglutarate decarboxylase activity
p2182
aS'0.61'
p2183
aa(lp2184
VGO:0004739
p2185
aVpyruvate dehydrogenase (acetyl-transferring) activity
p2186
aS'0.61'
p2187
aaaa(lp2188
VQ4KPM4_YEASX
p2189
aVQ4KPM4
p2190
ag6
aI4932
a(lp2191
(lp2192
g711
ag712
aS'0.88'
p2193
aa(lp2194
g707
ag708
aS'0.83'
p2195
aa(lp2196
g151
ag152
aS'0.73'
p2197
aaaa(lp2198
VH9NBH8_YEASX
p2199
aVH9NBH8
p2200
ag6
aI4932
a(lp2201
(lp2202
g17
ag18
aS'0.56'
p2203
aa(lp2204
g21
ag22
aS'0.47'
p2205
aa(lp2206
g25
ag26
aS'0.47'
p2207
aa(lp2208
g29
ag30
aS'0.46'
p2209
aa(lp2210
g33
ag34
aS'0.46'
p2211
aa(lp2212
g37
ag38
aS'0.46'
p2213
aa(lp2214
g41
ag42
aS'0.46'
p2215
aaaa(lp2216
VH9NBL0_YEASX
p2217
aVH9NBL0
p2218
ag6
aI4932
a(lp2219
(lp2220
g17
ag18
aS'0.56'
p2221
aa(lp2222
g21
ag22
aS'0.48'
p2223
aa(lp2224
g29
ag30
aS'0.47'
p2225
aa(lp2226
g25
ag26
aS'0.47'
p2227
aa(lp2228
g33
ag34
aS'0.46'
p2229
aa(lp2230
g37
ag38
aS'0.46'
p2231
aa(lp2232
g41
ag42
aS'0.46'
p2233
aaaa(lp2234
VG5EKG9_YEASX
p2235
aVG5EKG9
p2236
ag6
aI4932
a(lp2237
(lp2238
g251
ag252
aS'0.94'
p2239
aa(lp2240
g255
ag256
aS'0.49'
p2241
aa(lp2242
g259
ag260
aS'0.49'
p2243
aaaa(lp2244
VE9P9A3_YEASX
p2245
aVE9P9A3
p2246
ag6
aI4932
a(lp2247
(lp2248
g605
ag606
aS'0.8'
p2249
aa(lp2250
g443
ag444
aS'0.8'
p2251
aaaa(lp2252
VD7GNM5_YEASX
p2253
aVD7GNM5
p2254
ag6
aI4932
a(lp2255
(lp2256
g29
ag30
aS'0.52'
p2257
aa(lp2258
g17
ag18
aS'0.29'
p2259
aaaa(lp2260
VH9NBM7_YEASX
p2261
aVH9NBM7
p2262
ag6
aI4932
a(lp2263
(lp2264
g17
ag18
aS'0.78'
p2265
aa(lp2266
g21
ag22
aS'0.54'
p2267
aa(lp2268
g25
ag26
aS'0.53'
p2269
aa(lp2270
g29
ag30
aS'0.51'
p2271
aa(lp2272
g33
ag34
aS'0.49'
p2273
aa(lp2274
g37
ag38
aS'0.49'
p2275
aa(lp2276
g41
ag42
aS'0.49'
p2277
aaaa(lp2278
VH9NBF7_YEASX
p2279
aVH9NBF7
p2280
ag6
aI4932
a(lp2281
(lp2282
g17
ag18
aS'0.67'
p2283
aa(lp2284
g21
ag22
aS'0.54'
p2285
aa(lp2286
g25
ag26
aS'0.53'
p2287
aa(lp2288
g29
ag30
aS'0.51'
p2289
aa(lp2290
g33
ag34
aS'0.49'
p2291
aa(lp2292
g37
ag38
aS'0.49'
p2293
aa(lp2294
g41
ag42
aS'0.49'
p2295
aaaa(lp2296
VE9P8P1_YEASX
p2297
aVE9P8P1
p2298
ag6
aI4932
a(lp2299
(lp2300
g123
ag124
aS'0.68'
p2301
aa(lp2302
g127
ag128
aS'0.16'
p2303
aaaa(lp2304
VE3UTP6_YEASX
p2305
aVE3UTP6
p2306
ag6
aI4932
a(lp2307
(lp2308
VGO:0004123
p2309
aVcystathionine gamma-lyase activity
p2310
aS'0.88'
p2311
aa(lp2312
VGO:0004121
p2313
aVcystathionine beta-lyase activity
p2314
aS'0.6'
p2315
aa(lp2316
VGO:0030170
p2317
aVpyridoxal phosphate binding
p2318
aS'0.59'
p2319
aaaa(lp2320
VH9NB81_YEASX
p2321
aVH9NB81
p2322
ag6
aI4932
a(lp2323
(lp2324
g1367
ag1368
aS'0.81'
p2325
aa(lp2326
g1371
ag1372
aS'0.75'
p2327
aa(lp2328
g1375
ag1376
aS'0.75'
p2329
aa(lp2330
g547
ag548
aS'0.75'
p2331
aa(lp2332
g1381
ag1382
aS'0.75'
p2333
aa(lp2334
g57
ag58
aS'0.75'
p2335
aa(lp2336
g1387
ag1388
aS'0.75'
p2337
aaaa(lp2338
VE9P9L8_YEASX
p2339
aVE9P9L8
p2340
ag6
aI4932
a(lp2341
(lp2342
VGO:0008106
p2343
aValcohol dehydrogenase (NADP+) activity
p2344
aS'0.84'
p2345
aa(lp2346
VGO:0033705
p2347
aVGDP-4-dehydro-6-deoxy-D-mannose reductase activity
p2348
aS'0.7'
p2349
aaaa(lp2350
VE9P8R8_YEASX
p2351
aVE9P8R8
p2352
ag6
aI4932
a(lp2353
(lp2354
VGO:0043495
p2355
aVprotein anchor
p2356
aS'0.86'
p2357
aaaa(lp2358
VQ4KPY2_YEASX
p2359
aVQ4KPY2
p2360
ag6
aI4932
a(lp2361
(lp2362
g151
ag152
aS'0.77'
p2363
aa(lp2364
VGO:0008494
p2365
aVtranslation activator activity
p2366
aS'0.45'
p2367
aa(lp2368
VGO:0008135
p2369
aVtranslation factor activity, nucleic acid binding
p2370
aS'0.45'
p2371
aa(lp2372
VGO:0005215
p2373
aVtransporter activity
p2374
aS'0.45'
p2375
aa(lp2376
VGO:0043022
p2377
aVribosome binding
p2378
aS'0.45'
p2379
aa(lp2380
g555
ag556
aS'0.45'
p2381
aa(lp2382
g143
ag144
aS'0.45'
p2383
aa(lp2384
VGO:0016887
p2385
aVATPase activity
p2386
aS'0.45'
p2387
aaaa(lp2388
VG4XSP3_YEASX
p2389
aVG4XSP3
p2390
ag6
aI4932
a(lp2391
(lp2392
g473
ag474
aS'0.93'
p2393
aa(lp2394
g477
ag478
aS'0.13'
p2395
aaaa(lp2396
VE9P8I5_YEASX
p2397
aVE9P8I5
p2398
ag6
aI4932
a(lp2399
(lp2400
g57
ag58
aS'0.77'
p2401
aa(lp2402
VGO:0000149
p2403
aVSNARE binding
p2404
aS'0.77'
p2405
aaaa(lp2406
VE9P9L9_YEASX
p2407
aVE9P9L9
p2408
ag6
aI4932
a(lp2409
(lp2410
g1903
ag1904
aS'0.92'
p2411
aa(lp2412
g1907
ag1908
aS'0.54'
p2413
aa(lp2414
g551
ag552
aS'0.54'
p2415
aa(lp2416
g57
ag58
aS'0.54'
p2417
aa(lp2418
g555
ag556
aS'0.54'
p2419
aaaa(lp2420
VH9NBB5_YEASX
p2421
aVH9NBB5
p2422
ag6
aI4932
a(lp2423
(lp2424
g1367
ag1368
aS'0.84'
p2425
aa(lp2426
g547
ag548
aS'0.3'
p2427
aa(lp2428
g57
ag58
aS'0.3'
p2429
aa(lp2430
g1371
ag1372
aS'0.27'
p2431
aa(lp2432
g1375
ag1376
aS'0.27'
p2433
aa(lp2434
g1381
ag1382
aS'0.27'
p2435
aa(lp2436
g1387
ag1388
aS'0.27'
p2437
aaaa(lp2438
VE9P8M3_YEASX
p2439
aVE9P8M3
p2440
ag6
aI4932
a(lp2441
(lp2442
g563
ag564
aS'0.94'
p2443
aa(lp2444
g57
ag58
aS'0.5'
p2445
aa(lp2446
g569
ag570
aS'0.49'
p2447
aa(lp2448
g573
ag574
aS'0.49'
p2449
aaaa(lp2450
VH9TT79_YEASX
p2451
aVH9TT79
p2452
ag6
aI4932
a(lp2453
(lp2454
g1263
ag1264
aS'0.22'
p2455
aa(lp2456
g1269
ag1270
aS'0.17'
p2457
aa(lp2458
g215
ag216
aS'0.15'
p2459
aa(lp2460
g57
ag58
aS'0.13'
p2461
aaaa(lp2462
VQ4KPY4_YEASX
p2463
aVQ4KPY4
p2464
ag6
aI4932
a(lp2465
(lp2466
g151
ag152
aS'0.77'
p2467
aa(lp2468
g2365
ag2366
aS'0.71'
p2469
aa(lp2470
g2369
ag2370
aS'0.71'
p2471
aa(lp2472
g2373
ag2374
aS'0.71'
p2473
aa(lp2474
g2377
ag2378
aS'0.71'
p2475
aa(lp2476
g555
ag556
aS'0.71'
p2477
aa(lp2478
g143
ag144
aS'0.71'
p2479
aa(lp2480
g2385
ag2386
aS'0.71'
p2481
aaaa(lp2482
VB2NIF8_YEASX
p2483
aVB2NIF8
p2484
ag6
aI4932
a(lp2485
(lp2486
g1515
ag1516
aS'0.91'
p2487
aa(lp2488
g1519
ag1520
aS'0.35'
p2489
aa(lp2490
g1523
ag1524
aS'0.31'
p2491
aa(lp2492
g1527
ag1528
aS'0.27'
p2493
aa(lp2494
g1531
ag1532
aS'0.27'
p2495
aaaa(lp2496
VQ2VQC1_YEASX
p2497
aVQ2VQC1
p2498
ag6
aI4932
a(lp2499
(lp2500
VGO:0001002
p2501
aVRNA polymerase III type 1 promoter sequence-specific DNA binding
p2502
aS'0.76'
p2503
aa(lp2504
VGO:0000995
p2505
aVcore RNA polymerase III binding transcription factor activity
p2506
aS'0.64'
p2507
aaaa(lp2508
VC5I8H3_YEASX
p2509
aVC5I8H3
p2510
ag6
aI4932
a(lp2511
(lp2512
g627
ag628
aS'0.93'
p2513
aa(lp2514
g631
ag632
aS'0.13'
p2515
aa(lp2516
g57
ag58
aS'0.13'
p2517
aa(lp2518
g551
ag552
aS'0.13'
p2519
aaaa(lp2520
VE9PA85_YEASX
p2521
aVE9PA85
p2522
ag6
aI4932
a(lp2523
(lp2524
VGO:0051015
p2525
aVactin filament binding
p2526
aS'0.86'
p2527
aa(lp2528
VGO:0017124
p2529
aVSH3 domain binding
p2530
aS'0.35'
p2531
aa(lp2532
VGO:0005547
p2533
aVphosphatidylinositol-3,4,5-trisphosphate binding
p2534
aS'0.3'
p2535
aa(lp2536
g17
ag18
aS'0.29'
p2537
aa(lp2538
g211
ag212
aS'0.29'
p2539
aa(lp2540
g243
ag244
aS'0.28'
p2541
aa(lp2542
g1083
ag1084
aS'0.28'
p2543
aa(lp2544
VGO:0005522
p2545
aVprofilin binding
p2546
aS'0.28'
p2547
aa(lp2548
g555
ag556
aS'0.28'
p2549
aa(lp2550
g203
ag204
aS'0.28'
p2551
aa(lp2552
VGO:0005083
p2553
aVsmall GTPase regulator activity
p2554
aS'0.27'
p2555
aa(lp2556
VGO:0003785
p2557
aVactin monomer binding
p2558
aS'0.27'
p2559
aa(lp2560
g1785
ag1786
aS'0.27'
p2561
aa(lp2562
VGO:0005519
p2563
aVcytoskeletal regulatory protein binding
p2564
aS'0.27'
p2565
aaaa(lp2566
VE9P984_YEASX
p2567
aVE9P984
p2568
ag6
aI4932
a(lp2569
(lp2570
g1175
ag1176
aS'0.83'
p2571
aa(lp2572
g1179
ag1180
aS'0.26'
p2573
aaaa(lp2574
VH9NBG8_YEASX
p2575
aVH9NBG8
p2576
ag6
aI4932
a(lp2577
(lp2578
g17
ag18
aS'0.69'
p2579
aa(lp2580
g21
ag22
aS'0.54'
p2581
aa(lp2582
g25
ag26
aS'0.52'
p2583
aa(lp2584
g29
ag30
aS'0.51'
p2585
aa(lp2586
g33
ag34
aS'0.49'
p2587
aa(lp2588
g37
ag38
aS'0.49'
p2589
aa(lp2590
g41
ag42
aS'0.49'
p2591
aaaa(lp2592
VG8EXD6_YEASX
p2593
aVG8EXD6
p2594
ag6
aI4932
a(lp2595
(lp2596
g627
ag628
aS'0.93'
p2597
aa(lp2598
g631
ag632
aS'0.13'
p2599
aa(lp2600
g57
ag58
aS'0.13'
p2601
aa(lp2602
g551
ag552
aS'0.13'
p2603
aaaa(lp2604
VH9BH41_YEASX
p2605
aVH9BH41
p2606
ag6
aI4932
a(lp2607
(lp2608
g25
ag26
aS'0.82'
p2609
aa(lp2610
g269
ag270
aS'0.81'
p2611
aa(lp2612
g227
ag228
aS'0.81'
p2613
aa(lp2614
g127
ag128
aS'0.68'
p2615
aa(lp2616
g123
ag124
aS'0.62'
p2617
aaaa(lp2618
VG8EXE7_YEASX
p2619
aVG8EXE7
p2620
ag6
aI4932
a(lp2621
(lp2622
g627
ag628
aS'0.92'
p2623
aa(lp2624
g631
ag632
aS'0.14'
p2625
aa(lp2626
g57
ag58
aS'0.14'
p2627
aa(lp2628
g551
ag552
aS'0.14'
p2629
aaaa(lp2630
VE9P988_YEASX
p2631
aVE9P988
p2632
ag6
aI4932
a(lp2633
(lp2634
g1009
ag1010
aS'0.84'
p2635
aa(lp2636
g1875
ag1876
aS'0.43'
p2637
aa(lp2638
g17
ag18
aS'0.41'
p2639
aa(lp2640
g1881
ag1882
aS'0.41'
p2641
aa(lp2642
g1891
ag1892
aS'0.41'
p2643
aa(lp2644
g821
ag822
aS'0.41'
p2645
aa(lp2646
g1885
ag1886
aS'0.41'
p2647
aa(lp2648
g1895
ag1896
aS'0.41'
p2649
aaaa(lp2650
VD6C7F0_YEASX
p2651
aVD6C7F0
p2652
ag6
aI4932
a(lp2653
(lp2654
g29
ag30
aS'0.52'
p2655
aa(lp2656
g17
ag18
aS'0.41'
p2657
aaaa(lp2658
VE9P8R6_YEASX
p2659
aVE9P8R6
p2660
ag6
aI4932
a(lp2661
(lp2662
g151
ag152
aS'0.9'
p2663
aaaa(lp2664
VNFT1_YEASX
p2665
aVP0CE70
p2666
ag6
aI4932
a(lp2667
(lp2668
VGO:0005260
p2669
aVchannel-conductance-controlling ATPase activity
p2670
aS'0.86'
p2671
aa(lp2672
VGO:0019869
p2673
aVchloride channel inhibitor activity
p2674
aS'0.86'
p2675
aa(lp2676
VGO:0005224
p2677
aVATP-binding and phosphorylation-dependent chloride channel activity
p2678
aS'0.86'
p2679
aa(lp2680
VGO:0016404
p2681
aV15-hydroxyprostaglandin dehydrogenase (NAD+) activity
p2682
aS'0.86'
p2683
aa(lp2684
VGO:0015079
p2685
aVpotassium ion transmembrane transporter activity
p2686
aS'0.86'
p2687
aa(lp2688
g1413
ag1414
aS'0.86'
p2689
aa(lp2690
g1479
ag1480
aS'0.86'
p2691
aa(lp2692
g1421
ag1422
aS'0.86'
p2693
aa(lp2694
VGO:0005460
p2695
aVUDP-glucose transmembrane transporter activity
p2696
aS'0.7'
p2697
aaaa(lp2698
VE9P8E8_YEASX
p2699
aVE9P8E8
p2700
ag6
aI4932
a(lp2701
(lp2702
g1175
ag1176
aS'0.82'
p2703
aa(lp2704
g1179
ag1180
aS'0.21'
p2705
aaaa(lp2706
VD5MS16_YEASX
p2707
aVD5MS16
p2708
ag6
aI4932
a(lp2709
(lp2710
g251
ag252
aS'0.94'
p2711
aa(lp2712
g255
ag256
aS'0.53'
p2713
aa(lp2714
g259
ag260
aS'0.53'
p2715
aaaa(lp2716
VMAL61_YEASX
p2717
aVP15685
p2718
ag6
aI4932
a(lp2719
(lp2720
g1009
ag1010
aS'0.84'
p2721
aa(lp2722
g1875
ag1876
aS'0.44'
p2723
aa(lp2724
g17
ag18
aS'0.42'
p2725
aa(lp2726
g1881
ag1882
aS'0.42'
p2727
aa(lp2728
g1891
ag1892
aS'0.42'
p2729
aa(lp2730
g821
ag822
aS'0.42'
p2731
aa(lp2732
g1885
ag1886
aS'0.42'
p2733
aa(lp2734
g1895
ag1896
aS'0.42'
p2735
aaaa(lp2736
VG8EXG6_YEASX
p2737
aVG8EXG6
p2738
ag6
aI4932
a(lp2739
(lp2740
g649
ag650
aS'0.75'
p2741
aa(lp2742
g653
ag654
aS'0.21'
p2743
aa(lp2744
g657
ag658
aS'0.18'
p2745
aaaa(lp2746
VQ7GEZ1_YEASX
p2747
aVQ7GEZ1
p2748
ag6
aI4932
a(lp2749
(lp2750
g1097
ag1098
aS'0.42'
p2751
aa(lp2752
g1109
ag1110
aS'0.27'
p2753
aaaa(lp2754
VH9BH84_YEASX
p2755
aVH9BH84
p2756
ag6
aI4932
a(lp2757
(lp2758
g25
ag26
aS'0.82'
p2759
aa(lp2760
g269
ag270
aS'0.82'
p2761
aa(lp2762
g227
ag228
aS'0.81'
p2763
aa(lp2764
g127
ag128
aS'0.78'
p2765
aaaa(lp2766
VH9NBJ2_YEASX
p2767
aVH9NBJ2
p2768
ag6
aI4932
a(lp2769
(lp2770
g17
ag18
aS'0.74'
p2771
aa(lp2772
g21
ag22
aS'0.54'
p2773
aa(lp2774
g25
ag26
aS'0.53'
p2775
aa(lp2776
g29
ag30
aS'0.51'
p2777
aa(lp2778
g33
ag34
aS'0.49'
p2779
aa(lp2780
g37
ag38
aS'0.49'
p2781
aa(lp2782
g41
ag42
aS'0.49'
p2783
aaaa(lp2784
VD3YHF4_YEASX
p2785
aVD3YHF4
p2786
ag6
aI4932
a(lp2787
(lp2788
VGO:0004091
p2789
aVcarboxylesterase activity
p2790
aS'0.47'
p2791
aa(lp2792
g551
ag552
aS'0.47'
p2793
aa(lp2794
g57
ag58
aS'0.47'
p2795
aa(lp2796
VGO:0004301
p2797
aVepoxide hydrolase activity
p2798
aS'0.47'
p2799
aa(lp2800
VGO:0004177
p2801
aVaminopeptidase activity
p2802
aS'0.47'
p2803
aa(lp2804
VGO:0042577
p2805
aVlipid phosphatase activity
p2806
aS'0.47'
p2807
aa(lp2808
g1083
ag1084
aS'0.47'
p2809
aa(lp2810
VGO:0015643
p2811
aVtoxic substance binding
p2812
aS'0.47'
p2813
aa(lp2814
VGO:0003869
p2815
aV4-nitrophenylphosphatase activity
p2816
aS'0.47'
p2817
aa(lp2818
VGO:0090499
p2819
aVpimelyl-[acyl-carrier protein] methyl ester esterase activity
p2820
aS'0.36'
p2821
aaaa(lp2822
VE9P975_YEASX
p2823
aVE9P975
p2824
ag6
aI4932
a(lp2825
(lp2826
g439
ag440
aS'0.68'
p2827
aa(lp2828
g653
ag654
aS'0.36'
p2829
aa(lp2830
g657
ag658
aS'0.29'
p2831
aaaa(lp2832
VE9P8P8_YEASX
p2833
aVE9P8P8
p2834
ag6
aI4932
a(lp2835
(lp2836
g123
ag124
aS'0.68'
p2837
aa(lp2838
g127
ag128
aS'0.13'
p2839
aaaa(lp2840
VE9P8G7_YEASX
p2841
aVE9P8G7
p2842
ag6
aI4932
a(lp2843
(lp2844
g25
ag26
aS'0.85'
p2845
aa(lp2846
g269
ag270
aS'0.67'
p2847
aa(lp2848
g227
ag228
aS'0.66'
p2849
aa(lp2850
g127
ag128
aS'0.64'
p2851
aa(lp2852
g123
ag124
aS'0.62'
p2853
aa(lp2854
g163
ag164
aS'0.6'
p2855
aaaa(lp2856
VE9P8J1_YEASX
p2857
aVE9P8J1
p2858
ag6
aI4932
a(lp2859
(lp2860
g151
ag152
aS'0.74'
p2861
aa(lp2862
g155
ag156
aS'0.43'
p2863
aaaa(lp2864
VD2XNB4_YEASX
p2865
aVD2XNB4
p2866
ag6
aI4932
a(lp2867
(lp2868
g151
ag152
aS'0.69'
p2869
aaaa(lp2870
VE9P8E4_YEASX
p2871
aVE9P8E4
p2872
ag6
aI4932
a(lp2873
(lp2874
g1175
ag1176
aS'0.83'
p2875
aa(lp2876
g1179
ag1180
aS'0.26'
p2877
aaaa(lp2878
VE9P8L9_YEASX
p2879
aVE9P8L9
p2880
ag6
aI4932
a(lp2881
(lp2882
g251
ag252
aS'0.93'
p2883
aa(lp2884
g255
ag256
aS'0.81'
p2885
aa(lp2886
g259
ag260
aS'0.81'
p2887
aaaa(lp2888
VE9P8M7_YEASX
p2889
aVE9P8M7
p2890
ag6
aI4932
a(lp2891
(lp2892
g563
ag564
aS'0.94'
p2893
aa(lp2894
g57
ag58
aS'0.57'
p2895
aa(lp2896
g569
ag570
aS'0.56'
p2897
aa(lp2898
g573
ag574
aS'0.56'
p2899
aaaa(lp2900
VG8EXE1_YEASX
p2901
aVG8EXE1
p2902
ag6
aI4932
a(lp2903
(lp2904
g627
ag628
aS'0.92'
p2905
aa(lp2906
g631
ag632
aS'0.13'
p2907
aa(lp2908
g57
ag58
aS'0.13'
p2909
aa(lp2910
g551
ag552
aS'0.13'
p2911
aaaa(lp2912
VE9P9M3_YEASX
p2913
aVE9P9M3
p2914
ag6
aI4932
a(lp2915
(lp2916
g29
ag30
aS'0.49'
p2917
aa(lp2918
g17
ag18
aS'0.23'
p2919
aaaa(lp2920
VH9TTU8_YEASX
p2921
aVH9TTU8
p2922
ag6
aI4932
a(lp2923
(lp2924
g1431
ag1432
aS'0.94'
p2925
aa(lp2926
g1435
ag1436
aS'0.87'
p2927
aa(lp2928
g1439
ag1440
aS'0.81'
p2929
aa(lp2930
g1443
ag1444
aS'0.81'
p2931
aa(lp2932
g555
ag556
aS'0.81'
p2933
aaaa(lp2934
VQ2VQ97_YEASX
p2935
aVQ2VQ97
p2936
ag6
aI4932
a(lp2937
(lp2938
g439
ag440
aS'0.67'
p2939
aa(lp2940
g653
ag654
aS'0.43'
p2941
aa(lp2942
g657
ag658
aS'0.39'
p2943
aa(lp2944
g1059
ag1060
aS'0.34'
p2945
aa(lp2946
g17
ag18
aS'0.33'
p2947
aaaa(lp2948
VE9P8H8_YEASX
p2949
aVE9P8H8
p2950
ag6
aI4932
a(lp2951
(lp2952
g543
ag544
aS'0.9'
p2953
aa(lp2954
g547
ag548
aS'0.8'
p2955
aa(lp2956
g551
ag552
aS'0.75'
p2957
aa(lp2958
g555
ag556
aS'0.72'
p2959
aaaa(lp2960
VQ4KPY8_YEASX
p2961
aVQ4KPY8
p2962
ag6
aI4932
a(lp2963
(lp2964
g151
ag152
aS'0.76'
p2965
aa(lp2966
g2365
ag2366
aS'0.57'
p2967
aa(lp2968
g2369
ag2370
aS'0.57'
p2969
aa(lp2970
g2373
ag2374
aS'0.57'
p2971
aa(lp2972
g2377
ag2378
aS'0.57'
p2973
aa(lp2974
g555
ag556
aS'0.57'
p2975
aa(lp2976
g143
ag144
aS'0.57'
p2977
aa(lp2978
g2385
ag2386
aS'0.57'
p2979
aaaa(lp2980
VQ45TY7_YEASX
p2981
aVQ45TY7
p2982
ag6
aI4932
a(lp2983
(lp2984
g285
ag286
aS'0.94'
p2985
aa(lp2986
g289
ag290
aS'0.94'
p2987
aa(lp2988
g293
ag294
aS'0.94'
p2989
aa(lp2990
g297
ag298
aS'0.94'
p2991
aa(lp2992
g301
ag302
aS'0.94'
p2993
aa(lp2994
g305
ag306
aS'0.94'
p2995
aa(lp2996
g57
ag58
aS'0.94'
p2997
aa(lp2998
g311
ag312
aS'0.94'
p2999
aa(lp3000
g315
ag316
aS'0.94'
p3001
aa(lp3002
g319
ag320
aS'0.94'
p3003
aaaa(lp3004
VE9P8M1_YEASX
p3005
aVE9P8M1
p3006
ag6
aI4932
a(lp3007
(lp3008
g563
ag564
aS'0.93'
p3009
aa(lp3010
g57
ag58
aS'0.62'
p3011
aa(lp3012
g569
ag570
aS'0.61'
p3013
aa(lp3014
g573
ag574
aS'0.61'
p3015
aaaa(lp3016
VH9BH49_YEASX
p3017
aVH9BH49
p3018
ag6
aI4932
a(lp3019
(lp3020
g25
ag26
aS'0.84'
p3021
aa(lp3022
g127
ag128
aS'0.74'
p3023
aa(lp3024
g269
ag270
aS'0.73'
p3025
aa(lp3026
g227
ag228
aS'0.73'
p3027
aa(lp3028
g123
ag124
aS'0.62'
p3029
aaaa(lp3030
VG8EXG1_YEASX
p3031
aVG8EXG1
p3032
ag6
aI4932
a(lp3033
(lp3034
g649
ag650
aS'0.75'
p3035
aa(lp3036
g653
ag654
aS'0.3'
p3037
aa(lp3038
g657
ag658
aS'0.25'
p3039
aaaa(lp3040
VD6C7G8_YEASX
p3041
aVD6C7G8
p3042
ag6
aI4932
a(lp3043
(lp3044
g497
ag498
aS'0.69'
p3045
aaaa(lp3046
VD2XNR6_YEASX
p3047
aVD2XNR6
p3048
ag6
aI4932
a(lp3049
(lp3050
g151
ag152
aS'0.69'
p3051
aaaa(lp3052
VH9BH35_YEASX
p3053
aVH9BH35
p3054
ag6
aI4932
a(lp3055
(lp3056
g25
ag26
aS'0.83'
p3057
aa(lp3058
g269
ag270
aS'0.83'
p3059
aa(lp3060
g227
ag228
aS'0.77'
p3061
aa(lp3062
g127
ag128
aS'0.73'
p3063
aaaa(lp3064
VH9TW05_YEASX
p3065
aVH9TW05
p3066
ag6
aI4932
a(lp3067
(lp3068
g151
ag152
aS'0.69'
p3069
aa(lp3070
g699
ag700
aS'0.07'
p3071
aaaa(lp3072
VG4XS03_YEASX
p3073
aVG4XS03
p3074
ag6
aI4932
a(lp3075
(lp3076
g2111
ag2112
aS'0.81'
p3077
aa(lp3078
g57
ag58
aS'0.78'
p3079
aa(lp3080
g2117
ag2118
aS'0.74'
p3081
aaaa(lp3082
VE9P8F8_YEASX
p3083
aVE9P8F8
p3084
ag6
aI4932
a(lp3085
(lp3086
g431
ag432
aS'0.9'
p3087
aa(lp3088
g439
ag440
aS'0.65'
p3089
aa(lp3090
g435
ag436
aS'0.64'
p3091
aa(lp3092
g443
ag444
aS'0.61'
p3093
aa(lp3094
g447
ag448
aS'0.57'
p3095
aaaa(lp3096
VH9TYQ1_YEASX
p3097
aVH9TYQ1
p3098
ag6
aI4932
a(lp3099
(lp3100
g151
ag152
aS'0.74'
p3101
aaaa(lp3102
VE9P9B5_YEASX
p3103
aVE9P9B5
p3104
ag6
aI4932
a(lp3105
(lp3106
VGO:0003887
p3107
aVDNA-directed DNA polymerase activity
p3108
aS'0.92'
p3109
aa(lp3110
VGO:0003896
p3111
aVDNA primase activity
p3112
aS'0.84'
p3113
aa(lp3114
g1065
ag1066
aS'0.8'
p3115
aa(lp3116
VGO:0008296
p3117
aV3'-5'-exodeoxyribonuclease activity
p3118
aS'0.78'
p3119
aaaa(lp3120
VH9TW03_YEASX
p3121
aVH9TW03
p3122
ag6
aI4932
a(lp3123
(lp3124
g151
ag152
aS'0.69'
p3125
aa(lp3126
g699
ag700
aS'0.08'
p3127
aaaa(lp3128
VH9TW28_YEASX
p3129
aVH9TW28
p3130
ag6
aI4932
a(lp3131
(lp3132
g151
ag152
aS'0.69'
p3133
aa(lp3134
g699
ag700
aS'0.07'
p3135
aaaa(lp3136
VB5LYS5_YEASX
p3137
aVB5LYS5
p3138
ag6
aI4932
a(lp3139
(lp3140
VGO:0004122
p3141
aVcystathionine beta-synthase activity
p3142
aS'0.86'
p3143
aa(lp3144
g57
ag58
aS'0.2'
p3145
aa(lp3146
VGO:0033847
p3147
aVO-phosphoserine sulfhydrylase activity
p3148
aS'0.2'
p3149
aa(lp3150
g135
ag136
aS'0.2'
p3151
aa(lp3152
VGO:0004124
p3153
aVcysteine synthase activity
p3154
aS'0.2'
p3155
aa(lp3156
VGO:0050017
p3157
aVL-3-cyanoalanine synthase activity
p3158
aS'0.2'
p3159
aa(lp3160
VGO:0020037
p3161
aVheme binding
p3162
aS'0.2'
p3163
aa(lp3164
VGO:0080146
p3165
aVL-cysteine desulfhydrase activity
p3166
aS'0.2'
p3167
aa(lp3168
VGO:0072341
p3169
aVmodified amino acid binding
p3170
aS'0.2'
p3171
aa(lp3172
g2317
ag2318
aS'0.2'
p3173
aaaa(lp3174
VH9BH31_YEASX
p3175
aVH9BH31
p3176
ag6
aI4932
a(lp3177
(lp3178
g25
ag26
aS'0.82'
p3179
aa(lp3180
g269
ag270
aS'0.82'
p3181
aa(lp3182
g227
ag228
aS'0.82'
p3183
aa(lp3184
g127
ag128
aS'0.71'
p3185
aa(lp3186
g123
ag124
aS'0.62'
p3187
aaaa(lp3188
VH9TTW0_YEASX
p3189
aVH9TTW0
p3190
ag6
aI4932
a(lp3191
(lp3192
g1431
ag1432
aS'0.94'
p3193
aa(lp3194
g1435
ag1436
aS'0.84'
p3195
aa(lp3196
g1439
ag1440
aS'0.74'
p3197
aa(lp3198
g1443
ag1444
aS'0.74'
p3199
aa(lp3200
g555
ag556
aS'0.74'
p3201
aaaa(lp3202
VE9P8P0_YEASX
p3203
aVE9P8P0
p3204
ag6
aI4932
a(lp3205
(lp3206
g123
ag124
aS'0.68'
p3207
aa(lp3208
g127
ag128
aS'0.11'
p3209
aaaa(lp3210
VB2NII1_YEASX
p3211
aVB2NII1
p3212
ag6
aI4932
a(lp3213
(lp3214
g1515
ag1516
aS'0.78'
p3215
aaaa(lp3216
VH9NBL3_YEASX
p3217
aVH9NBL3
p3218
ag6
aI4932
a(lp3219
(lp3220
g17
ag18
aS'0.7'
p3221
aa(lp3222
g21
ag22
aS'0.54'
p3223
aa(lp3224
g25
ag26
aS'0.52'
p3225
aa(lp3226
g29
ag30
aS'0.51'
p3227
aa(lp3228
g33
ag34
aS'0.49'
p3229
aa(lp3230
g37
ag38
aS'0.49'
p3231
aa(lp3232
g41
ag42
aS'0.49'
p3233
aaaa(lp3234
VE9P9U1_YEASX
p3235
aVE9P9U1
p3236
ag6
aI4932
a(lp3237
(lp3238
VGO:0004822
p3239
aVisoleucine-tRNA ligase activity
p3240
aS'0.94'
p3241
aa(lp3242
VGO:0004823
p3243
aVleucine-tRNA ligase activity
p3244
aS'0.68'
p3245
aa(lp3246
VGO:0004832
p3247
aVvaline-tRNA ligase activity
p3248
aS'0.58'
p3249
aa(lp3250
g151
ag152
aS'0.58'
p3251
aaaa(lp3252
VH9NBN1_YEASX
p3253
aVH9NBN1
p3254
ag6
aI4932
a(lp3255
(lp3256
g17
ag18
aS'0.81'
p3257
aa(lp3258
g21
ag22
aS'0.55'
p3259
aa(lp3260
g25
ag26
aS'0.53'
p3261
aa(lp3262
g29
ag30
aS'0.51'
p3263
aa(lp3264
g33
ag34
aS'0.49'
p3265
aa(lp3266
g37
ag38
aS'0.49'
p3267
aa(lp3268
g41
ag42
aS'0.49'
p3269
aaaa(lp3270
VH9TTB3_YEASX
p3271
aVH9TTB3
p3272
ag6
aI4932
a(lp3273
(lp3274
g1263
ag1264
aS'0.22'
p3275
aa(lp3276
g1269
ag1270
aS'0.17'
p3277
aa(lp3278
g215
ag216
aS'0.15'
p3279
aaaa(lp3280
VE9P968_YEASX
p3281
aVE9P968
p3282
ag6
aI4932
a(lp3283
(lp3284
g151
ag152
aS'0.77'
p3285
aa(lp3286
g2365
ag2366
aS'0.75'
p3287
aa(lp3288
g2369
ag2370
aS'0.75'
p3289
aa(lp3290
g2373
ag2374
aS'0.75'
p3291
aa(lp3292
g2377
ag2378
aS'0.75'
p3293
aa(lp3294
g555
ag556
aS'0.75'
p3295
aa(lp3296
g143
ag144
aS'0.75'
p3297
aa(lp3298
g2385
ag2386
aS'0.75'
p3299
aaaa(lp3300
VD2XNB5_YEASX
p3301
aVD2XNB5
p3302
ag6
aI4932
a(lp3303
(lp3304
g151
ag152
aS'0.79'
p3305
aaaa(lp3306
VE9P9K7_YEASX
p3307
aVE9P9K7
p3308
ag6
aI4932
a(lp3309
(lp3310
g627
ag628
aS'0.92'
p3311
aa(lp3312
g631
ag632
aS'0.13'
p3313
aa(lp3314
g57
ag58
aS'0.13'
p3315
aa(lp3316
g551
ag552
aS'0.13'
p3317
aaaa(lp3318
VE9P8H7_YEASX
p3319
aVE9P8H7
p3320
ag6
aI4932
a(lp3321
(lp3322
g543
ag544
aS'0.9'
p3323
aa(lp3324
g547
ag548
aS'0.8'
p3325
aa(lp3326
g551
ag552
aS'0.77'
p3327
aa(lp3328
g555
ag556
aS'0.73'
p3329
aaaa(lp3330
VE9P9A8_YEASX
p3331
aVE9P9A8
p3332
ag6
aI4932
a(lp3333
(lp3334
VGO:0030676
p3335
aVRac guanyl-nucleotide exchange factor activity
p3336
aS'0.6'
p3337
aa(lp3338
VGO:0045159
p3339
aVmyosin II binding
p3340
aS'0.13'
p3341
aa(lp3342
VGO:0070064
p3343
aVproline-rich region binding
p3344
aS'0.11'
p3345
aa(lp3346
VGO:0070300
p3347
aVphosphatidic acid binding
p3348
aS'0.11'
p3349
aaaa(lp3350
VQ4KQD1_YEASX
p3351
aVQ4KQD1
p3352
ag6
aI4932
a(lp3353
(lp3354
g1431
ag1432
aS'0.87'
p3355
aa(lp3356
g1435
ag1436
aS'0.75'
p3357
aa(lp3358
g1439
ag1440
aS'0.69'
p3359
aa(lp3360
g1443
ag1444
aS'0.69'
p3361
aa(lp3362
g555
ag556
aS'0.69'
p3363
aaaa(lp3364
VC9ELP4_YEASX
p3365
aVC9ELP4
p3366
ag6
aI4932
a(lp3367
(lp3368
g1101
ag1102
aS'0.92'
p3369
aa(lp3370
g57
ag58
aS'0.79'
p3371
aaaa(lp3372
VQ45T86_YEASX
p3373
aVQ45T86
p3374
ag6
aI4932
a(lp3375
(lp3376
g151
ag152
aS'0.89'
p3377
aaaa(lp3378
VH9TYN7_YEASX
p3379
aVH9TYN7
p3380
ag6
aI4932
a(lp3381
(lp3382
g151
ag152
aS'0.74'
p3383
aaaa(lp3384
VE9P8C9_YEASX
p3385
aVE9P8C9
p3386
ag6
aI4932
a(lp3387
(lp3388
g2801
ag2802
aS'0.46'
p3389
aa(lp3390
g2789
ag2790
aS'0.42'
p3391
aa(lp3392
g551
ag552
aS'0.42'
p3393
aa(lp3394
g57
ag58
aS'0.42'
p3395
aa(lp3396
g2797
ag2798
aS'0.42'
p3397
aa(lp3398
g2805
ag2806
aS'0.42'
p3399
aa(lp3400
g1083
ag1084
aS'0.42'
p3401
aa(lp3402
g2811
ag2812
aS'0.42'
p3403
aa(lp3404
g2815
ag2816
aS'0.42'
p3405
aa(lp3406
g2819
ag2820
aS'0.39'
p3407
aaaa(lp3408
VD6C7F1_YEASX
p3409
aVD6C7F1
p3410
ag6
aI4932
a(lp3411
(lp3412
g29
ag30
aS'0.52'
p3413
aa(lp3414
g17
ag18
aS'0.41'
p3415
aaaa(lp3416
VE9P992_YEASX
p3417
aVE9P992
p3418
ag6
aI4932
a(lp3419
(lp3420
g1009
ag1010
aS'0.85'
p3421
aa(lp3422
g1875
ag1876
aS'0.4'
p3423
aa(lp3424
g17
ag18
aS'0.35'
p3425
aa(lp3426
g1881
ag1882
aS'0.35'
p3427
aa(lp3428
g1891
ag1892
aS'0.35'
p3429
aa(lp3430
g821
ag822
aS'0.35'
p3431
aa(lp3432
g1885
ag1886
aS'0.35'
p3433
aa(lp3434
g1895
ag1896
aS'0.35'
p3435
aaaa(lp3436
VE9P8Q9_YEASX
p3437
aVE9P8Q9
p3438
ag6
aI4932
a(lp3439
(lp3440
VGO:0015495
p3441
aVgamma-aminobutyric acid:hydrogen symporter activity
p3442
aS'0.89'
p3443
aa(lp3444
VGO:0015203
p3445
aVpolyamine transmembrane transporter activity
p3446
aS'0.2'
p3447
aaaa(lp3448
VE9P9H4_YEASX
p3449
aVE9P9H4
p3450
ag6
aI4932
a(lp3451
(lp3452
VGO:0004310
p3453
aVfarnesyl-diphosphate farnesyltransferase activity
p3454
aS'0.93'
p3455
aa(lp3456
VGO:0051996
p3457
aVsqualene synthase activity
p3458
aS'0.46'
p3459
aaaa(lp3460
VE9PAB2_YEASX
p3461
aVE9PAB2
p3462
ag6
aI4932
a(lp3463
(lp3464
g163
ag164
aS'0.92'
p3465
aa(lp3466
g151
ag152
aS'0.92'
p3467
aa(lp3468
g2377
ag2378
aS'0.89'
p3469
aa(lp3470
g435
ag436
aS'0.88'
p3471
aa(lp3472
g269
ag270
aS'0.88'
p3473
aa(lp3474
g171
ag172
aS'0.72'
p3475
aa(lp3476
VGO:0016150
p3477
aVtranslation release factor activity, codon nonspecific
p3478
aS'0.72'
p3479
aaaa(lp3480
VE9P8N2_YEASX
p3481
aVE9P8N2
p3482
ag6
aI4932
a(lp3483
(lp3484
g547
ag548
aS'0.86'
p3485
aa(lp3486
g135
ag136
aS'0.86'
p3487
aa(lp3488
g243
ag244
aS'0.86'
p3489
aa(lp3490
g285
ag286
aS'0.83'
p3491
aa(lp3492
g1333
ag1334
aS'0.83'
p3493
aa(lp3494
g57
ag58
aS'0.74'
p3495
aa(lp3496
VGO:0003691
p3497
aVdouble-stranded telomeric DNA binding
p3498
aS'0.69'
p3499
aa(lp3500
g689
ag690
aS'0.67'
p3501
aa(lp3502
VGO:0051575
p3503
aV5'-deoxyribose-5-phosphate lyase activity
p3504
aS'0.67'
p3505
aaaa(lp3506
VD6C7H0_YEASX
p3507
aVD6C7H0
p3508
ag6
aI4932
a(lp3509
(lp3510
g497
ag498
aS'0.69'
p3511
aaaa(lp3512
VE9P9H5_YEASX
p3513
aVE9P9H5
p3514
ag6
aI4932
a(lp3515
(lp3516
VGO:0008942
p3517
aVnitrite reductase [NAD(P)H] activity
p3518
aS'0.87'
p3519
aa(lp3520
VGO:0050311
p3521
aVsulfite reductase (ferredoxin) activity
p3522
aS'0.87'
p3523
aa(lp3524
VGO:0050660
p3525
aVflavin adenine dinucleotide binding
p3526
aS'0.87'
p3527
aa(lp3528
VGO:0050661
p3529
aVNADP binding
p3530
aS'0.87'
p3531
aa(lp3532
VGO:0051539
p3533
aV4 iron, 4 sulfur cluster binding
p3534
aS'0.87'
p3535
aa(lp3536
g3161
ag3162
aS'0.87'
p3537
aa(lp3538
VGO:0016002
p3539
aVsulfite reductase activity
p3540
aS'0.87'
p3541
aa(lp3542
g1309
ag1310
aS'0.8'
p3543
aaaa(lp3544
VG4XST2_YEASX
p3545
aVG4XST2
p3546
ag6
aI4932
a(lp3547
(lp3548
g473
ag474
aS'0.93'
p3549
aa(lp3550
g477
ag478
aS'0.13'
p3551
aaaa(lp3552
VE9PAC4_YEASX
p3553
aVE9PAC4
p3554
ag6
aI4932
a(lp3555
(lp3556
VGO:0009009
p3557
aVsite-specific recombinase activity
p3558
aS'0.54'
p3559
aa(lp3560
g293
ag294
aS'0.54'
p3561
aa(lp3562
g305
ag306
aS'0.54'
p3563
aa(lp3564
g793
ag794
aS'0.5'
p3565
aaaa(lp3566
VH9NBK5_YEASX
p3567
aVH9NBK5
p3568
ag6
aI4932
a(lp3569
(lp3570
g17
ag18
aS'0.7'
p3571
aa(lp3572
g21
ag22
aS'0.54'
p3573
aa(lp3574
g25
ag26
aS'0.52'
p3575
aa(lp3576
g29
ag30
aS'0.51'
p3577
aa(lp3578
g33
ag34
aS'0.49'
p3579
aa(lp3580
g37
ag38
aS'0.49'
p3581
aa(lp3582
g41
ag42
aS'0.49'
p3583
aaaa(lp3584
VD5MS18_YEASX
p3585
aVD5MS18
p3586
ag6
aI4932
a(lp3587
(lp3588
g251
ag252
aS'0.94'
p3589
aa(lp3590
g255
ag256
aS'0.5'
p3591
aa(lp3592
g259
ag260
aS'0.49'
p3593
aaaa(lp3594
VH9NBK1_YEASX
p3595
aVH9NBK1
p3596
ag6
aI4932
a(lp3597
(lp3598
g17
ag18
aS'0.76'
p3599
aa(lp3600
g21
ag22
aS'0.54'
p3601
aa(lp3602
g25
ag26
aS'0.53'
p3603
aa(lp3604
g29
ag30
aS'0.51'
p3605
aa(lp3606
g33
ag34
aS'0.49'
p3607
aa(lp3608
g37
ag38
aS'0.49'
p3609
aa(lp3610
g41
ag42
aS'0.49'
p3611
aaaa(lp3612
VINV3_YEASX
p3613
aVP10595
p3614
ag6
aI4932
a(lp3615
(lp3616
g251
ag252
aS'0.91'
p3617
aa(lp3618
g255
ag256
aS'0.21'
p3619
aa(lp3620
g259
ag260
aS'0.21'
p3621
aaaa(lp3622
VE9PA19_YEASX
p3623
aVE9PA19
p3624
ag6
aI4932
a(lp3625
(lp3626
g1097
ag1098
aS'0.94'
p3627
aa(lp3628
g1109
ag1110
aS'0.89'
p3629
aaaa(lp3630
VD2XNA9_YEASX
p3631
aVD2XNA9
p3632
ag6
aI4932
a(lp3633
(lp3634
g151
ag152
aS'0.69'
p3635
aaaa(lp3636
VE9P8D6_YEASX
p3637
aVE9P8D6
p3638
ag6
aI4932
a(lp3639
(lp3640
g1101
ag1102
aS'0.87'
p3641
aa(lp3642
g1097
ag1098
aS'0.87'
p3643
aa(lp3644
g1105
ag1106
aS'0.87'
p3645
aa(lp3646
g1109
ag1110
aS'0.76'
p3647
aaaa(lp3648
VH9TYS8_YEASX
p3649
aVH9TYS8
p3650
ag6
aI4932
a(lp3651
(lp3652
g151
ag152
aS'0.74'
p3653
aaaa(lp3654
VQ6Q7H9_YEASX
p3655
aVQ6Q7H9
p3656
ag6
aI4932
a(lp3657
(lp3658
g17
ag18
aS'0.69'
p3659
aa(lp3660
g439
ag440
aS'0.64'
p3661
aaaa(lp3662
VQ2VQ96_YEASX
p3663
aVQ2VQ96
p3664
ag6
aI4932
a(lp3665
(lp3666
g439
ag440
aS'0.69'
p3667
aa(lp3668
g653
ag654
aS'0.39'
p3669
aa(lp3670
g657
ag658
aS'0.33'
p3671
aaaa(lp3672
VG4XSL8_YEASX
p3673
aVG4XSL8
p3674
ag6
aI4932
a(lp3675
(lp3676
g473
ag474
aS'0.88'
p3677
aa(lp3678
g477
ag478
aS'0.46'
p3679
aa(lp3680
g631
ag632
aS'0.42'
p3681
aa(lp3682
VGO:0047260
p3683
aValpha,alpha-trehalose-phosphate synthase (GDP-forming) activity
p3684
aS'0.42'
p3685
aaaa(lp3686
VE9P8L2_YEASX
p3687
aVE9P8L2
p3688
ag6
aI4932
a(lp3689
(lp3690
g151
ag152
aS'0.74'
p3691
aa(lp3692
g155
ag156
aS'0.19'
p3693
aaaa(lp3694
VG4XS82_YEASX
p3695
aVG4XS82
p3696
ag6
aI4932
a(lp3697
(lp3698
g485
ag486
aS'0.95'
p3699
aa(lp3700
g489
ag490
aS'0.64'
p3701
aaaa(lp3702
VF8LG06_YEASX
p3703
aVF8LG06
p3704
ag6
aI4932
a(lp3705
(lp3706
g581
ag582
aS'0.88'
p3707
aa(lp3708
g585
ag586
aS'0.32'
p3709
aa(lp3710
g589
ag590
aS'0.26'
p3711
aa(lp3712
g593
ag594
aS'0.25'
p3713
aa(lp3714
g597
ag598
aS'0.25'
p3715
aa(lp3716
g601
ag602
aS'0.25'
p3717
aa(lp3718
g605
ag606
aS'0.25'
p3719
aa(lp3720
g609
ag610
aS'0.25'
p3721
aa(lp3722
g151
ag152
aS'0.25'
p3723
aa(lp3724
g615
ag616
aS'0.25'
p3725
aa(lp3726
g619
ag620
aS'0.25'
p3727
aaaa(lp3728
VA0SXI8_YEASX
p3729
aVA0SXI8
p3730
ag6
aI4932
a(lp3731
(lp3732
g1305
ag1306
aS'0.9'
p3733
aa(lp3734
g1309
ag1310
aS'0.35'
p3735
aaaa(lp3736
VD5MS13_YEASX
p3737
aVD5MS13
p3738
ag6
aI4932
a(lp3739
(lp3740
g251
ag252
aS'0.94'
p3741
aa(lp3742
g255
ag256
aS'0.72'
p3743
aa(lp3744
g259
ag260
aS'0.72'
p3745
aaaa(lp3746
VE9P9L3_YEASX
p3747
aVE9P9L3
p3748
ag6
aI4932
a(lp3749
(lp3750
g649
ag650
aS'0.77'
p3751
aa(lp3752
g653
ag654
aS'0.14'
p3753
aaaa(lp3754
VQ7H4E9_YEASX
p3755
aVQ7H4E9
p3756
ag6
aI4932
a(lp3757
(lp3758
g497
ag498
aS'0.69'
p3759
aaaa(lp3760
VH9NBJ5_YEASX
p3761
aVH9NBJ5
p3762
ag6
aI4932
a(lp3763
(lp3764
g17
ag18
aS'0.66'
p3765
aa(lp3766
g21
ag22
aS'0.54'
p3767
aa(lp3768
g25
ag26
aS'0.53'
p3769
aa(lp3770
g29
ag30
aS'0.51'
p3771
aa(lp3772
g33
ag34
aS'0.49'
p3773
aa(lp3774
g37
ag38
aS'0.49'
p3775
aa(lp3776
g41
ag42
aS'0.49'
p3777
aaaa(lp3778
VE9P9X4_YEASX
p3779
aVE9P9X4
p3780
ag6
aI4932
a(lp3781
(lp3782
g1109
ag1110
aS'0.83'
p3783
aa(lp3784
g151
ag152
aS'0.11'
p3785
aaaa(lp3786
VG4XS68_YEASX
p3787
aVG4XS68
p3788
ag6
aI4932
a(lp3789
(lp3790
g485
ag486
aS'0.93'
p3791
aa(lp3792
g489
ag490
aS'0.81'
p3793
aa(lp3794
g1155
ag1156
aS'0.67'
p3795
aa(lp3796
g1151
ag1152
aS'0.67'
p3797
aa(lp3798
g151
ag152
aS'0.67'
p3799
aa(lp3800
g555
ag556
aS'0.67'
p3801
aaaa(lp3802
VE9P9C5_YEASX
p3803
aVE9P9C5
p3804
ag6
aI4932
a(lp3805
(lp3806
g151
ag152
aS'0.89'
p3807
aaaa(lp3808
VQ7LLZ3_YEASX
p3809
aVQ7LLZ3
p3810
ag6
aI4932
a(lp3811
(lp3812
VGO:0004364
p3813
aVglutathione transferase activity
p3814
aS'0.68'
p3815
aa(lp3816
g865
ag866
aS'0.6'
p3817
aa(lp3818
g57
ag58
aS'0.47'
p3819
aa(lp3820
g605
ag606
aS'0.46'
p3821
aa(lp3822
VGO:0004602
p3823
aVglutathione peroxidase activity
p3824
aS'0.46'
p3825
aaaa(lp3826
VH9NBH0_YEASX
p3827
aVH9NBH0
p3828
ag6
aI4932
a(lp3829
(lp3830
g17
ag18
aS'0.56'
p3831
aa(lp3832
g21
ag22
aS'0.48'
p3833
aa(lp3834
g29
ag30
aS'0.47'
p3835
aa(lp3836
g25
ag26
aS'0.47'
p3837
aa(lp3838
g33
ag34
aS'0.46'
p3839
aa(lp3840
g37
ag38
aS'0.46'
p3841
aa(lp3842
g41
ag42
aS'0.46'
p3843
aaaa(lp3844
VH9NBF5_YEASX
p3845
aVH9NBF5
p3846
ag6
aI4932
a(lp3847
(lp3848
g17
ag18
aS'0.7'
p3849
aa(lp3850
g21
ag22
aS'0.54'
p3851
aa(lp3852
g25
ag26
aS'0.52'
p3853
aa(lp3854
g29
ag30
aS'0.51'
p3855
aa(lp3856
g33
ag34
aS'0.49'
p3857
aa(lp3858
g37
ag38
aS'0.49'
p3859
aa(lp3860
g41
ag42
aS'0.49'
p3861
aaaa(lp3862
VE9P9C6_YEASX
p3863
aVE9P9C6
p3864
ag6
aI4932
a(lp3865
(lp3866
g327
ag328
aS'0.84'
p3867
aa(lp3868
g331
ag332
aS'0.14'
p3869
aa(lp3870
g335
ag336
aS'0.14'
p3871
aa(lp3872
g339
ag340
aS'0.14'
p3873
aa(lp3874
g151
ag152
aS'0.14'
p3875
aa(lp3876
g345
ag346
aS'0.14'
p3877
aa(lp3878
g349
ag350
aS'0.14'
p3879
aa(lp3880
g353
ag354
aS'0.14'
p3881
aaaa(lp3882
VH9NBI1_YEASX
p3883
aVH9NBI1
p3884
ag6
aI4932
a(lp3885
(lp3886
g17
ag18
aS'0.67'
p3887
aa(lp3888
g21
ag22
aS'0.54'
p3889
aa(lp3890
g25
ag26
aS'0.53'
p3891
aa(lp3892
g29
ag30
aS'0.51'
p3893
aa(lp3894
g33
ag34
aS'0.49'
p3895
aa(lp3896
g37
ag38
aS'0.49'
p3897
aa(lp3898
g41
ag42
aS'0.49'
p3899
aaaa(lp3900
VE9P8D4_YEASX
p3901
aVE9P8D4
p3902
ag6
aI4932
a(lp3903
(lp3904
g1101
ag1102
aS'0.87'
p3905
aa(lp3906
g1097
ag1098
aS'0.87'
p3907
aa(lp3908
g1105
ag1106
aS'0.87'
p3909
aa(lp3910
g1109
ag1110
aS'0.73'
p3911
aaaa(lp3912
VE9P9C2_YEASX
p3913
aVE9P9C2
p3914
ag6
aI4932
a(lp3915
(lp3916
g151
ag152
aS'0.89'
p3917
aaaa(lp3918
VE9P9D4_YEASX
p3919
aVE9P9D4
p3920
ag6
aI4932
a(lp3921
(lp3922
g1305
ag1306
aS'0.87'
p3923
aa(lp3924
g1309
ag1310
aS'0.54'
p3925
aaaa(lp3926
VH9NBG5_YEASX
p3927
aVH9NBG5
p3928
ag6
aI4932
a(lp3929
(lp3930
g17
ag18
aS'0.56'
p3931
aa(lp3932
g21
ag22
aS'0.48'
p3933
aa(lp3934
g29
ag30
aS'0.47'
p3935
aa(lp3936
g25
ag26
aS'0.47'
p3937
aa(lp3938
g33
ag34
aS'0.46'
p3939
aa(lp3940
g37
ag38
aS'0.46'
p3941
aa(lp3942
g41
ag42
aS'0.46'
p3943
aaaa(lp3944
VQ7LVY4_YEASX
p3945
aVQ7LVY4
p3946
ag6
aI4932
a(lp3947
(lp3948
g1101
ag1102
aS'0.87'
p3949
aa(lp3950
g1097
ag1098
aS'0.87'
p3951
aa(lp3952
g1105
ag1106
aS'0.86'
p3953
aa(lp3954
g1109
ag1110
aS'0.8'
p3955
aaaa(lp3956
VQ7LLZ5_YEASX
p3957
aVQ7LLZ5
p3958
ag6
aI4932
a(lp3959
(lp3960
g3813
ag3814
aS'0.48'
p3961
aa(lp3962
g865
ag866
aS'0.48'
p3963
aa(lp3964
VGO:0004667
p3965
aVprostaglandin-D synthase activity
p3966
aS'0.44'
p3967
aa(lp3968
g57
ag58
aS'0.4'
p3969
aa(lp3970
g605
ag606
aS'0.4'
p3971
aa(lp3972
g3823
ag3824
aS'0.4'
p3973
aaaa(lp3974
VH9TW32_YEASX
p3975
aVH9TW32
p3976
ag6
aI4932
a(lp3977
(lp3978
g151
ag152
aS'0.69'
p3979
aa(lp3980
g699
ag700
aS'0.08'
p3981
aaaa(lp3982
VG8EXG2_YEASX
p3983
aVG8EXG2
p3984
ag6
aI4932
a(lp3985
(lp3986
g649
ag650
aS'0.77'
p3987
aa(lp3988
g653
ag654
aS'0.14'
p3989
aaaa(lp3990
VE9P9F7_YEASX
p3991
aVE9P9F7
p3992
ag6
aI4932
a(lp3993
(lp3994
VGO:0019789
p3995
aVSUMO ligase activity
p3996
aS'0.81'
p3997
aa(lp3998
g151
ag152
aS'0.79'
p3999
aaaa(lp4000
VH9TT22_YEASX
p4001
aVH9TT22
p4002
ag6
aI4932
a(lp4003
(lp4004
g1263
ag1264
aS'0.22'
p4005
aa(lp4006
g1269
ag1270
aS'0.17'
p4007
aa(lp4008
g215
ag216
aS'0.15'
p4009
aaaa(lp4010
VH9NBJ7_YEASX
p4011
aVH9NBJ7
p4012
ag6
aI4932
a(lp4013
(lp4014
g17
ag18
aS'0.65'
p4015
aa(lp4016
g21
ag22
aS'0.54'
p4017
aa(lp4018
g25
ag26
aS'0.52'
p4019
aa(lp4020
g29
ag30
aS'0.51'
p4021
aa(lp4022
g33
ag34
aS'0.49'
p4023
aa(lp4024
g37
ag38
aS'0.49'
p4025
aa(lp4026
g41
ag42
aS'0.49'
p4027
aaaa(lp4028
VH9TVV0_YEASX
p4029
aVH9TVV0
p4030
ag6
aI4932
a(lp4031
(lp4032
g151
ag152
aS'0.69'
p4033
aa(lp4034
g699
ag700
aS'0.06'
p4035
aaaa(lp4036
VE9P8R1_YEASX
p4037
aVE9P8R1
p4038
ag6
aI4932
a(lp4039
(lp4040
VGO:0004026
p4041
aValcohol O-acetyltransferase activity
p4042
aS'0.84'
p4043
aa(lp4044
VGO:0008080
p4045
aVN-acetyltransferase activity
p4046
aS'0.44'
p4047
aaaa(lp4048
VG4XS34_YEASX
p4049
aVG4XS34
p4050
ag6
aI4932
a(lp4051
(lp4052
g2111
ag2112
aS'0.82'
p4053
aa(lp4054
g57
ag58
aS'0.76'
p4055
aa(lp4056
g2117
ag2118
aS'0.71'
p4057
aaaa(lp4058
VE9P9V7_YEASX
p4059
aVE9P9V7
p4060
ag6
aI4932
a(lp4061
(lp4062
g25
ag26
aS'0.67'
p4063
aa(lp4064
g269
ag270
aS'0.67'
p4065
aaaa(lp4066
VQ70CG3_YEASX
p4067
aVQ70CG3
p4068
ag6
aI4932
a(lp4069
(lp4070
g151
ag152
aS'0.74'
p4071
aa(lp4072
g155
ag156
aS'0.39'
p4073
aaaa(lp4074
VH9NBF3_YEASX
p4075
aVH9NBF3
p4076
ag6
aI4932
a(lp4077
(lp4078
g17
ag18
aS'0.56'
p4079
aa(lp4080
g21
ag22
aS'0.48'
p4081
aa(lp4082
g25
ag26
aS'0.47'
p4083
aa(lp4084
g29
ag30
aS'0.46'
p4085
aa(lp4086
g33
ag34
aS'0.46'
p4087
aa(lp4088
g37
ag38
aS'0.46'
p4089
aa(lp4090
g41
ag42
aS'0.46'
p4091
aaaa(lp4092
VH9NB25_YEASX
p4093
aVH9NB25
p4094
ag6
aI4932
a(lp4095
(lp4096
g135
ag136
aS'0.95'
p4097
aa(lp4098
g139
ag140
aS'0.16'
p4099
aa(lp4100
g143
ag144
aS'0.15'
p4101
aaaa(lp4102
VC5I8J9_YEASX
p4103
aVC5I8J9
p4104
ag6
aI4932
a(lp4105
(lp4106
g135
ag136
aS'0.95'
p4107
aa(lp4108
g139
ag140
aS'0.16'
p4109
aa(lp4110
g143
ag144
aS'0.15'
p4111
aaaa(lp4112
VH9NBK3_YEASX
p4113
aVH9NBK3
p4114
ag6
aI4932
a(lp4115
(lp4116
g17
ag18
aS'0.76'
p4117
aa(lp4118
g21
ag22
aS'0.54'
p4119
aa(lp4120
g25
ag26
aS'0.53'
p4121
aa(lp4122
g29
ag30
aS'0.51'
p4123
aa(lp4124
g33
ag34
aS'0.49'
p4125
aa(lp4126
g37
ag38
aS'0.49'
p4127
aa(lp4128
g41
ag42
aS'0.49'
p4129
aaaa(lp4130
VD3W799_YEASX
p4131
aVD3W799
p4132
ag6
aI4932
a(lp4133
(lp4134
g327
ag328
aS'0.82'
p4135
aa(lp4136
g331
ag332
aS'0.36'
p4137
aa(lp4138
g335
ag336
aS'0.36'
p4139
aa(lp4140
g339
ag340
aS'0.36'
p4141
aa(lp4142
g151
ag152
aS'0.36'
p4143
aa(lp4144
g345
ag346
aS'0.36'
p4145
aa(lp4146
g349
ag350
aS'0.36'
p4147
aa(lp4148
g353
ag354
aS'0.36'
p4149
aaaa(lp4150
VH9TTQ2_YEASX
p4151
aVH9TTQ2
p4152
ag6
aI4932
a(lp4153
(lp4154
g1431
ag1432
aS'0.95'
p4155
aa(lp4156
g1435
ag1436
aS'0.64'
p4157
aaaa(lp4158
VQ45TA4_YEASX
p4159
aVQ45TA4
p4160
ag6
aI4932
a(lp4161
(lp4162
g2501
ag2502
aS'0.92'
p4163
aa(lp4164
VGO:0001152
p4165
aVRNA polymerase III type 1 promoter sequence-specific DNA binding TFIIIC recruiting transcription factor activity
p4166
aS'0.7'
p4167
aaaa(lp4168
VH9TTB4_YEASX
p4169
aVH9TTB4
p4170
ag6
aI4932
a(lp4171
(lp4172
g1263
ag1264
aS'0.22'
p4173
aa(lp4174
g215
ag216
aS'0.19'
p4175
aa(lp4176
g1269
ag1270
aS'0.17'
p4177
aaaa(lp4178
VE9P9C4_YEASX
p4179
aVE9P9C4
p4180
ag6
aI4932
a(lp4181
(lp4182
g151
ag152
aS'0.89'
p4183
aaaa(lp4184
VQ6Q7I0_YEASX
p4185
aVQ6Q7I0
p4186
ag6
aI4932
a(lp4187
(lp4188
g127
ag128
aS'0.7'
p4189
aa(lp4190
g123
ag124
aS'0.66'
p4191
aaaa(lp4192
VE9P9F8_YEASX
p4193
aVE9P9F8
p4194
ag6
aI4932
a(lp4195
(lp4196
g1009
ag1010
aS'0.85'
p4197
aa(lp4198
g1875
ag1876
aS'0.4'
p4199
aa(lp4200
g17
ag18
aS'0.35'
p4201
aa(lp4202
g1881
ag1882
aS'0.35'
p4203
aa(lp4204
g1891
ag1892
aS'0.35'
p4205
aa(lp4206
g821
ag822
aS'0.35'
p4207
aa(lp4208
g1885
ag1886
aS'0.35'
p4209
aa(lp4210
g1895
ag1896
aS'0.35'
p4211
aaaa(lp4212
VH9TYR6_YEASX
p4213
aVH9TYR6
p4214
ag6
aI4932
a(lp4215
(lp4216
g151
ag152
aS'0.74'
p4217
aaaa(lp4218
VH9NBL2_YEASX
p4219
aVH9NBL2
p4220
ag6
aI4932
a(lp4221
(lp4222
g17
ag18
aS'0.62'
p4223
aa(lp4224
g29
ag30
aS'0.5'
p4225
aa(lp4226
g21
ag22
aS'0.47'
p4227
aa(lp4228
g25
ag26
aS'0.46'
p4229
aa(lp4230
g37
ag38
aS'0.43'
p4231
aa(lp4232
g33
ag34
aS'0.42'
p4233
aa(lp4234
g41
ag42
aS'0.42'
p4235
aaaa(lp4236
VE9P9F6_YEASX
p4237
aVE9P9F6
p4238
ag6
aI4932
a(lp4239
(lp4240
VGO:0048244
p4241
aVphytanoyl-CoA dioxygenase activity
p4242
aS'0.82'
p4243
aa(lp4244
g2171
ag2172
aS'0.31'
p4245
aa(lp4246
g1371
ag1372
aS'0.31'
p4247
aa(lp4248
VGO:0048037
p4249
aVcofactor binding
p4250
aS'0.31'
p4251
aa(lp4252
g151
ag152
aS'0.31'
p4253
aaaa(lp4254
VE9P8Q3_YEASX
p4255
aVE9P8Q3
p4256
ag6
aI4932
a(lp4257
(lp4258
g127
ag128
aS'0.71'
p4259
aa(lp4260
g123
ag124
aS'0.65'
p4261
aaaa(lp4262
VH9U0Q4_YEASX
p4263
aVH9U0Q4
p4264
ag6
aI4932
a(lp4265
(lp4266
g1009
ag1010
aS'0.71'
p4267
aa(lp4268
g155
ag156
aS'0.51'
p4269
aaaa(lp4270
VE9P990_YEASX
p4271
aVE9P990
p4272
ag6
aI4932
a(lp4273
(lp4274
g1175
ag1176
aS'0.91'
p4275
aa(lp4276
g1179
ag1180
aS'0.28'
p4277
aaaa(lp4278
VH9NBG2_YEASX
p4279
aVH9NBG2
p4280
ag6
aI4932
a(lp4281
(lp4282
g17
ag18
aS'0.69'
p4283
aa(lp4284
g29
ag30
aS'0.5'
p4285
aa(lp4286
g21
ag22
aS'0.5'
p4287
aa(lp4288
g25
ag26
aS'0.49'
p4289
aa(lp4290
g33
ag34
aS'0.45'
p4291
aa(lp4292
g37
ag38
aS'0.45'
p4293
aa(lp4294
g41
ag42
aS'0.45'
p4295
aaaa(lp4296
VG8EXE3_YEASX
p4297
aVG8EXE3
p4298
ag6
aI4932
a(lp4299
(lp4300
g627
ag628
aS'0.93'
p4301
aa(lp4302
g631
ag632
aS'0.13'
p4303
aa(lp4304
g57
ag58
aS'0.13'
p4305
aa(lp4306
g551
ag552
aS'0.13'
p4307
aaaa(lp4308
VE9PA28_YEASX
p4309
aVE9PA28
p4310
ag6
aI4932
a(lp4311
(lp4312
VGO:0001191
p4313
aVRNA polymerase II transcription factor binding transcription factor activity involved in negative regulation of transcription
p4314
aS'0.8'
p4315
aa(lp4316
g439
ag440
aS'0.06'
p4317
aa(lp4318
g431
ag432
aS'0.05'
p4319
aaaa(lp4320
VE9P985_YEASX
p4321
aVE9P985
p4322
ag6
aI4932
a(lp4323
(lp4324
g1009
ag1010
aS'0.84'
p4325
aa(lp4326
g1875
ag1876
aS'0.44'
p4327
aa(lp4328
g17
ag18
aS'0.42'
p4329
aa(lp4330
g1881
ag1882
aS'0.42'
p4331
aa(lp4332
g1891
ag1892
aS'0.42'
p4333
aa(lp4334
g821
ag822
aS'0.42'
p4335
aa(lp4336
g1885
ag1886
aS'0.42'
p4337
aa(lp4338
g1895
ag1896
aS'0.42'
p4339
aaaa(lp4340
VD6C7H3_YEASX
p4341
aVD6C7H3
p4342
ag6
aI4932
a(lp4343
(lp4344
g497
ag498
aS'0.69'
p4345
aaaa(lp4346
VD6C7G5_YEASX
p4347
aVD6C7G5
p4348
ag6
aI4932
a(lp4349
(lp4350
g1503
ag1504
aS'0.87'
p4351
aa(lp4352
g1507
ag1508
aS'0.86'
p4353
aaaa(lp4354
VB0M8U9_YEASX
p4355
aVB0M8U9
p4356
ag6
aI4932
a(lp4357
(lp4358
g1009
ag1010
aS'0.85'
p4359
aa(lp4360
g1875
ag1876
aS'0.4'
p4361
aa(lp4362
g17
ag18
aS'0.35'
p4363
aa(lp4364
g1881
ag1882
aS'0.35'
p4365
aa(lp4366
g1885
ag1886
aS'0.35'
p4367
aa(lp4368
g821
ag822
aS'0.35'
p4369
aa(lp4370
g1891
ag1892
aS'0.35'
p4371
aa(lp4372
g1895
ag1896
aS'0.35'
p4373
aaaa(lp4374
VE9P8K1_YEASX
p4375
aVE9P8K1
p4376
ag6
aI4932
a(lp4377
(lp4378
g151
ag152
aS'0.76'
p4379
aa(lp4380
g155
ag156
aS'0.39'
p4381
aaaa(lp4382
VD3W797_YEASX
p4383
aVD3W797
p4384
ag6
aI4932
a(lp4385
(lp4386
g327
ag328
aS'0.83'
p4387
aa(lp4388
g331
ag332
aS'0.27'
p4389
aa(lp4390
g335
ag336
aS'0.27'
p4391
aa(lp4392
g339
ag340
aS'0.27'
p4393
aa(lp4394
g151
ag152
aS'0.27'
p4395
aa(lp4396
g345
ag346
aS'0.27'
p4397
aa(lp4398
g349
ag350
aS'0.27'
p4399
aa(lp4400
g353
ag354
aS'0.27'
p4401
aaaa(lp4402
VH9TVZ7_YEASX
p4403
aVH9TVZ7
p4404
ag6
aI4932
a(lp4405
(lp4406
g151
ag152
aS'0.69'
p4407
aa(lp4408
g699
ag700
aS'0.07'
p4409
aaaa(lp4410
VE9P8K9_YEASX
p4411
aVE9P8K9
p4412
ag6
aI4932
a(lp4413
(lp4414
g151
ag152
aS'0.87'
p4415
aa(lp4416
g1065
ag1066
aS'0.57'
p4417
aa(lp4418
g1785
ag1786
aS'0.57'
p4419
aa(lp4420
g439
ag440
aS'0.57'
p4421
aaaa(lp4422
VE9P8Q5_YEASX
p4423
aVE9P8Q5
p4424
ag6
aI4932
a(lp4425
(lp4426
g127
ag128
aS'0.76'
p4427
aa(lp4428
g123
ag124
aS'0.65'
p4429
aaaa(lp4430
VF4MDA5_YEASX
p4431
aVF4MDA5
p4432
ag6
aI4932
a(lp4433
(lp4434
g29
ag30
aS'0.94'
p4435
aa(lp4436
g1105
ag1106
aS'0.42'
p4437
aaaa(lp4438
VG3FCP2_YEASX
p4439
aVG3FCP2
p4440
ag6
aI4932
a(lp4441
(lp4442
VGO:0008744
p4443
aVL-xylulokinase activity
p4444
aS'0.92'
p4445
aa(lp4446
g151
ag152
aS'0.91'
p4447
aa(lp4448
VGO:0008993
p4449
aVrhamnulokinase activity
p4450
aS'0.91'
p4451
aa(lp4452
VGO:0004370
p4453
aVglycerol kinase activity
p4454
aS'0.91'
p4455
aa(lp4456
VGO:0047878
p4457
aVerythritol kinase activity
p4458
aS'0.91'
p4459
aa(lp4460
VGO:0071518
p4461
aVautoinducer-2 kinase activity
p4462
aS'0.91'
p4463
aa(lp4464
VGO:0008737
p4465
aVL-fuculokinase activity
p4466
aS'0.91'
p4467
aa(lp4468
VGO:0050277
p4469
aVsedoheptulokinase activity
p4470
aS'0.86'
p4471
aa(lp4472
VGO:0008741
p4473
aVribulokinase activity
p4474
aS'0.77'
p4475
aaaa(lp4476
VE9P9D8_YEASX
p4477
aVE9P9D8
p4478
ag6
aI4932
a(lp4479
(lp4480
g3517
ag3518
aS'0.87'
p4481
aa(lp4482
g3521
ag3522
aS'0.87'
p4483
aa(lp4484
g3525
ag3526
aS'0.87'
p4485
aa(lp4486
g3529
ag3530
aS'0.87'
p4487
aa(lp4488
g3533
ag3534
aS'0.87'
p4489
aa(lp4490
g3161
ag3162
aS'0.87'
p4491
aa(lp4492
g3539
ag3540
aS'0.87'
p4493
aa(lp4494
g1309
ag1310
aS'0.8'
p4495
aaaa(lp4496
VC5I8I4_YEASX
p4497
aVC5I8I4
p4498
ag6
aI4932
a(lp4499
(lp4500
g649
ag650
aS'0.71'
p4501
aa(lp4502
g653
ag654
aS'0.47'
p4503
aa(lp4504
g657
ag658
aS'0.42'
p4505
aaaa(lp4506
VE9PA38_YEASX
p4507
aVE9PA38
p4508
ag6
aI4932
a(lp4509
(lp4510
VGO:0004588
p4511
aVorotate phosphoribosyltransferase activity
p4512
aS'0.95'
p4513
aa(lp4514
g17
ag18
aS'0.14'
p4515
aa(lp4516
g551
ag552
aS'0.11'
p4517
aaaa(lp4518
VC5I8G8_YEASX
p4519
aVC5I8G8
p4520
ag6
aI4932
a(lp4521
(lp4522
g627
ag628
aS'0.93'
p4523
aa(lp4524
g631
ag632
aS'0.13'
p4525
aa(lp4526
g57
ag58
aS'0.13'
p4527
aa(lp4528
g551
ag552
aS'0.13'
p4529
aaaa(lp4530
VE9P8G0_YEASX
p4531
aVE9P8G0
p4532
ag6
aI4932
a(lp4533
(lp4534
g1009
ag1010
aS'0.85'
p4535
aa(lp4536
g1875
ag1876
aS'0.4'
p4537
aa(lp4538
g17
ag18
aS'0.35'
p4539
aa(lp4540
g1881
ag1882
aS'0.35'
p4541
aa(lp4542
g1891
ag1892
aS'0.35'
p4543
aa(lp4544
g821
ag822
aS'0.35'
p4545
aa(lp4546
g1885
ag1886
aS'0.35'
p4547
aa(lp4548
g1895
ag1896
aS'0.35'
p4549
aaaa(lp4550
VE9P9V3_YEASX
p4551
aVE9P9V3
p4552
ag6
aI4932
a(lp4553
(lp4554
VGO:0042277
p4555
aVpeptide binding
p4556
aS'0.89'
p4557
aa(lp4558
g123
ag124
aS'0.02'
p4559
aa(lp4560
g2117
ag2118
aS'0.02'
p4561
aa(lp4562
g311
ag312
aS'0.02'
p4563
aa(lp4564
g135
ag136
aS'0.02'
p4565
aa(lp4566
g555
ag556
aS'0.02'
p4567
aa(lp4568
g2111
ag2112
aS'0.02'
p4569
aaaa(lp4570
VE9P983_YEASX
p4571
aVE9P983
p4572
ag6
aI4932
a(lp4573
(lp4574
VGO:0003743
p4575
aVtranslation initiation factor activity
p4576
aS'0.84'
p4577
aa(lp4578
VGO:0008134
p4579
aVtranscription factor binding
p4580
aS'0.46'
p4581
aaaa(lp4582
VD2XNB3_YEASX
p4583
aVD2XNB3
p4584
ag6
aI4932
a(lp4585
(lp4586
g151
ag152
aS'0.69'
p4587
aaaa(lp4588
VQ687B0_YEASX
p4589
aVQ687B0
p4590
ag6
aI4932
a(lp4591
(lp4592
g151
ag152
aS'0.74'
p4593
aa(lp4594
g155
ag156
aS'0.42'
p4595
aaaa(lp4596
VB2NIH5_YEASX
p4597
aVB2NIH5
p4598
ag6
aI4932
a(lp4599
(lp4600
g1515
ag1516
aS'0.78'
p4601
aaaa(lp4602
VG8EXC8_YEASX
p4603
aVG8EXC8
p4604
ag6
aI4932
a(lp4605
(lp4606
g627
ag628
aS'0.93'
p4607
aa(lp4608
g631
ag632
aS'0.13'
p4609
aa(lp4610
g57
ag58
aS'0.13'
p4611
aa(lp4612
g551
ag552
aS'0.13'
p4613
aaaa(lp4614
VB2NIF4_YEASX
p4615
aVB2NIF4
p4616
ag6
aI4932
a(lp4617
(lp4618
g1515
ag1516
aS'0.92'
p4619
aa(lp4620
g1519
ag1520
aS'0.31'
p4621
aa(lp4622
g1523
ag1524
aS'0.27'
p4623
aaaa(lp4624
VE9P9M0_YEASX
p4625
aVE9P9M0
p4626
ag6
aI4932
a(lp4627
(lp4628
g389
ag390
aS'0.85'
p4629
aa(lp4630
VGO:0046872
p4631
aVmetal ion binding
p4632
aS'0.01'
p4633
aa(lp4634
VGO:0046983
p4635
aVprotein dimerization activity
p4636
aS'0.01'
p4637
aa(lp4638
VGO:0032550
p4639
aVpurine ribonucleoside binding
p4640
aS'0.01'
p4641
aa(lp4642
VGO:0032559
p4643
aVadenyl ribonucleotide binding
p4644
aS'0.01'
p4645
aa(lp4646
VGO:0031406
p4647
aVcarboxylic acid binding
p4648
aS'0.01'
p4649
aaaa(lp4650
VE9P9L1_YEASX
p4651
aVE9P9L1
p4652
ag6
aI4932
a(lp4653
(lp4654
g649
ag650
aS'0.7'
p4655
aa(lp4656
g653
ag654
aS'0.38'
p4657
aa(lp4658
g657
ag658
aS'0.31'
p4659
aaaa(lp4660
VA2Q129_YEASX
p4661
aVA2Q129
p4662
ag6
aI4932
a(lp4663
(lp4664
g845
ag846
aS'0.86'
p4665
aa(lp4666
g1737
ag1738
aS'0.05'
p4667
aa(lp4668
g699
ag700
aS'0.05'
p4669
aa(lp4670
g801
ag802
aS'0.04'
p4671
aa(lp4672
g695
ag696
aS'0.04'
p4673
aa(lp4674
g1747
ag1748
aS'0.04'
p4675
aaaa(lp4676
VH9TZ81_YEASX
p4677
aVH9TZ81
p4678
ag6
aI4932
a(lp4679
(lp4680
g711
ag712
aS'0.9'
p4681
aa(lp4682
g707
ag708
aS'0.84'
p4683
aa(lp4684
g151
ag152
aS'0.7'
p4685
aaaa(lp4686
VG8EXD7_YEASX
p4687
aVG8EXD7
p4688
ag6
aI4932
a(lp4689
(lp4690
g627
ag628
aS'0.92'
p4691
aa(lp4692
g631
ag632
aS'0.14'
p4693
aa(lp4694
g57
ag58
aS'0.14'
p4695
aa(lp4696
g551
ag552
aS'0.14'
p4697
aaaa(lp4698
VQ7LVY5_YEASX
p4699
aVQ7LVY5
p4700
ag6
aI4932
a(lp4701
(lp4702
g1101
ag1102
aS'0.87'
p4703
aa(lp4704
g1097
ag1098
aS'0.87'
p4705
aa(lp4706
g1105
ag1106
aS'0.86'
p4707
aa(lp4708
g1109
ag1110
aS'0.76'
p4709
aaaa(lp4710
VH9TVL0_YEASX
p4711
aVH9TVL0
p4712
ag6
aI4932
a(lp4713
(lp4714
g627
ag628
aS'0.93'
p4715
aa(lp4716
g631
ag632
aS'0.13'
p4717
aa(lp4718
g57
ag58
aS'0.13'
p4719
aa(lp4720
g551
ag552
aS'0.13'
p4721
aaaa(lp4722
VE9P9V5_YEASX
p4723
aVE9P9V5
p4724
ag6
aI4932
a(lp4725
(lp4726
g4555
ag4556
aS'0.89'
p4727
aa(lp4728
g123
ag124
aS'0.16'
p4729
aaaa(lp4730
VH9NBG0_YEASX
p4731
aVH9NBG0
p4732
ag6
aI4932
a(lp4733
(lp4734
g17
ag18
aS'0.51'
p4735
aa(lp4736
g29
ag30
aS'0.51'
p4737
aaaa(lp4738
VD0UZV5_YEASX
p4739
aVD0UZV5
p4740
ag6
aI4932
a(lp4741
(lp4742
VGO:0000319
p4743
aVsulfite transmembrane transporter activity
p4744
aS'0.83'
p4745
aa(lp4746
VGO:0097434
p4747
aVsuccinate:hydrogen symporter activity
p4748
aS'0.05'
p4749
aa(lp4750
VGO:0015366
p4751
aVmalate:hydrogen symporter activity
p4752
aS'0.05'
p4753
aaaa(lp4754
VD3W7A1_YEASX
p4755
aVD3W7A1
p4756
ag6
aI4932
a(lp4757
(lp4758
g327
ag328
aS'0.84'
p4759
aa(lp4760
g331
ag332
aS'0.12'
p4761
aa(lp4762
g335
ag336
aS'0.12'
p4763
aa(lp4764
g339
ag340
aS'0.12'
p4765
aa(lp4766
g151
ag152
aS'0.12'
p4767
aa(lp4768
g345
ag346
aS'0.12'
p4769
aa(lp4770
g349
ag350
aS'0.12'
p4771
aa(lp4772
g353
ag354
aS'0.12'
p4773
aaaa(lp4774
VQ45U39_YEASX
p4775
aVQ45U39
p4776
ag6
aI4932
a(lp4777
(lp4778
g2501
ag2502
aS'0.92'
p4779
aa(lp4780
g4165
ag4166
aS'0.72'
p4781
aaaa(lp4782
VH9TW30_YEASX
p4783
aVH9TW30
p4784
ag6
aI4932
a(lp4785
(lp4786
g151
ag152
aS'0.69'
p4787
aa(lp4788
g699
ag700
aS'0.07'
p4789
aaaa(lp4790
VD6C7E8_YEASX
p4791
aVD6C7E8
p4792
ag6
aI4932
a(lp4793
(lp4794
g29
ag30
aS'0.52'
p4795
aa(lp4796
g17
ag18
aS'0.24'
p4797
aaaa(lp4798
VAMYI_YEASX
p4799
aVP29760
p4800
ag6
aI4932
a(lp4801
(lp4802
VGO:0004339
p4803
aVglucan 1,4-alpha-glucosidase activity
p4804
aS'0.92'
p4805
aa(lp4806
g551
ag552
aS'0.02'
p4807
aa(lp4808
VGO:0004689
p4809
aVphosphorylase kinase activity
p4810
aS'0.02'
p4811
aa(lp4812
VGO:0004105
p4813
aVcholine-phosphate cytidylyltransferase activity
p4814
aS'0.02'
p4815
aa(lp4816
VGO:0004555
p4817
aValpha,alpha-trehalase activity
p4818
aS'0.02'
p4819
aa(lp4820
g151
ag152
aS'0.02'
p4821
aa(lp4822
VGO:0042301
p4823
aVphosphate ion binding
p4824
aS'0.02'
p4825
aaaa(lp4826
VQ687A9_YEASX
p4827
aVQ687A9
p4828
ag6
aI4932
a(lp4829
(lp4830
g151
ag152
aS'0.76'
p4831
aa(lp4832
g155
ag156
aS'0.02'
p4833
aaaa(lp4834
VE9P9K1_YEASX
p4835
aVE9P9K1
p4836
ag6
aI4932
a(lp4837
(lp4838
g17
ag18
aS'0.68'
p4839
aa(lp4840
g29
ag30
aS'0.5'
p4841
aa(lp4842
g21
ag22
aS'0.47'
p4843
aa(lp4844
g25
ag26
aS'0.46'
p4845
aa(lp4846
g37
ag38
aS'0.43'
p4847
aa(lp4848
g33
ag34
aS'0.42'
p4849
aa(lp4850
g41
ag42
aS'0.42'
p4851
aaaa(lp4852
VC5I8I2_YEASX
p4853
aVC5I8I2
p4854
ag6
aI4932
a(lp4855
(lp4856
g649
ag650
aS'0.71'
p4857
aa(lp4858
g653
ag654
aS'0.43'
p4859
aa(lp4860
g657
ag658
aS'0.37'
p4861
aaaa(lp4862
VE1AFY9_YEASX
p4863
aVE1AFY9
p4864
ag6
aI4932
a(lp4865
(lp4866
g581
ag582
aS'0.88'
p4867
aa(lp4868
g585
ag586
aS'0.32'
p4869
aa(lp4870
g589
ag590
aS'0.26'
p4871
aa(lp4872
g593
ag594
aS'0.25'
p4873
aa(lp4874
g597
ag598
aS'0.25'
p4875
aa(lp4876
g601
ag602
aS'0.25'
p4877
aa(lp4878
g605
ag606
aS'0.25'
p4879
aa(lp4880
g609
ag610
aS'0.25'
p4881
aa(lp4882
g151
ag152
aS'0.25'
p4883
aa(lp4884
g615
ag616
aS'0.25'
p4885
aa(lp4886
g619
ag620
aS'0.25'
p4887
aaaa(lp4888
VQ6Q7H4_YEASX
p4889
aVQ6Q7H4
p4890
ag6
aI4932
a(lp4891
(lp4892
g17
ag18
aS'0.69'
p4893
aa(lp4894
g439
ag440
aS'0.64'
p4895
aaaa(lp4896
VG8EXG8_YEASX
p4897
aVG8EXG8
p4898
ag6
aI4932
a(lp4899
(lp4900
g649
ag650
aS'0.74'
p4901
aa(lp4902
g653
ag654
aS'0.27'
p4903
aa(lp4904
g657
ag658
aS'0.24'
p4905
aaaa(lp4906
VF8LG02_YEASX
p4907
aVF8LG02
p4908
ag6
aI4932
a(lp4909
(lp4910
g1009
ag1010
aS'0.84'
p4911
aa(lp4912
g1875
ag1876
aS'0.43'
p4913
aa(lp4914
g17
ag18
aS'0.4'
p4915
aa(lp4916
g1881
ag1882
aS'0.4'
p4917
aa(lp4918
g1891
ag1892
aS'0.4'
p4919
aa(lp4920
g821
ag822
aS'0.4'
p4921
aa(lp4922
g1885
ag1886
aS'0.4'
p4923
aa(lp4924
g1895
ag1896
aS'0.4'
p4925
aaaa(lp4926
VH9TVW2_YEASX
p4927
aVH9TVW2
p4928
ag6
aI4932
a(lp4929
(lp4930
g151
ag152
aS'0.69'
p4931
aa(lp4932
g699
ag700
aS'0.07'
p4933
aaaa(lp4934
VH9NBC3_YEASX
p4935
aVH9NBC3
p4936
ag6
aI4932
a(lp4937
(lp4938
g1367
ag1368
aS'0.84'
p4939
aa(lp4940
g547
ag548
aS'0.3'
p4941
aa(lp4942
g57
ag58
aS'0.3'
p4943
aa(lp4944
g1371
ag1372
aS'0.27'
p4945
aa(lp4946
g1375
ag1376
aS'0.27'
p4947
aa(lp4948
g1381
ag1382
aS'0.27'
p4949
aa(lp4950
g1387
ag1388
aS'0.27'
p4951
aaaa(lp4952
VG4XS72_YEASX
p4953
aVG4XS72
p4954
ag6
aI4932
a(lp4955
(lp4956
g485
ag486
aS'0.93'
p4957
aa(lp4958
g489
ag490
aS'0.83'
p4959
aa(lp4960
g1155
ag1156
aS'0.75'
p4961
aa(lp4962
g1151
ag1152
aS'0.75'
p4963
aa(lp4964
g151
ag152
aS'0.75'
p4965
aa(lp4966
g555
ag556
aS'0.75'
p4967
aaaa(lp4968
VE9PA00_YEASX
p4969
aVE9PA00
p4970
ag6
aI4932
a(lp4971
(lp4972
VGO:0004012
p4973
aVphospholipid-translocating ATPase activity
p4974
aS'0.94'
p4975
aa(lp4976
VGO:0008559
p4977
aVxenobiotic-transporting ATPase activity
p4978
aS'0.16'
p4979
aaaa(lp4980
VE9P9A9_YEASX
p4981
aVE9P9A9
p4982
ag6
aI4932
a(lp4983
(lp4984
g151
ag152
aS'0.55'
p4985
aa(lp4986
g1523
ag1524
aS'0.54'
p4987
aa(lp4988
VGO:0004864
p4989
aVprotein phosphatase inhibitor activity
p4990
aS'0.52'
p4991
aaaa(lp4992
VE9P987_YEASX
p4993
aVE9P987
p4994
ag6
aI4932
a(lp4995
(lp4996
g1009
ag1010
aS'0.85'
p4997
aa(lp4998
g1875
ag1876
aS'0.4'
p4999
aa(lp5000
g17
ag18
aS'0.35'
p5001
aa(lp5002
g1881
ag1882
aS'0.35'
p5003
aa(lp5004
g1885
ag1886
aS'0.35'
p5005
aa(lp5006
g821
ag822
aS'0.35'
p5007
aa(lp5008
g1891
ag1892
aS'0.35'
p5009
aa(lp5010
g1895
ag1896
aS'0.35'
p5011
aaaa(lp5012
VH9NBJ4_YEASX
p5013
aVH9NBJ4
p5014
ag6
aI4932
a(lp5015
(lp5016
g17
ag18
aS'0.72'
p5017
aa(lp5018
g21
ag22
aS'0.54'
p5019
aa(lp5020
g25
ag26
aS'0.53'
p5021
aa(lp5022
g29
ag30
aS'0.51'
p5023
aa(lp5024
g33
ag34
aS'0.49'
p5025
aa(lp5026
g37
ag38
aS'0.49'
p5027
aa(lp5028
g41
ag42
aS'0.49'
p5029
aaaa(lp5030
VG4XS85_YEASX
p5031
aVG4XS85
p5032
ag6
aI4932
a(lp5033
(lp5034
g485
ag486
aS'0.94'
p5035
aa(lp5036
g489
ag490
aS'0.68'
p5037
aaaa(lp5038
VG4XSJ4_YEASX
p5039
aVG4XSJ4
p5040
ag6
aI4932
a(lp5041
(lp5042
g689
ag690
aS'0.93'
p5043
aa(lp5044
g649
ag650
aS'0.92'
p5045
aa(lp5046
g695
ag696
aS'0.92'
p5047
aa(lp5048
g699
ag700
aS'0.92'
p5049
aaaa(lp5050
VH9TYX6_YEASX
p5051
aVH9TYX6
p5052
ag6
aI4932
a(lp5053
(lp5054
g151
ag152
aS'0.74'
p5055
aaaa(lp5056
VE0ZR12_YEASX
p5057
aVE0ZR12
p5058
ag6
aI4932
a(lp5059
(lp5060
g1175
ag1176
aS'0.86'
p5061
aa(lp5062
g1179
ag1180
aS'0.22'
p5063
aaaa(lp5064
VE9P9H7_YEASX
p5065
aVE9P9H7
p5066
ag6
aI4932
a(lp5067
(lp5068
g1305
ag1306
aS'0.88'
p5069
aa(lp5070
g1309
ag1310
aS'0.72'
p5071
aaaa(lp5072
VE9P8I3_YEASX
p5073
aVE9P8I3
p5074
ag6
aI4932
a(lp5075
(lp5076
g497
ag498
aS'0.69'
p5077
aaaa(lp5078
VD3YHF5_YEASX
p5079
aVD3YHF5
p5080
ag6
aI4932
a(lp5081
(lp5082
g2789
ag2790
aS'0.47'
p5083
aa(lp5084
g551
ag552
aS'0.47'
p5085
aa(lp5086
g57
ag58
aS'0.47'
p5087
aa(lp5088
g2797
ag2798
aS'0.47'
p5089
aa(lp5090
g2801
ag2802
aS'0.47'
p5091
aa(lp5092
g2805
ag2806
aS'0.47'
p5093
aa(lp5094
g1083
ag1084
aS'0.47'
p5095
aa(lp5096
g2811
ag2812
aS'0.47'
p5097
aa(lp5098
g2815
ag2816
aS'0.47'
p5099
aaaa(lp5100
VE9P8Q7_YEASX
p5101
aVE9P8Q7
p5102
ag6
aI4932
a(lp5103
(lp5104
g127
ag128
aS'0.69'
p5105
aa(lp5106
g123
ag124
aS'0.66'
p5107
aaaa(lp5108
VH9TW43_YEASX
p5109
aVH9TW43
p5110
ag6
aI4932
a(lp5111
(lp5112
g151
ag152
aS'0.69'
p5113
aa(lp5114
g699
ag700
aS'0.07'
p5115
aaaa(lp5116
VC9ELN8_YEASX
p5117
aVC9ELN8
p5118
ag6
aI4932
a(lp5119
(lp5120
g1101
ag1102
aS'0.92'
p5121
aa(lp5122
g57
ag58
aS'0.79'
p5123
aaaa(lp5124
VD6C7E6_YEASX
p5125
aVD6C7E6
p5126
ag6
aI4932
a(lp5127
(lp5128
g29
ag30
aS'0.48'
p5129
aa(lp5130
g17
ag18
aS'0.12'
p5131
aaaa(lp5132
VD3W794_YEASX
p5133
aVD3W794
p5134
ag6
aI4932
a(lp5135
(lp5136
g327
ag328
aS'0.83'
p5137
aa(lp5138
g331
ag332
aS'0.22'
p5139
aa(lp5140
g335
ag336
aS'0.22'
p5141
aa(lp5142
g339
ag340
aS'0.22'
p5143
aa(lp5144
g151
ag152
aS'0.22'
p5145
aa(lp5146
g345
ag346
aS'0.22'
p5147
aa(lp5148
g349
ag350
aS'0.22'
p5149
aa(lp5150
g353
ag354
aS'0.22'
p5151
aaaa(lp5152
VQ6XAN7_YEASX
p5153
aVQ6XAN7
p5154
ag6
aI4932
a(lp5155
(lp5156
g497
ag498
aS'0.69'
p5157
aaaa(lp5158
VH9TTW2_YEASX
p5159
aVH9TTW2
p5160
ag6
aI4932
a(lp5161
(lp5162
g1431
ag1432
aS'0.94'
p5163
aa(lp5164
g1435
ag1436
aS'0.91'
p5165
aa(lp5166
g1439
ag1440
aS'0.89'
p5167
aa(lp5168
g1443
ag1444
aS'0.89'
p5169
aa(lp5170
g555
ag556
aS'0.89'
p5171
aaaa(lp5172
VG8EXD1_YEASX
p5173
aVG8EXD1
p5174
ag6
aI4932
a(lp5175
(lp5176
g627
ag628
aS'0.92'
p5177
aa(lp5178
g631
ag632
aS'0.13'
p5179
aa(lp5180
g57
ag58
aS'0.13'
p5181
aa(lp5182
g551
ag552
aS'0.13'
p5183
aaaa(lp5184
VMAL63_YEASX
p5185
aVP10508
p5186
ag6
aI4932
a(lp5187
(lp5188
g431
ag432
aS'0.89'
p5189
aa(lp5190
g439
ag440
aS'0.6'
p5191
aa(lp5192
g435
ag436
aS'0.46'
p5193
aaaa(lp5194
VF4ZZV2_YEASX
p5195
aVF4ZZV2
p5196
ag6
aI4932
a(lp5197
(lp5198
g25
ag26
aS'0.91'
p5199
aa(lp5200
VGO:0004679
p5201
aVAMP-activated protein kinase activity
p5202
aS'0.77'
p5203
aa(lp5204
VGO:0004862
p5205
aVcAMP-dependent protein kinase inhibitor activity
p5206
aS'0.77'
p5207
aa(lp5208
g2149
ag2150
aS'0.77'
p5209
aa(lp5210
VGO:0004691
p5211
aVcAMP-dependent protein kinase activity
p5212
aS'0.77'
p5213
aa(lp5214
VGO:0008603
p5215
aVcAMP-dependent protein kinase regulator activity
p5216
aS'0.77'
p5217
aa(lp5218
VGO:0008607
p5219
aVphosphorylase kinase regulator activity
p5220
aS'0.77'
p5221
aa(lp5222
g805
ag806
aS'0.77'
p5223
aa(lp5224
g555
ag556
aS'0.77'
p5225
aaaa(lp5226
VE9P8K0_YEASX
p5227
aVE9P8K0
p5228
ag6
aI4932
a(lp5229
(lp5230
g151
ag152
aS'0.76'
p5231
aa(lp5232
g155
ag156
aS'0.33'
p5233
aaaa(lp5234
VB0M8V5_YEASX
p5235
aVB0M8V5
p5236
ag6
aI4932
a(lp5237
(lp5238
g1009
ag1010
aS'0.84'
p5239
aa(lp5240
g1875
ag1876
aS'0.44'
p5241
aa(lp5242
g17
ag18
aS'0.41'
p5243
aa(lp5244
g1881
ag1882
aS'0.41'
p5245
aa(lp5246
g1891
ag1892
aS'0.41'
p5247
aa(lp5248
g821
ag822
aS'0.41'
p5249
aa(lp5250
g1885
ag1886
aS'0.41'
p5251
aa(lp5252
g1895
ag1896
aS'0.41'
p5253
aaaa(lp5254
VAQY2_YEASX
p5255
aVP0CD89
p5256
ag6
aI4932
a(lp5257
(lp5258
g327
ag328
aS'0.86'
p5259
aa(lp5260
g331
ag332
aS'0.03'
p5261
aa(lp5262
g335
ag336
aS'0.03'
p5263
aa(lp5264
g339
ag340
aS'0.03'
p5265
aa(lp5266
g151
ag152
aS'0.03'
p5267
aa(lp5268
g345
ag346
aS'0.03'
p5269
aa(lp5270
g349
ag350
aS'0.03'
p5271
aa(lp5272
g353
ag354
aS'0.03'
p5273
aaaa(lp5274
VE9P9I3_YEASX
p5275
aVE9P9I3
p5276
ag6
aI4932
a(lp5277
(lp5278
VGO:0003843
p5279
aV1,3-beta-D-glucan synthase activity
p5280
aS'0.94'
p5281
aa(lp5282
g151
ag152
aS'0.07'
p5283
aaaa(lp5284
VD3W792_YEASX
p5285
aVD3W792
p5286
ag6
aI4932
a(lp5287
(lp5288
g327
ag328
aS'0.86'
p5289
aa(lp5290
g331
ag332
aS'0.03'
p5291
aa(lp5292
g335
ag336
aS'0.03'
p5293
aa(lp5294
g339
ag340
aS'0.03'
p5295
aa(lp5296
g151
ag152
aS'0.03'
p5297
aa(lp5298
g345
ag346
aS'0.03'
p5299
aa(lp5300
g349
ag350
aS'0.03'
p5301
aa(lp5302
g353
ag354
aS'0.03'
p5303
aaaa(lp5304
VE9P8N7_YEASX
p5305
aVE9P8N7
p5306
ag6
aI4932
a(lp5307
(lp5308
g25
ag26
aS'0.82'
p5309
aa(lp5310
g269
ag270
aS'0.82'
p5311
aa(lp5312
g227
ag228
aS'0.82'
p5313
aa(lp5314
g127
ag128
aS'0.69'
p5315
aaaa(lp5316
VH9NBM5_YEASX
p5317
aVH9NBM5
p5318
ag6
aI4932
a(lp5319
(lp5320
g17
ag18
aS'0.56'
p5321
aa(lp5322
g21
ag22
aS'0.48'
p5323
aa(lp5324
g25
ag26
aS'0.47'
p5325
aa(lp5326
g29
ag30
aS'0.46'
p5327
aa(lp5328
g33
ag34
aS'0.46'
p5329
aa(lp5330
g37
ag38
aS'0.46'
p5331
aa(lp5332
g41
ag42
aS'0.46'
p5333
aaaa(lp5334
VH9NBN3_YEASX
p5335
aVH9NBN3
p5336
ag6
aI4932
a(lp5337
(lp5338
g17
ag18
aS'0.75'
p5339
aa(lp5340
g21
ag22
aS'0.54'
p5341
aa(lp5342
g25
ag26
aS'0.53'
p5343
aa(lp5344
g29
ag30
aS'0.51'
p5345
aa(lp5346
g33
ag34
aS'0.49'
p5347
aa(lp5348
g37
ag38
aS'0.49'
p5349
aa(lp5350
g41
ag42
aS'0.49'
p5351
aaaa(lp5352
VH9NBM4_YEASX
p5353
aVH9NBM4
p5354
ag6
aI4932
a(lp5355
(lp5356
g17
ag18
aS'0.55'
p5357
aa(lp5358
g21
ag22
aS'0.47'
p5359
aa(lp5360
g25
ag26
aS'0.47'
p5361
aa(lp5362
g29
ag30
aS'0.46'
p5363
aa(lp5364
g33
ag34
aS'0.46'
p5365
aa(lp5366
g37
ag38
aS'0.46'
p5367
aa(lp5368
g41
ag42
aS'0.46'
p5369
aaaa(lp5370
VE1AFY7_YEASX
p5371
aVE1AFY7
p5372
ag6
aI4932
a(lp5373
(lp5374
g581
ag582
aS'0.88'
p5375
aa(lp5376
g585
ag586
aS'0.32'
p5377
aa(lp5378
g589
ag590
aS'0.26'
p5379
aa(lp5380
g593
ag594
aS'0.25'
p5381
aa(lp5382
g597
ag598
aS'0.25'
p5383
aa(lp5384
g601
ag602
aS'0.25'
p5385
aa(lp5386
g605
ag606
aS'0.25'
p5387
aa(lp5388
g609
ag610
aS'0.25'
p5389
aa(lp5390
g151
ag152
aS'0.25'
p5391
aa(lp5392
g615
ag616
aS'0.25'
p5393
aa(lp5394
g619
ag620
aS'0.25'
p5395
aaaa(lp5396
VE9P9U6_YEASX
p5397
aVE9P9U6
p5398
ag6
aI4932
a(lp5399
(lp5400
g9
ag10
aS'0.83'
p5401
aaaa(lp5402
VE9P8I1_YEASX
p5403
aVE9P8I1
p5404
ag6
aI4932
a(lp5405
(lp5406
g29
ag30
aS'0.53'
p5407
aa(lp5408
g17
ag18
aS'0.29'
p5409
aaaa(lp5410
VE9P8N6_YEASX
p5411
aVE9P8N6
p5412
ag6
aI4932
a(lp5413
(lp5414
g25
ag26
aS'0.83'
p5415
aa(lp5416
g269
ag270
aS'0.83'
p5417
aa(lp5418
g227
ag228
aS'0.76'
p5419
aa(lp5420
g127
ag128
aS'0.67'
p5421
aaaa(lp5422
VG8EXE9_YEASX
p5423
aVG8EXE9
p5424
ag6
aI4932
a(lp5425
(lp5426
g649
ag650
aS'0.76'
p5427
aa(lp5428
g653
ag654
aS'0.21'
p5429
aa(lp5430
g657
ag658
aS'0.18'
p5431
aaaa(lp5432
VD2XNR5_YEASX
p5433
aVD2XNR5
p5434
ag6
aI4932
a(lp5435
(lp5436
g151
ag152
aS'0.79'
p5437
aaaa(lp5438
VH9TVU1_YEASX
p5439
aVH9TVU1
p5440
ag6
aI4932
a(lp5441
(lp5442
g627
ag628
aS'0.9'
p5443
aa(lp5444
g631
ag632
aS'0.23'
p5445
aa(lp5446
g57
ag58
aS'0.23'
p5447
aa(lp5448
g551
ag552
aS'0.23'
p5449
aaaa(lp5450
VH9TTR4_YEASX
p5451
aVH9TTR4
p5452
ag6
aI4932
a(lp5453
(lp5454
g1435
ag1436
aS'0.93'
p5455
aa(lp5456
g1431
ag1432
aS'0.93'
p5457
aa(lp5458
g1439
ag1440
aS'0.92'
p5459
aa(lp5460
g1443
ag1444
aS'0.92'
p5461
aa(lp5462
g555
ag556
aS'0.92'
p5463
aaaa(lp5464
VE9P8N1_YEASX
p5465
aVE9P8N1
p5466
ag6
aI4932
a(lp5467
(lp5468
g563
ag564
aS'0.94'
p5469
aa(lp5470
g57
ag58
aS'0.5'
p5471
aa(lp5472
g569
ag570
aS'0.49'
p5473
aa(lp5474
g573
ag574
aS'0.49'
p5475
aaaa(lp5476
VE9P969_YEASX
p5477
aVE9P969
p5478
ag6
aI4932
a(lp5479
(lp5480
g151
ag152
aS'0.77'
p5481
aa(lp5482
g2365
ag2366
aS'0.75'
p5483
aa(lp5484
g2369
ag2370
aS'0.75'
p5485
aa(lp5486
g2373
ag2374
aS'0.75'
p5487
aa(lp5488
g2377
ag2378
aS'0.75'
p5489
aa(lp5490
g555
ag556
aS'0.75'
p5491
aa(lp5492
g143
ag144
aS'0.75'
p5493
aa(lp5494
g2385
ag2386
aS'0.75'
p5495
aaaa(lp5496
VD2XNB1_YEASX
p5497
aVD2XNB1
p5498
ag6
aI4932
a(lp5499
(lp5500
g163
ag164
aS'0.69'
p5501
aa(lp5502
g809
ag810
aS'0.07'
p5503
aaaa(lp5504
VD2XNR4_YEASX
p5505
aVD2XNR4
p5506
ag6
aI4932
a(lp5507
(lp5508
g151
ag152
aS'0.69'
p5509
aaaa(lp5510
VH9TVY4_YEASX
p5511
aVH9TVY4
p5512
ag6
aI4932
a(lp5513
(lp5514
g151
ag152
aS'0.69'
p5515
aa(lp5516
g699
ag700
aS'0.08'
p5517
aaaa(lp5518
VE9P8L7_YEASX
p5519
aVE9P8L7
p5520
ag6
aI4932
a(lp5521
(lp5522
g151
ag152
aS'0.76'
p5523
aa(lp5524
g155
ag156
aS'0.4'
p5525
aaaa(lp5526
VH9TYT0_YEASX
p5527
aVH9TYT0
p5528
ag6
aI4932
a(lp5529
(lp5530
g151
ag152
aS'0.74'
p5531
aaaa(lp5532
VH9NBG1_YEASX
p5533
aVH9NBG1
p5534
ag6
aI4932
a(lp5535
(lp5536
g17
ag18
aS'0.69'
p5537
aa(lp5538
g21
ag22
aS'0.54'
p5539
aa(lp5540
g25
ag26
aS'0.52'
p5541
aa(lp5542
g29
ag30
aS'0.51'
p5543
aa(lp5544
g33
ag34
aS'0.49'
p5545
aa(lp5546
g37
ag38
aS'0.49'
p5547
aa(lp5548
g41
ag42
aS'0.49'
p5549
aaaa(lp5550
VE9P8R9_YEASX
p5551
aVE9P8R9
p5552
ag6
aI4932
a(lp5553
(lp5554
g151
ag152
aS'0.94'
p5555
aaaa(lp5556
VH9NBH6_YEASX
p5557
aVH9NBH6
p5558
ag6
aI4932
a(lp5559
(lp5560
g17
ag18
aS'0.69'
p5561
aa(lp5562
g21
ag22
aS'0.54'
p5563
aa(lp5564
g25
ag26
aS'0.52'
p5565
aa(lp5566
g29
ag30
aS'0.51'
p5567
aa(lp5568
g33
ag34
aS'0.49'
p5569
aa(lp5570
g37
ag38
aS'0.49'
p5571
aa(lp5572
g41
ag42
aS'0.49'
p5573
aaaa(lp5574
VH9TVK7_YEASX
p5575
aVH9TVK7
p5576
ag6
aI4932
a(lp5577
(lp5578
g627
ag628
aS'0.89'
p5579
aa(lp5580
g631
ag632
aS'0.32'
p5581
aa(lp5582
g57
ag58
aS'0.32'
p5583
aa(lp5584
g551
ag552
aS'0.32'
p5585
aaaa(lp5586
VQ7LKB1_YEASX
p5587
aVQ7LKB1
p5588
ag6
aI4932
a(lp5589
(lp5590
g25
ag26
aS'0.83'
p5591
aa(lp5592
g269
ag270
aS'0.78'
p5593
aa(lp5594
g227
ag228
aS'0.78'
p5595
aa(lp5596
g127
ag128
aS'0.68'
p5597
aa(lp5598
g123
ag124
aS'0.63'
p5599
aaaa(lp5600
VG8EXE2_YEASX
p5601
aVG8EXE2
p5602
ag6
aI4932
a(lp5603
(lp5604
g627
ag628
aS'0.92'
p5605
aa(lp5606
g631
ag632
aS'0.13'
p5607
aa(lp5608
g57
ag58
aS'0.13'
p5609
aa(lp5610
g551
ag552
aS'0.13'
p5611
aaaa(lp5612
VE9P9B4_YEASX
p5613
aVE9P9B4
p5614
ag6
aI4932
a(lp5615
(lp5616
VGO:0004745
p5617
aVretinol dehydrogenase activity
p5618
aS'0.78'
p5619
aa(lp5620
VGO:0003858
p5621
aV3-hydroxybutyrate dehydrogenase activity
p5622
aS'0.26'
p5623
aaaa(lp5624
VE9P9K9_YEASX
p5625
aVE9P9K9
p5626
ag6
aI4932
a(lp5627
(lp5628
g649
ag650
aS'0.77'
p5629
aa(lp5630
g653
ag654
aS'0.14'
p5631
aaaa(lp5632
VG8EXF4_YEASX
p5633
aVG8EXF4
p5634
ag6
aI4932
a(lp5635
(lp5636
g649
ag650
aS'0.57'
p5637
aa(lp5638
g653
ag654
aS'0.51'
p5639
aa(lp5640
g657
ag658
aS'0.41'
p5641
aaaa(lp5642
VE9P9L0_YEASX
p5643
aVE9P9L0
p5644
ag6
aI4932
a(lp5645
(lp5646
g649
ag650
aS'0.71'
p5647
aa(lp5648
g653
ag654
aS'0.47'
p5649
aa(lp5650
g657
ag658
aS'0.42'
p5651
aaaa(lp5652
VE9P9C7_YEASX
p5653
aVE9P9C7
p5654
ag6
aI4932
a(lp5655
(lp5656
g327
ag328
aS'0.86'
p5657
aa(lp5658
VGO:0015168
p5659
aVglycerol transmembrane transporter activity
p5660
aS'0.03'
p5661
aa(lp5662
g331
ag332
aS'0.03'
p5663
aa(lp5664
g335
ag336
aS'0.03'
p5665
aa(lp5666
g339
ag340
aS'0.03'
p5667
aa(lp5668
g151
ag152
aS'0.03'
p5669
aa(lp5670
g345
ag346
aS'0.03'
p5671
aa(lp5672
g349
ag350
aS'0.03'
p5673
aa(lp5674
g353
ag354
aS'0.03'
p5675
aaaa(lp5676
VE9P8S4_YEASX
p5677
aVE9P8S4
p5678
ag6
aI4932
a(lp5679
(lp5680
g17
ag18
aS'0.72'
p5681
aa(lp5682
g439
ag440
aS'0.65'
p5683
aaaa(lp5684
VB2NII6_YEASX
p5685
aVB2NII6
p5686
ag6
aI4932
a(lp5687
(lp5688
g1515
ag1516
aS'0.78'
p5689
aaaa(lp5690
VAMYH_YEASX
p5691
aVP04065
p5692
ag6
aI4932
a(lp5693
(lp5694
g4803
ag4804
aS'0.92'
p5695
aa(lp5696
g4809
ag4810
aS'0.02'
p5697
aaaa(lp5698
VE9P8J0_YEASX
p5699
aVE9P8J0
p5700
ag6
aI4932
a(lp5701
(lp5702
g151
ag152
aS'0.73'
p5703
aa(lp5704
g155
ag156
aS'0.48'
p5705
aaaa(lp5706
VE9P9K5_YEASX
p5707
aVE9P9K5
p5708
ag6
aI4932
a(lp5709
(lp5710
g17
ag18
aS'0.68'
p5711
aa(lp5712
g29
ag30
aS'0.5'
p5713
aa(lp5714
g21
ag22
aS'0.47'
p5715
aa(lp5716
g25
ag26
aS'0.46'
p5717
aa(lp5718
g37
ag38
aS'0.43'
p5719
aa(lp5720
g33
ag34
aS'0.42'
p5721
aa(lp5722
g41
ag42
aS'0.42'
p5723
aaaa(lp5724
VE9P9E5_YEASX
p5725
aVE9P9E5
p5726
ag6
aI4932
a(lp5727
(lp5728
g1175
ag1176
aS'0.86'
p5729
aa(lp5730
g1179
ag1180
aS'0.28'
p5731
aaaa(lp5732
VE9P8J8_YEASX
p5733
aVE9P8J8
p5734
ag6
aI4932
a(lp5735
(lp5736
g151
ag152
aS'0.76'
p5737
aa(lp5738
g155
ag156
aS'0.4'
p5739
aaaa(lp5740
VH9NBM0_YEASX
p5741
aVH9NBM0
p5742
ag6
aI4932
a(lp5743
(lp5744
g17
ag18
aS'0.71'
p5745
aa(lp5746
g21
ag22
aS'0.54'
p5747
aa(lp5748
g25
ag26
aS'0.53'
p5749
aa(lp5750
g29
ag30
aS'0.51'
p5751
aa(lp5752
g33
ag34
aS'0.49'
p5753
aa(lp5754
g37
ag38
aS'0.49'
p5755
aa(lp5756
g41
ag42
aS'0.49'
p5757
aaaa(lp5758
VD3W7A4_YEASX
p5759
aVD3W7A4
p5760
ag6
aI4932
a(lp5761
(lp5762
g327
ag328
aS'0.84'
p5763
aa(lp5764
g331
ag332
aS'0.18'
p5765
aa(lp5766
g335
ag336
aS'0.18'
p5767
aa(lp5768
g339
ag340
aS'0.18'
p5769
aa(lp5770
g151
ag152
aS'0.18'
p5771
aa(lp5772
g345
ag346
aS'0.18'
p5773
aa(lp5774
g349
ag350
aS'0.18'
p5775
aa(lp5776
g353
ag354
aS'0.18'
p5777
aaaa(lp5778
VE9P8S2_YEASX
p5779
aVE9P8S2
p5780
ag6
aI4932
a(lp5781
(lp5782
g127
ag128
aS'0.71'
p5783
aa(lp5784
g123
ag124
aS'0.66'
p5785
aaaa(lp5786
VH9BH37_YEASX
p5787
aVH9BH37
p5788
ag6
aI4932
a(lp5789
(lp5790
g25
ag26
aS'0.84'
p5791
aa(lp5792
g269
ag270
aS'0.69'
p5793
aa(lp5794
g227
ag228
aS'0.69'
p5795
aa(lp5796
g127
ag128
aS'0.63'
p5797
aa(lp5798
g123
ag124
aS'0.63'
p5799
aa(lp5800
g163
ag164
aS'0.6'
p5801
aaaa(lp5802
VE1AFY6_YEASX
p5803
aVE1AFY6
p5804
ag6
aI4932
a(lp5805
(lp5806
g581
ag582
aS'0.9'
p5807
aa(lp5808
g585
ag586
aS'0.28'
p5809
aaaa(lp5810
VMEL5_YEASX
p5811
aVP41946
p5812
ag6
aI4932
a(lp5813
(lp5814
VGO:0004557
p5815
aValpha-galactosidase activity
p5816
aS'0.93'
p5817
aa(lp5818
VGO:0016936
p5819
aVgalactoside binding
p5820
aS'0.06'
p5821
aa(lp5822
VGO:0008456
p5823
aValpha-N-acetylgalactosaminidase activity
p5824
aS'0.06'
p5825
aa(lp5826
g1083
ag1084
aS'0.06'
p5827
aa(lp5828
g57
ag58
aS'0.06'
p5829
aaaa(lp5830
VH9TVN1_YEASX
p5831
aVH9TVN1
p5832
ag6
aI4932
a(lp5833
(lp5834
g627
ag628
aS'0.92'
p5835
aa(lp5836
g631
ag632
aS'0.13'
p5837
aa(lp5838
g57
ag58
aS'0.13'
p5839
aa(lp5840
g551
ag552
aS'0.13'
p5841
aaaa(lp5842
VD6C7G9_YEASX
p5843
aVD6C7G9
p5844
ag6
aI4932
a(lp5845
(lp5846
g497
ag498
aS'0.69'
p5847
aaaa(lp5848
VE9P8G8_YEASX
p5849
aVE9P8G8
p5850
ag6
aI4932
a(lp5851
(lp5852
g5815
ag5816
aS'0.95'
p5853
aa(lp5854
g5819
ag5820
aS'0.13'
p5855
aa(lp5856
g5823
ag5824
aS'0.13'
p5857
aa(lp5858
g1083
ag1084
aS'0.13'
p5859
aa(lp5860
g57
ag58
aS'0.13'
p5861
aaaa(lp5862
VE9P8M0_YEASX
p5863
aVE9P8M0
p5864
ag6
aI4932
a(lp5865
(lp5866
VGO:0050839
p5867
aVcell adhesion molecule binding
p5868
aS'0.64'
p5869
aaaa(lp5870
VG4XSL9_YEASX
p5871
aVG4XSL9
p5872
ag6
aI4932
a(lp5873
(lp5874
g473
ag474
aS'0.93'
p5875
aa(lp5876
g477
ag478
aS'0.13'
p5877
aaaa(lp5878
VE9P8L1_YEASX
p5879
aVE9P8L1
p5880
ag6
aI4932
a(lp5881
(lp5882
g151
ag152
aS'0.75'
p5883
aa(lp5884
g155
ag156
aS'0.41'
p5885
aaaa(lp5886
VH9NB95_YEASX
p5887
aVH9NB95
p5888
ag6
aI4932
a(lp5889
(lp5890
g1367
ag1368
aS'0.81'
p5891
aa(lp5892
g1371
ag1372
aS'0.8'
p5893
aa(lp5894
g1375
ag1376
aS'0.8'
p5895
aa(lp5896
g547
ag548
aS'0.8'
p5897
aa(lp5898
g1381
ag1382
aS'0.8'
p5899
aa(lp5900
g57
ag58
aS'0.8'
p5901
aa(lp5902
g1387
ag1388
aS'0.8'
p5903
aaaa(lp5904
VH9BH83_YEASX
p5905
aVH9BH83
p5906
ag6
aI4932
a(lp5907
(lp5908
g25
ag26
aS'0.83'
p5909
aa(lp5910
g269
ag270
aS'0.81'
p5911
aa(lp5912
g227
ag228
aS'0.75'
p5913
aa(lp5914
g127
ag128
aS'0.7'
p5915
aa(lp5916
g123
ag124
aS'0.62'
p5917
aaaa(lp5918
VH9NBF6_YEASX
p5919
aVH9NBF6
p5920
ag6
aI4932
a(lp5921
(lp5922
g17
ag18
aS'0.71'
p5923
aa(lp5924
g21
ag22
aS'0.54'
p5925
aa(lp5926
g25
ag26
aS'0.53'
p5927
aa(lp5928
g29
ag30
aS'0.51'
p5929
aa(lp5930
g33
ag34
aS'0.49'
p5931
aa(lp5932
g37
ag38
aS'0.49'
p5933
aa(lp5934
g41
ag42
aS'0.49'
p5935
aaaa(lp5936
VG8EXG5_YEASX
p5937
aVG8EXG5
p5938
ag6
aI4932
a(lp5939
(lp5940
g649
ag650
aS'0.76'
p5941
aa(lp5942
g653
ag654
aS'0.3'
p5943
aa(lp5944
g657
ag658
aS'0.25'
p5945
aaaa(lp5946
VD2XNR8_YEASX
p5947
aVD2XNR8
p5948
ag6
aI4932
a(lp5949
(lp5950
VGO:0003862
p5951
aV3-isopropylmalate dehydrogenase activity
p5952
aS'0.95'
p5953
aa(lp5954
g443
ag444
aS'0.04'
p5955
aa(lp5956
g2171
ag2172
aS'0.04'
p5957
aa(lp5958
g551
ag552
aS'0.04'
p5959
aa(lp5960
VGO:0047046
p5961
aVhomoisocitrate dehydrogenase activity
p5962
aS'0.04'
p5963
aa(lp5964
VGO:0046553
p5965
aVD-malate dehydrogenase (decarboxylating) activity
p5966
aS'0.04'
p5967
aa(lp5968
VGO:0004657
p5969
aVproline dehydrogenase activity
p5970
aS'0.04'
p5971
aa(lp5972
g57
ag58
aS'0.04'
p5973
aa(lp5974
VGO:0033708
p5975
aVisocitrate-homoisocitrate dehydrogenase activity
p5976
aS'0.04'
p5977
aa(lp5978
g2185
ag2186
aS'0.04'
p5979
aa(lp5980
VGO:0051287
p5981
aVNAD binding
p5982
aS'0.04'
p5983
aa(lp5984
g3529
ag3530
aS'0.04'
p5985
aa(lp5986
VGO:0004450
p5987
aVisocitrate dehydrogenase (NADP+) activity
p5988
aS'0.04'
p5989
aa(lp5990
g1083
ag1084
aS'0.04'
p5991
aaaa(lp5992
VH9NBG6_YEASX
p5993
aVH9NBG6
p5994
ag6
aI4932
a(lp5995
(lp5996
g17
ag18
aS'0.76'
p5997
aa(lp5998
g21
ag22
aS'0.54'
p5999
aa(lp6000
g25
ag26
aS'0.53'
p6001
aa(lp6002
g29
ag30
aS'0.51'
p6003
aa(lp6004
g33
ag34
aS'0.49'
p6005
aa(lp6006
g37
ag38
aS'0.49'
p6007
aa(lp6008
g41
ag42
aS'0.49'
p6009
aaaa(lp6010
VD0UZV6_YEASX
p6011
aVD0UZV6
p6012
ag6
aI4932
a(lp6013
(lp6014
g4743
ag4744
aS'0.82'
p6015
aa(lp6016
g4747
ag4748
aS'0.11'
p6017
aa(lp6018
g4751
ag4752
aS'0.11'
p6019
aa(lp6020
VGO:1901549
p6021
aVmalonic acid uptake transmembrane transporter activity
p6022
aS'0.09'
p6023
aaaa(lp6024
VH9TYX7_YEASX
p6025
aVH9TYX7
p6026
ag6
aI4932
a(lp6027
(lp6028
g151
ag152
aS'0.74'
p6029
aaaa(lp6030
VH9TVQ0_YEASX
p6031
aVH9TVQ0
p6032
ag6
aI4932
a(lp6033
(lp6034
g627
ag628
aS'0.93'
p6035
aa(lp6036
g631
ag632
aS'0.13'
p6037
aa(lp6038
g57
ag58
aS'0.13'
p6039
aa(lp6040
g551
ag552
aS'0.13'
p6041
aaaa(lp6042
VH9NBJ0_YEASX
p6043
aVH9NBJ0
p6044
ag6
aI4932
a(lp6045
(lp6046
g17
ag18
aS'0.56'
p6047
aa(lp6048
g21
ag22
aS'0.47'
p6049
aa(lp6050
g25
ag26
aS'0.47'
p6051
aa(lp6052
g29
ag30
aS'0.46'
p6053
aa(lp6054
g33
ag34
aS'0.46'
p6055
aa(lp6056
g37
ag38
aS'0.46'
p6057
aa(lp6058
g41
ag42
aS'0.46'
p6059
aaaa(lp6060
VE9P986_YEASX
p6061
aVE9P986
p6062
ag6
aI4932
a(lp6063
(lp6064
g1009
ag1010
aS'0.85'
p6065
aa(lp6066
g1875
ag1876
aS'0.4'
p6067
aa(lp6068
g17
ag18
aS'0.34'
p6069
aa(lp6070
g1881
ag1882
aS'0.34'
p6071
aa(lp6072
g1885
ag1886
aS'0.34'
p6073
aa(lp6074
g821
ag822
aS'0.34'
p6075
aa(lp6076
g1891
ag1892
aS'0.34'
p6077
aa(lp6078
g1895
ag1896
aS'0.34'
p6079
aaaa(lp6080
VQ2VQA5_YEASX
p6081
aVQ2VQA5
p6082
ag6
aI4932
a(lp6083
(lp6084
g439
ag440
aS'0.68'
p6085
aa(lp6086
g653
ag654
aS'0.43'
p6087
aa(lp6088
g657
ag658
aS'0.39'
p6089
aaaa(lp6090
VH9BH74_YEASX
p6091
aVH9BH74
p6092
ag6
aI4932
a(lp6093
(lp6094
g25
ag26
aS'0.84'
p6095
aa(lp6096
g127
ag128
aS'0.79'
p6097
aa(lp6098
g269
ag270
aS'0.72'
p6099
aa(lp6100
g227
ag228
aS'0.69'
p6101
aa(lp6102
g123
ag124
aS'0.6'
p6103
aaaa(lp6104
VA9JQQ7_YEASX
p6105
aVA9JQQ7
p6106
ag6
aI4932
a(lp6107
(lp6108
g1101
ag1102
aS'0.89'
p6109
aa(lp6110
g57
ag58
aS'0.61'
p6111
aaaa(lp6112
VH9NBL9_YEASX
p6113
aVH9NBL9
p6114
ag6
aI4932
a(lp6115
(lp6116
g17
ag18
aS'0.73'
p6117
aa(lp6118
g21
ag22
aS'0.54'
p6119
aa(lp6120
g25
ag26
aS'0.53'
p6121
aa(lp6122
g29
ag30
aS'0.51'
p6123
aa(lp6124
g33
ag34
aS'0.49'
p6125
aa(lp6126
g37
ag38
aS'0.49'
p6127
aa(lp6128
g41
ag42
aS'0.49'
p6129
aaaa(lp6130
VE9P8Q6_YEASX
p6131
aVE9P8Q6
p6132
ag6
aI4932
a(lp6133
(lp6134
g127
ag128
aS'0.68'
p6135
aa(lp6136
g123
ag124
aS'0.66'
p6137
aaaa(lp6138
VRTM1_YEASX
p6139
aVP40113
p6140
ag6
aI4932
a(lp6141
(lp6142
g4973
ag4974
aS'0.73'
p6143
aaaa(lp6144
VE9P9W0_YEASX
p6145
aVE9P9W0
p6146
ag6
aI4932
a(lp6147
(lp6148
VGO:0000772
p6149
aVmating pheromone activity
p6150
aS'0.85'
p6151
aaaa(lp6152
VD3W7A6_YEASX
p6153
aVD3W7A6
p6154
ag6
aI4932
a(lp6155
(lp6156
g327
ag328
aS'0.86'
p6157
aa(lp6158
g331
ag332
aS'0.04'
p6159
aa(lp6160
g335
ag336
aS'0.04'
p6161
aa(lp6162
g339
ag340
aS'0.04'
p6163
aa(lp6164
g151
ag152
aS'0.04'
p6165
aa(lp6166
g345
ag346
aS'0.04'
p6167
aa(lp6168
g349
ag350
aS'0.04'
p6169
aa(lp6170
g353
ag354
aS'0.04'
p6171
aaaa(lp6172
VE9P9Y3_YEASX
p6173
aVE9P9Y3
p6174
ag6
aI4932
a(lp6175
(lp6176
VGO:0004455
p6177
aVketol-acid reductoisomerase activity
p6178
aS'0.94'
p6179
aa(lp6180
g57
ag58
aS'0.77'
p6181
aa(lp6182
VGO:0070402
p6183
aVNADPH binding
p6184
aS'0.77'
p6185
aa(lp6186
g551
ag552
aS'0.77'
p6187
aaaa(lp6188
VH9NB11_YEASX
p6189
aVH9NB11
p6190
ag6
aI4932
a(lp6191
(lp6192
g135
ag136
aS'0.95'
p6193
aa(lp6194
g139
ag140
aS'0.16'
p6195
aa(lp6196
g143
ag144
aS'0.15'
p6197
aaaa(lp6198
VSDC25_YEASX
p6199
aVP0CF32
p6200
ag6
aI4932
a(lp6201
(lp6202
VGO:0017034
p6203
aVRap guanyl-nucleotide exchange factor activity
p6204
aS'0.82'
p6205
aa(lp6206
g3335
ag3336
aS'0.72'
p6207
aaaa(lp6208
VE9P8Q0_YEASX
p6209
aVE9P8Q0
p6210
ag6
aI4932
a(lp6211
(lp6212
g123
ag124
aS'0.68'
p6213
aa(lp6214
g127
ag128
aS'0.18'
p6215
aaaa(lp6216
VINV1_YEASX
p6217
aVP10594
p6218
ag6
aI4932
a(lp6219
(lp6220
g251
ag252
aS'0.94'
p6221
aa(lp6222
g255
ag256
aS'0.61'
p6223
aa(lp6224
g259
ag260
aS'0.6'
p6225
aaaa(lp6226
VB0M8V1_YEASX
p6227
aVB0M8V1
p6228
ag6
aI4932
a(lp6229
(lp6230
g1009
ag1010
aS'0.85'
p6231
aa(lp6232
g1875
ag1876
aS'0.4'
p6233
aa(lp6234
g17
ag18
aS'0.35'
p6235
aa(lp6236
g1881
ag1882
aS'0.35'
p6237
aa(lp6238
g1885
ag1886
aS'0.35'
p6239
aa(lp6240
g821
ag822
aS'0.35'
p6241
aa(lp6242
g1891
ag1892
aS'0.35'
p6243
aa(lp6244
g1895
ag1896
aS'0.35'
p6245
aaaa(lp6246
VE9P9L5_YEASX
p6247
aVE9P9L5
p6248
ag6
aI4932
a(lp6249
(lp6250
g135
ag136
aS'0.95'
p6251
aa(lp6252
g139
ag140
aS'0.16'
p6253
aa(lp6254
g143
ag144
aS'0.15'
p6255
aaaa(lp6256
VH9BH59_YEASX
p6257
aVH9BH59
p6258
ag6
aI4932
a(lp6259
(lp6260
g25
ag26
aS'0.82'
p6261
aa(lp6262
g269
ag270
aS'0.79'
p6263
aa(lp6264
g227
ag228
aS'0.79'
p6265
aa(lp6266
g127
ag128
aS'0.71'
p6267
aa(lp6268
g123
ag124
aS'0.61'
p6269
aaaa(lp6270
VH9TT45_YEASX
p6271
aVH9TT45
p6272
ag6
aI4932
a(lp6273
(lp6274
g1263
ag1264
aS'0.22'
p6275
aa(lp6276
g1269
ag1270
aS'0.17'
p6277
aa(lp6278
g2149
ag2150
aS'0.16'
p6279
aa(lp6280
g215
ag216
aS'0.14'
p6281
aaaa(lp6282
VE9PA27_YEASX
p6283
aVE9PA27
p6284
ag6
aI4932
a(lp6285
(lp6286
g431
ag432
aS'0.43'
p6287
aa(lp6288
VGO:0035497
p6289
aVcAMP response element binding
p6290
aS'0.31'
p6291
aaaa(lp6292
VH9NBF8_YEASX
p6293
aVH9NBF8
p6294
ag6
aI4932
a(lp6295
(lp6296
g17
ag18
aS'0.7'
p6297
aa(lp6298
g21
ag22
aS'0.54'
p6299
aa(lp6300
g25
ag26
aS'0.52'
p6301
aa(lp6302
g29
ag30
aS'0.51'
p6303
aa(lp6304
g33
ag34
aS'0.49'
p6305
aa(lp6306
g37
ag38
aS'0.49'
p6307
aa(lp6308
g41
ag42
aS'0.49'
p6309
aaaa(lp6310
VE9P8G9_YEASX
p6311
aVE9P8G9
p6312
ag6
aI4932
a(lp6313
(lp6314
g543
ag544
aS'0.9'
p6315
aa(lp6316
g547
ag548
aS'0.76'
p6317
aa(lp6318
g551
ag552
aS'0.75'
p6319
aa(lp6320
g555
ag556
aS'0.74'
p6321
aaaa(lp6322
VG0Y635_YEASX
p6323
aVG0Y635
p6324
ag6
aI4932
a(lp6325
(lp6326
VGO:0017168
p6327
aV5-oxoprolinase (ATP-hydrolyzing) activity
p6328
aS'0.92'
p6329
aa(lp6330
VGO:0018710
p6331
aVacetone carboxylase activity
p6332
aS'0.91'
p6333
aaaa(lp6334
VF5CIK1_YEASX
p6335
aVF5CIK1
p6336
ag6
aI4932
a(lp6337
(lp6338
g389
ag390
aS'0.85'
p6339
aa(lp6340
g4631
ag4632
aS'0.01'
p6341
aa(lp6342
g4635
ag4636
aS'0.01'
p6343
aa(lp6344
g4639
ag4640
aS'0.01'
p6345
aa(lp6346
g4643
ag4644
aS'0.01'
p6347
aa(lp6348
g4647
ag4648
aS'0.01'
p6349
aaaa(lp6350
VE9P9E3_YEASX
p6351
aVE9P9E3
p6352
ag6
aI4932
a(lp6353
(lp6354
g473
ag474
aS'0.93'
p6355
aa(lp6356
g477
ag478
aS'0.13'
p6357
aaaa(lp6358
VF8KAD8_YEASX
p6359
aVF8KAD8
p6360
ag6
aI4932
a(lp6361
(lp6362
VGO:0042124
p6363
aV1,3-beta-glucanosyltransferase activity
p6364
aS'0.9'
p6365
aa(lp6366
VGO:0042973
p6367
aVglucan endo-1,3-beta-D-glucosidase activity
p6368
aS'0.83'
p6369
aaaa(lp6370
VB0M8V7_YEASX
p6371
aVB0M8V7
p6372
ag6
aI4932
a(lp6373
(lp6374
g1009
ag1010
aS'0.85'
p6375
aa(lp6376
g1875
ag1876
aS'0.4'
p6377
aa(lp6378
g17
ag18
aS'0.35'
p6379
aa(lp6380
g1881
ag1882
aS'0.35'
p6381
aa(lp6382
g1885
ag1886
aS'0.35'
p6383
aa(lp6384
g821
ag822
aS'0.35'
p6385
aa(lp6386
g1891
ag1892
aS'0.35'
p6387
aa(lp6388
g1895
ag1896
aS'0.35'
p6389
aaaa(lp6390
VD6C7G6_YEASX
p6391
aVD6C7G6
p6392
ag6
aI4932
a(lp6393
(lp6394
g1503
ag1504
aS'0.88'
p6395
aa(lp6396
g1507
ag1508
aS'0.86'
p6397
aaaa(lp6398
VE9P981_YEASX
p6399
aVE9P981
p6400
ag6
aI4932
a(lp6401
(lp6402
g1105
ag1106
aS'0.92'
p6403
aa(lp6404
g1097
ag1098
aS'0.91'
p6405
aaaa(lp6406
VH9TTA3_YEASX
p6407
aVH9TTA3
p6408
ag6
aI4932
a(lp6409
(lp6410
g1263
ag1264
aS'0.22'
p6411
aa(lp6412
g215
ag216
aS'0.19'
p6413
aa(lp6414
g1269
ag1270
aS'0.17'
p6415
aaaa(lp6416
VE9P9D2_YEASX
p6417
aVE9P9D2
p6418
ag6
aI4932
a(lp6419
(lp6420
g1305
ag1306
aS'0.81'
p6421
aa(lp6422
g1309
ag1310
aS'0.58'
p6423
aaaa(lp6424
VE9P8I2_YEASX
p6425
aVE9P8I2
p6426
ag6
aI4932
a(lp6427
(lp6428
g1009
ag1010
aS'0.85'
p6429
aa(lp6430
g1875
ag1876
aS'0.43'
p6431
aa(lp6432
g17
ag18
aS'0.39'
p6433
aa(lp6434
g1881
ag1882
aS'0.39'
p6435
aa(lp6436
g1891
ag1892
aS'0.39'
p6437
aa(lp6438
g821
ag822
aS'0.39'
p6439
aa(lp6440
g1885
ag1886
aS'0.39'
p6441
aa(lp6442
g1895
ag1896
aS'0.39'
p6443
aaaa(lp6444
VE9P8H6_YEASX
p6445
aVE9P8H6
p6446
ag6
aI4932
a(lp6447
(lp6448
g301
ag302
aS'0.94'
p6449
aa(lp6450
g311
ag312
aS'0.94'
p6451
aa(lp6452
g285
ag286
aS'0.93'
p6453
aa(lp6454
g289
ag290
aS'0.93'
p6455
aa(lp6456
g293
ag294
aS'0.93'
p6457
aa(lp6458
g297
ag298
aS'0.93'
p6459
aa(lp6460
g305
ag306
aS'0.93'
p6461
aa(lp6462
g57
ag58
aS'0.93'
p6463
aa(lp6464
g315
ag316
aS'0.93'
p6465
aa(lp6466
g319
ag320
aS'0.93'
p6467
aaaa(lp6468
VH9NBH2_YEASX
p6469
aVH9NBH2
p6470
ag6
aI4932
a(lp6471
(lp6472
g17
ag18
aS'0.7'
p6473
aa(lp6474
g21
ag22
aS'0.54'
p6475
aa(lp6476
g25
ag26
aS'0.52'
p6477
aa(lp6478
g29
ag30
aS'0.51'
p6479
aa(lp6480
g33
ag34
aS'0.49'
p6481
aa(lp6482
g37
ag38
aS'0.49'
p6483
aa(lp6484
g41
ag42
aS'0.48'
p6485
aaaa(lp6486
VC9ELN7_YEASX
p6487
aVC9ELN7
p6488
ag6
aI4932
a(lp6489
(lp6490
g1101
ag1102
aS'0.92'
p6491
aa(lp6492
g57
ag58
aS'0.77'
p6493
aaaa(lp6494
VE9P9N5_YEASX
p6495
aVE9P9N5
p6496
ag6
aI4932
a(lp6497
(lp6498
g925
ag926
aS'0.81'
p6499
aa(lp6500
g151
ag152
aS'0.81'
p6501
aaaa(lp6502
VH9TT51_YEASX
p6503
aVH9TT51
p6504
ag6
aI4932
a(lp6505
(lp6506
g1263
ag1264
aS'0.22'
p6507
aa(lp6508
g1269
ag1270
aS'0.17'
p6509
aa(lp6510
g215
ag216
aS'0.15'
p6511
aaaa(lp6512
VH9NBL7_YEASX
p6513
aVH9NBL7
p6514
ag6
aI4932
a(lp6515
(lp6516
g17
ag18
aS'0.67'
p6517
aa(lp6518
g21
ag22
aS'0.54'
p6519
aa(lp6520
g25
ag26
aS'0.53'
p6521
aa(lp6522
g29
ag30
aS'0.51'
p6523
aa(lp6524
g33
ag34
aS'0.49'
p6525
aa(lp6526
g37
ag38
aS'0.49'
p6527
aa(lp6528
g41
ag42
aS'0.49'
p6529
aaaa(lp6530
VE9P9G3_YEASX
p6531
aVE9P9G3
p6532
ag6
aI4932
a(lp6533
(lp6534
g25
ag26
aS'0.87'
p6535
aa(lp6536
g269
ag270
aS'0.87'
p6537
aa(lp6538
g227
ag228
aS'0.82'
p6539
aaaa(lp6540
VH9TVK9_YEASX
p6541
aVH9TVK9
p6542
ag6
aI4932
a(lp6543
(lp6544
g627
ag628
aS'0.92'
p6545
aa(lp6546
g631
ag632
aS'0.13'
p6547
aa(lp6548
g57
ag58
aS'0.13'
p6549
aa(lp6550
g551
ag552
aS'0.13'
p6551
aaaa(lp6552
VB0M8W9_YEASX
p6553
aVB0M8W9
p6554
ag6
aI4932
a(lp6555
(lp6556
g431
ag432
aS'0.89'
p6557
aa(lp6558
g435
ag436
aS'0.71'
p6559
aa(lp6560
g443
ag444
aS'0.69'
p6561
aa(lp6562
g439
ag440
aS'0.68'
p6563
aa(lp6564
g447
ag448
aS'0.65'
p6565
aaaa(lp6566
VG4XSN6_YEASX
p6567
aVG4XSN6
p6568
ag6
aI4932
a(lp6569
(lp6570
g473
ag474
aS'0.93'
p6571
aa(lp6572
g477
ag478
aS'0.13'
p6573
aaaa(lp6574
VD3YHF6_YEASX
p6575
aVD3YHF6
p6576
ag6
aI4932
a(lp6577
(lp6578
VGO:0004806
p6579
aVtriglyceride lipase activity
p6580
aS'0.92'
p6581
aa(lp6582
VGO:0047499
p6583
aVcalcium-independent phospholipase A2 activity
p6584
aS'0.78'
p6585
aa(lp6586
g5215
ag5216
aS'0.75'
p6587
aa(lp6588
VGO:0051264
p6589
aVmono-olein transacylation activity
p6590
aS'0.75'
p6591
aa(lp6592
VGO:0051265
p6593
aVdiolein transacylation activity
p6594
aS'0.75'
p6595
aa(lp6596
g555
ag556
aS'0.75'
p6597
aaaa(lp6598
VE9P8E2_YEASX
p6599
aVE9P8E2
p6600
ag6
aI4932
a(lp6601
(lp6602
VGO:0004015
p6603
aVadenosylmethionine-8-amino-7-oxononanoate transaminase activity
p6604
aS'0.92'
p6605
aa(lp6606
g2317
ag2318
aS'0.3'
p6607
aaaa(lp6608
VH9TTR7_YEASX
p6609
aVH9TTR7
p6610
ag6
aI4932
a(lp6611
(lp6612
g1431
ag1432
aS'0.9'
p6613
aa(lp6614
g1435
ag1436
aS'0.48'
p6615
aaaa(lp6616
VH9NBJ9_YEASX
p6617
aVH9NBJ9
p6618
ag6
aI4932
a(lp6619
(lp6620
g17
ag18
aS'0.79'
p6621
aa(lp6622
g21
ag22
aS'0.55'
p6623
aa(lp6624
g25
ag26
aS'0.53'
p6625
aa(lp6626
g29
ag30
aS'0.51'
p6627
aa(lp6628
g33
ag34
aS'0.49'
p6629
aa(lp6630
g37
ag38
aS'0.49'
p6631
aa(lp6632
g41
ag42
aS'0.49'
p6633
aaaa(lp6634
VD3W789_YEASX
p6635
aVD3W789
p6636
ag6
aI4932
a(lp6637
(lp6638
g327
ag328
aS'0.85'
p6639
aa(lp6640
g331
ag332
aS'0.09'
p6641
aa(lp6642
g335
ag336
aS'0.09'
p6643
aa(lp6644
g339
ag340
aS'0.09'
p6645
aa(lp6646
g151
ag152
aS'0.09'
p6647
aa(lp6648
g345
ag346
aS'0.09'
p6649
aa(lp6650
g349
ag350
aS'0.09'
p6651
aa(lp6652
g353
ag354
aS'0.09'
p6653
aaaa(lp6654
VQ70CG4_YEASX
p6655
aVQ70CG4
p6656
ag6
aI4932
a(lp6657
(lp6658
g151
ag152
aS'0.87'
p6659
aa(lp6660
g1065
ag1066
aS'0.58'
p6661
aa(lp6662
g1785
ag1786
aS'0.58'
p6663
aa(lp6664
g439
ag440
aS'0.58'
p6665
aaaa(lp6666
VE9P8E1_YEASX
p6667
aVE9P8E1
p6668
ag6
aI4932
a(lp6669
(lp6670
g6603
ag6604
aS'0.93'
p6671
aa(lp6672
g2317
ag2318
aS'0.27'
p6673
aaaa(lp6674
VE9P8E5_YEASX
p6675
aVE9P8E5
p6676
ag6
aI4932
a(lp6677
(lp6678
g1175
ag1176
aS'0.82'
p6679
aa(lp6680
g1179
ag1180
aS'0.25'
p6681
aaaa(lp6682
VQ27JJ7_YEASX
p6683
aVQ27JJ7
p6684
ag6
aI4932
a(lp6685
(lp6686
g1507
ag1508
aS'0.94'
p6687
aa(lp6688
g1503
ag1504
aS'0.91'
p6689
aaaa(lp6690
VE9P9B7_YEASX
p6691
aVE9P9B7
p6692
ag6
aI4932
a(lp6693
(lp6694
g151
ag152
aS'0.85'
p6695
aa(lp6696
g1847
ag1848
aS'0.8'
p6697
aaaa(lp6698
VH9NBI0_YEASX
p6699
aVH9NBI0
p6700
ag6
aI4932
a(lp6701
(lp6702
g17
ag18
aS'0.69'
p6703
aa(lp6704
g21
ag22
aS'0.54'
p6705
aa(lp6706
g25
ag26
aS'0.52'
p6707
aa(lp6708
g29
ag30
aS'0.51'
p6709
aa(lp6710
g33
ag34
aS'0.49'
p6711
aa(lp6712
g37
ag38
aS'0.49'
p6713
aa(lp6714
g41
ag42
aS'0.49'
p6715
aaaa(lp6716
VG8FR13_YEASX
p6717
aVG8FR13
p6718
ag6
aI4932
a(lp6719
(lp6720
g1009
ag1010
aS'0.72'
p6721
aa(lp6722
g155
ag156
aS'0.51'
p6723
aaaa(lp6724
VH9TT24_YEASX
p6725
aVH9TT24
p6726
ag6
aI4932
a(lp6727
(lp6728
g1263
ag1264
aS'0.22'
p6729
aa(lp6730
g215
ag216
aS'0.17'
p6731
aa(lp6732
g1269
ag1270
aS'0.16'
p6733
aaaa(lp6734
VH9NBI8_YEASX
p6735
aVH9NBI8
p6736
ag6
aI4932
a(lp6737
(lp6738
g17
ag18
aS'0.65'
p6739
aa(lp6740
g21
ag22
aS'0.54'
p6741
aa(lp6742
g25
ag26
aS'0.52'
p6743
aa(lp6744
g29
ag30
aS'0.51'
p6745
aa(lp6746
g33
ag34
aS'0.49'
p6747
aa(lp6748
g37
ag38
aS'0.49'
p6749
aa(lp6750
g41
ag42
aS'0.49'
p6751
aaaa(lp6752
VE9PAF2_YEASX
p6753
aVE9PAF2
p6754
ag6
aI4932
a(lp6755
(lp6756
g439
ag440
aS'0.8'
p6757
aa(lp6758
g431
ag432
aS'0.56'
p6759
aaaa(lp6760
VE9P8F2_YEASX
p6761
aVE9P8F2
p6762
ag6
aI4932
a(lp6763
(lp6764
g1515
ag1516
aS'0.78'
p6765
aaaa(lp6766
VG3EJN9_YEASX
p6767
aVG3EJN9
p6768
ag6
aI4932
a(lp6769
(lp6770
VGO:0015238
p6771
aVdrug transmembrane transporter activity
p6772
aS'0.95'
p6773
aa(lp6774
VGO:0042895
p6775
aVantibiotic transporter activity
p6776
aS'0.95'
p6777
aaaa(lp6778
VB5LYY3_YEASX
p6779
aVB5LYY3
p6780
ag6
aI4932
a(lp6781
(lp6782
g2111
ag2112
aS'0.85'
p6783
aa(lp6784
g57
ag58
aS'0.81'
p6785
aa(lp6786
g2117
ag2118
aS'0.76'
p6787
aaaa(lp6788
VE9P991_YEASX
p6789
aVE9P991
p6790
ag6
aI4932
a(lp6791
(lp6792
g1175
ag1176
aS'0.91'
p6793
aa(lp6794
g1179
ag1180
aS'0.28'
p6795
aaaa(lp6796
VQ7LJX6_YEASX
p6797
aVQ7LJX6
p6798
ag6
aI4932
a(lp6799
(lp6800
g123
ag124
aS'0.68'
p6801
aa(lp6802
g127
ag128
aS'0.27'
p6803
aaaa(lp6804
VMEL2_YEASX
p6805
aVP41945
p6806
ag6
aI4932
a(lp6807
(lp6808
g5815
ag5816
aS'0.93'
p6809
aa(lp6810
g5819
ag5820
aS'0.06'
p6811
aa(lp6812
g5823
ag5824
aS'0.06'
p6813
aa(lp6814
g1083
ag1084
aS'0.06'
p6815
aa(lp6816
g57
ag58
aS'0.06'
p6817
aaaa(lp6818
VE9P9F4_YEASX
p6819
aVE9P9F4
p6820
ag6
aI4932
a(lp6821
(lp6822
g29
ag30
aS'0.46'
p6823
aa(lp6824
g17
ag18
aS'0.33'
p6825
aa(lp6826
g21
ag22
aS'0.25'
p6827
aa(lp6828
g25
ag26
aS'0.25'
p6829
aaaa(lp6830
VE9P8P9_YEASX
p6831
aVE9P8P9
p6832
ag6
aI4932
a(lp6833
(lp6834
g123
ag124
aS'0.68'
p6835
aa(lp6836
g127
ag128
aS'0.07'
p6837
aaaa(lp6838
VD5MS21_YEASX
p6839
aVD5MS21
p6840
ag6
aI4932
a(lp6841
(lp6842
g251
ag252
aS'0.93'
p6843
aa(lp6844
g255
ag256
aS'0.88'
p6845
aa(lp6846
g259
ag260
aS'0.88'
p6847
aaaa(lp6848
VE9PA31_YEASX
p6849
aVE9PA31
p6850
ag6
aI4932
a(lp6851
(lp6852
g4443
ag4444
aS'0.92'
p6853
aa(lp6854
g151
ag152
aS'0.81'
p6855
aa(lp6856
g4449
ag4450
aS'0.81'
p6857
aa(lp6858
g4453
ag4454
aS'0.81'
p6859
aa(lp6860
g4457
ag4458
aS'0.81'
p6861
aa(lp6862
g4461
ag4462
aS'0.81'
p6863
aa(lp6864
g4465
ag4466
aS'0.81'
p6865
aa(lp6866
g4473
ag4474
aS'0.77'
p6867
aaaa(lp6868
VE9P9X6_YEASX
p6869
aVE9P9X6
p6870
ag6
aI4932
a(lp6871
(lp6872
g1395
ag1396
aS'0.85'
p6873
aa(lp6874
g1413
ag1414
aS'0.13'
p6875
aa(lp6876
g1407
ag1408
aS'0.12'
p6877
aa(lp6878
g1399
ag1400
aS'0.1'
p6879
aa(lp6880
g57
ag58
aS'0.1'
p6881
aa(lp6882
g243
ag244
aS'0.1'
p6883
aa(lp6884
g605
ag606
aS'0.1'
p6885
aa(lp6886
g1417
ag1418
aS'0.1'
p6887
aa(lp6888
g1421
ag1422
aS'0.1'
p6889
aa(lp6890
g555
ag556
aS'0.1'
p6891
aaaa(lp6892
VQ7GHJ9_YEASX
p6893
aVQ7GHJ9
p6894
ag6
aI4932
a(lp6895
(lp6896
g1097
ag1098
aS'0.42'
p6897
aa(lp6898
g1109
ag1110
aS'0.27'
p6899
aaaa(lp6900
VB2NIG5_YEASX
p6901
aVB2NIG5
p6902
ag6
aI4932
a(lp6903
(lp6904
g1523
ag1524
aS'0.9'
p6905
aa(lp6906
g1519
ag1520
aS'0.57'
p6907
aa(lp6908
g1527
ag1528
aS'0.47'
p6909
aa(lp6910
g1515
ag1516
aS'0.47'
p6911
aa(lp6912
g1531
ag1532
aS'0.47'
p6913
aaaa(lp6914
VD6C7G3_YEASX
p6915
aVD6C7G3
p6916
ag6
aI4932
a(lp6917
(lp6918
g1503
ag1504
aS'0.88'
p6919
aa(lp6920
g1507
ag1508
aS'0.87'
p6921
aaaa(lp6922
VMEL1_YEASX
p6923
aVP04824
p6924
ag6
aI4932
a(lp6925
(lp6926
g5815
ag5816
aS'0.9'
p6927
aa(lp6928
g5819
ag5820
aS'0.16'
p6929
aa(lp6930
g5823
ag5824
aS'0.16'
p6931
aa(lp6932
g1083
ag1084
aS'0.16'
p6933
aa(lp6934
g57
ag58
aS'0.16'
p6935
aaaa(lp6936
VE9P9A6_YEASX
p6937
aVE9P9A6
p6938
ag6
aI4932
a(lp6939
(lp6940
VGO:0032977
p6941
aVmembrane insertase activity
p6942
aS'0.81'
p6943
aa(lp6944
g57
ag58
aS'0.75'
p6945
aaaa(lp6946
VE9P8E3_YEASX
p6947
aVE9P8E3
p6948
ag6
aI4932
a(lp6949
(lp6950
g6603
ag6604
aS'0.94'
p6951
aa(lp6952
g2317
ag2318
aS'0.25'
p6953
aaaa(lp6954
VE9P9G5_YEASX
p6955
aVE9P9G5
p6956
ag6
aI4932
a(lp6957
(lp6958
g1009
ag1010
aS'0.78'
p6959
aa(lp6960
g155
ag156
aS'0.48'
p6961
aa(lp6962
VGO:0015578
p6963
aVmannose transmembrane transporter activity
p6964
aS'0.43'
p6965
aaaa(lp6966
VE9P8F3_YEASX
p6967
aVE9P8F3
p6968
ag6
aI4932
a(lp6969
(lp6970
g1009
ag1010
aS'0.84'
p6971
aa(lp6972
g1875
ag1876
aS'0.44'
p6973
aa(lp6974
g17
ag18
aS'0.41'
p6975
aa(lp6976
g1881
ag1882
aS'0.41'
p6977
aa(lp6978
g1891
ag1892
aS'0.41'
p6979
aa(lp6980
g821
ag822
aS'0.41'
p6981
aa(lp6982
g1885
ag1886
aS'0.41'
p6983
aa(lp6984
g1895
ag1896
aS'0.41'
p6985
aaaa(lp6986
VH1AB60_YEASX
p6987
aVH1AB60
p6988
ag6
aI4932
a(lp6989
(lp6990
VGO:0015248
p6991
aVsterol transporter activity
p6992
aS'0.77'
p6993
aa(lp6994
VGO:0015485
p6995
aVcholesterol binding
p6996
aS'0.27'
p6997
aaaa(lp6998
VH9BH68_YEASX
p6999
aVH9BH68
p7000
ag6
aI4932
a(lp7001
(lp7002
g25
ag26
aS'0.83'
p7003
aa(lp7004
g269
ag270
aS'0.82'
p7005
aa(lp7006
g227
ag228
aS'0.75'
p7007
aa(lp7008
g127
ag128
aS'0.74'
p7009
aaaa(lp7010
VQ7LM87_YEASX
p7011
aVQ7LM87
p7012
ag6
aI4932
a(lp7013
(lp7014
g163
ag164
aS'0.87'
p7015
aa(lp7016
g17
ag18
aS'0.02'
p7017
aa(lp7018
VGO:0034191
p7019
aVapolipoprotein A-I receptor binding
p7020
aS'0.02'
p7021
aa(lp7022
VGO:0017048
p7023
aVRho GTPase binding
p7024
aS'0.02'
p7025
aa(lp7026
g171
ag172
aS'0.02'
p7027
aa(lp7028
VGO:0005088
p7029
aVRas guanyl-nucleotide exchange factor activity
p7030
aS'0.02'
p7031
aa(lp7032
g195
ag196
aS'0.02'
p7033
aa(lp7034
VGO:0005095
p7035
aVGTPase inhibitor activity
p7036
aS'0.02'
p7037
aa(lp7038
g311
ag312
aS'0.02'
p7039
aa(lp7040
VGO:0031435
p7041
aVmitogen-activated protein kinase kinase kinase binding
p7042
aS'0.02'
p7043
aa(lp7044
VGO:0031996
p7045
aVthioesterase binding
p7046
aS'0.02'
p7047
aa(lp7048
g239
ag240
aS'0.02'
p7049
aa(lp7050
g605
ag606
aS'0.02'
p7051
aa(lp7052
VGO:0019903
p7053
aVprotein phosphatase binding
p7054
aS'0.02'
p7055
aa(lp7056
g2545
ag2546
aS'0.02'
p7057
aa(lp7058
g227
ag228
aS'0.02'
p7059
aa(lp7060
g37
ag38
aS'0.02'
p7061
aa(lp7062
VGO:0017137
p7063
aVRab GTPase binding
p7064
aS'0.02'
p7065
aa(lp7066
VGO:0005543
p7067
aVphospholipid binding
p7068
aS'0.02'
p7069
aa(lp7070
VGO:0004871
p7071
aVsignal transducer activity
p7072
aS'0.02'
p7073
aa(lp7074
VGO:0019210
p7075
aVkinase inhibitor activity
p7076
aS'0.02'
p7077
aa(lp7078
VGO:0032427
p7079
aVGBD domain binding
p7080
aS'0.02'
p7081
aa(lp7082
VGO:0030553
p7083
aVcGMP binding
p7084
aS'0.02'
p7085
aaaa(lp7086
VE9P9A0_YEASX
p7087
aVE9P9A0
p7088
ag6
aI4932
a(lp7089
(lp7090
VGO:0004801
p7091
aVsedoheptulose-7-phosphate:D-glyceraldehyde-3-phosphate glyceronetransferase activity
p7092
aS'0.86'
p7093
aa(lp7094
VGO:0097023
p7095
aVfructose 6-phosphate aldolase activity
p7096
aS'0.83'
p7097
aaaa(lp7098
VE9P9G9_YEASX
p7099
aVE9P9G9
p7100
ag6
aI4932
a(lp7101
(lp7102
g1009
ag1010
aS'0.7'
p7103
aa(lp7104
g155
ag156
aS'0.5'
p7105
aaaa(lp7106
VG8EXC9_YEASX
p7107
aVG8EXC9
p7108
ag6
aI4932
a(lp7109
(lp7110
g627
ag628
aS'0.92'
p7111
aa(lp7112
g631
ag632
aS'0.13'
p7113
aa(lp7114
g57
ag58
aS'0.13'
p7115
aa(lp7116
g551
ag552
aS'0.13'
p7117
aaaa(lp7118
VH9NBK0_YEASX
p7119
aVH9NBK0
p7120
ag6
aI4932
a(lp7121
(lp7122
g17
ag18
aS'0.56'
p7123
aa(lp7124
g21
ag22
aS'0.47'
p7125
aa(lp7126
g25
ag26
aS'0.47'
p7127
aa(lp7128
g29
ag30
aS'0.46'
p7129
aa(lp7130
g33
ag34
aS'0.46'
p7131
aa(lp7132
g37
ag38
aS'0.46'
p7133
aa(lp7134
g41
ag42
aS'0.46'
p7135
aaaa(lp7136
VH9NBM2_YEASX
p7137
aVH9NBM2
p7138
ag6
aI4932
a(lp7139
(lp7140
g17
ag18
aS'0.66'
p7141
aa(lp7142
g21
ag22
aS'0.54'
p7143
aa(lp7144
g25
ag26
aS'0.53'
p7145
aa(lp7146
g29
ag30
aS'0.51'
p7147
aa(lp7148
g33
ag34
aS'0.49'
p7149
aa(lp7150
g37
ag38
aS'0.49'
p7151
aa(lp7152
g41
ag42
aS'0.49'
p7153
aaaa(lp7154
VH9NBJ1_YEASX
p7155
aVH9NBJ1
p7156
ag6
aI4932
a(lp7157
(lp7158
g17
ag18
aS'0.79'
p7159
aa(lp7160
g21
ag22
aS'0.55'
p7161
aa(lp7162
g25
ag26
aS'0.53'
p7163
aa(lp7164
g29
ag30
aS'0.51'
p7165
aa(lp7166
g33
ag34
aS'0.49'
p7167
aa(lp7168
g37
ag38
aS'0.49'
p7169
aa(lp7170
g41
ag42
aS'0.49'
p7171
aaaa(lp7172
VE9P8N4_YEASX
p7173
aVE9P8N4
p7174
ag6
aI4932
a(lp7175
(lp7176
g163
ag164
aS'0.84'
p7177
aa(lp7178
g167
ag168
aS'0.01'
p7179
aa(lp7180
g171
ag172
aS'0.01'
p7181
aa(lp7182
g175
ag176
aS'0.01'
p7183
aa(lp7184
g179
ag180
aS'0.01'
p7185
aa(lp7186
g183
ag184
aS'0.01'
p7187
aa(lp7188
g187
ag188
aS'0.01'
p7189
aa(lp7190
g191
ag192
aS'0.01'
p7191
aa(lp7192
g195
ag196
aS'0.01'
p7193
aa(lp7194
g199
ag200
aS'0.01'
p7195
aa(lp7196
g203
ag204
aS'0.01'
p7197
aa(lp7198
g207
ag208
aS'0.01'
p7199
aa(lp7200
g211
ag212
aS'0.01'
p7201
aa(lp7202
g215
ag216
aS'0.01'
p7203
aa(lp7204
g219
ag220
aS'0.01'
p7205
aa(lp7206
g223
ag224
aS'0.01'
p7207
aa(lp7208
g227
ag228
aS'0.01'
p7209
aa(lp7210
g231
ag232
aS'0.01'
p7211
aa(lp7212
g235
ag236
aS'0.01'
p7213
aa(lp7214
g239
ag240
aS'0.01'
p7215
aa(lp7216
g243
ag244
aS'0.01'
p7217
aaaa(lp7218
VH9NBG3_YEASX
p7219
aVH9NBG3
p7220
ag6
aI4932
a(lp7221
(lp7222
g17
ag18
aS'0.56'
p7223
aa(lp7224
g21
ag22
aS'0.47'
p7225
aa(lp7226
g25
ag26
aS'0.47'
p7227
aa(lp7228
g29
ag30
aS'0.46'
p7229
aa(lp7230
g33
ag34
aS'0.46'
p7231
aa(lp7232
g37
ag38
aS'0.46'
p7233
aa(lp7234
g41
ag42
aS'0.46'
p7235
aaaa(lp7236
VG4XS73_YEASX
p7237
aVG4XS73
p7238
ag6
aI4932
a(lp7239
(lp7240
g485
ag486
aS'0.93'
p7241
aa(lp7242
g489
ag490
aS'0.84'
p7243
aa(lp7244
g1155
ag1156
aS'0.76'
p7245
aa(lp7246
g1151
ag1152
aS'0.76'
p7247
aa(lp7248
g151
ag152
aS'0.76'
p7249
aa(lp7250
g555
ag556
aS'0.76'
p7251
aaaa(lp7252
VF2Z6M8_YEASX
p7253
aVF2Z6M8
p7254
ag6
aI4932
a(lp7255
(lp7256
g1105
ag1106
aS'0.92'
p7257
aa(lp7258
g1097
ag1098
aS'0.91'
p7259
aa(lp7260
g1109
ag1110
aS'0.77'
p7261
aaaa(lp7262
VD2XNA8_YEASX
p7263
aVD2XNA8
p7264
ag6
aI4932
a(lp7265
(lp7266
g151
ag152
aS'0.79'
p7267
aaaa(lp7268
VMEL6_YEASX
p7269
aVP41947
p7270
ag6
aI4932
a(lp7271
(lp7272
g5815
ag5816
aS'0.93'
p7273
aa(lp7274
g5819
ag5820
aS'0.05'
p7275
aa(lp7276
g5823
ag5824
aS'0.05'
p7277
aa(lp7278
g1083
ag1084
aS'0.05'
p7279
aa(lp7280
g57
ag58
aS'0.05'
p7281
aaaa(lp7282
VE9P9B6_YEASX
p7283
aVE9P9B6
p7284
ag6
aI4932
a(lp7285
(lp7286
VGO:0015186
p7287
aVL-glutamine transmembrane transporter activity
p7288
aS'0.45'
p7289
aa(lp7290
VGO:0005302
p7291
aVL-tyrosine transmembrane transporter activity
p7292
aS'0.41'
p7293
aaaa(lp7294
VD3W8P0_YEASX
p7295
aVD3W8P0
p7296
ag6
aI4932
a(lp7297
(lp7298
g327
ag328
aS'0.84'
p7299
aa(lp7300
g331
ag332
aS'0.13'
p7301
aa(lp7302
g335
ag336
aS'0.13'
p7303
aa(lp7304
g339
ag340
aS'0.13'
p7305
aa(lp7306
g151
ag152
aS'0.13'
p7307
aa(lp7308
g345
ag346
aS'0.13'
p7309
aa(lp7310
g349
ag350
aS'0.13'
p7311
aa(lp7312
g353
ag354
aS'0.13'
p7313
aaaa(lp7314
VTY1A_YEASX
p7315
aVP08405
p7316
ag6
aI4932
a(lp7317
(lp7318
g151
ag152
aS'0.69'
p7319
aaaa(lp7320
VHSP77_YEASX
p7321
aVP0CS91
p7322
ag6
aI4932
a(lp7323
(lp7324
VGO:0019904
p7325
aVprotein domain specific binding
p7326
aS'0.58'
p7327
aa(lp7328
g123
ag124
aS'0.46'
p7329
aa(lp7330
g555
ag556
aS'0.45'
p7331
aa(lp7332
g443
ag444
aS'0.44'
p7333
aa(lp7334
g1023
ag1024
aS'0.44'
p7335
aa(lp7336
g2149
ag2150
aS'0.43'
p7337
aa(lp7338
g4555
ag4556
aS'0.39'
p7339
aaaa(lp7340
VD3W798_YEASX
p7341
aVD3W798
p7342
ag6
aI4932
a(lp7343
(lp7344
g327
ag328
aS'0.86'
p7345
aa(lp7346
g331
ag332
aS'0.03'
p7347
aa(lp7348
g335
ag336
aS'0.03'
p7349
aa(lp7350
g339
ag340
aS'0.03'
p7351
aa(lp7352
g151
ag152
aS'0.03'
p7353
aa(lp7354
g345
ag346
aS'0.03'
p7355
aa(lp7356
g349
ag350
aS'0.03'
p7357
aa(lp7358
g353
ag354
aS'0.03'
p7359
aaaa(lp7360
VH9BH78_YEASX
p7361
aVH9BH78
p7362
ag6
aI4932
a(lp7363
(lp7364
g25
ag26
aS'0.82'
p7365
aa(lp7366
g269
ag270
aS'0.82'
p7367
aa(lp7368
g227
ag228
aS'0.82'
p7369
aa(lp7370
g127
ag128
aS'0.79'
p7371
aaaa(lp7372
VD5MS12_YEASX
p7373
aVD5MS12
p7374
ag6
aI4932
a(lp7375
(lp7376
g251
ag252
aS'0.94'
p7377
aa(lp7378
g255
ag256
aS'0.59'
p7379
aa(lp7380
g259
ag260
aS'0.59'
p7381
aaaa(lp7382
VE9P997_YEASX
p7383
aVE9P997
p7384
ag6
aI4932
a(lp7385
(lp7386
g151
ag152
aS'0.66'
p7387
aaaa(lp7388
VE9PA43_YEASX
p7389
aVE9PA43
p7390
ag6
aI4932
a(lp7391
(lp7392
g151
ag152
aS'0.73'
p7393
aaaa(lp7394
VC9ELN6_YEASX
p7395
aVC9ELN6
p7396
ag6
aI4932
a(lp7397
(lp7398
g1101
ag1102
aS'0.92'
p7399
aa(lp7400
g57
ag58
aS'0.77'
p7401
aaaa(lp7402
VE9P8I6_YEASX
p7403
aVE9P8I6
p7404
ag6
aI4932
a(lp7405
(lp7406
g151
ag152
aS'0.69'
p7407
aaaa(lp7408
VE9P9D1_YEASX
p7409
aVE9P9D1
p7410
ag6
aI4932
a(lp7411
(lp7412
g1305
ag1306
aS'0.85'
p7413
aa(lp7414
g1309
ag1310
aS'0.72'
p7415
aaaa(lp7416
VB0M8W1_YEASX
p7417
aVB0M8W1
p7418
ag6
aI4932
a(lp7419
(lp7420
g1009
ag1010
aS'0.85'
p7421
aa(lp7422
g1875
ag1876
aS'0.4'
p7423
aa(lp7424
g17
ag18
aS'0.35'
p7425
aa(lp7426
g1881
ag1882
aS'0.35'
p7427
aa(lp7428
g1885
ag1886
aS'0.35'
p7429
aa(lp7430
g821
ag822
aS'0.35'
p7431
aa(lp7432
g1891
ag1892
aS'0.35'
p7433
aa(lp7434
g1895
ag1896
aS'0.35'
p7435
aaaa(lp7436
VE9P8K3_YEASX
p7437
aVE9P8K3
p7438
ag6
aI4932
a(lp7439
(lp7440
g151
ag152
aS'0.74'
p7441
aa(lp7442
g155
ag156
aS'0.36'
p7443
aaaa(lp7444
VE9P8H4_YEASX
p7445
aVE9P8H4
p7446
ag6
aI4932
a(lp7447
(lp7448
g543
ag544
aS'0.9'
p7449
aa(lp7450
g547
ag548
aS'0.81'
p7451
aa(lp7452
g551
ag552
aS'0.7'
p7453
aa(lp7454
g555
ag556
aS'0.65'
p7455
aaaa(lp7456
VE9P8P2_YEASX
p7457
aVE9P8P2
p7458
ag6
aI4932
a(lp7459
(lp7460
g123
ag124
aS'0.68'
p7461
aa(lp7462
g127
ag128
aS'0.28'
p7463
aaaa(lp7464
VF8WQC8_YEASX
p7465
aVF8WQC8
p7466
ag6
aI4932
a(lp7467
(lp7468
VGO:0004515
p7469
aVnicotinate-nucleotide adenylyltransferase activity
p7470
aS'0.92'
p7471
aa(lp7472
VGO:0000309
p7473
aVnicotinamide-nucleotide adenylyltransferase activity
p7474
aS'0.34'
p7475
aaaa(lp7476
VD5MS23_YEASX
p7477
aVD5MS23
p7478
ag6
aI4932
a(lp7479
(lp7480
g251
ag252
aS'0.95'
p7481
aa(lp7482
g255
ag256
aS'0.44'
p7483
aa(lp7484
g259
ag260
aS'0.44'
p7485
aaaa(lp7486
VQ4KPK3_YEASX
p7487
aVQ4KPK3
p7488
ag6
aI4932
a(lp7489
(lp7490
g711
ag712
aS'0.88'
p7491
aa(lp7492
g707
ag708
aS'0.83'
p7493
aa(lp7494
g151
ag152
aS'0.73'
p7495
aaaa(lp7496
VE9P9F2_YEASX
p7497
aVE9P9F2
p7498
ag6
aI4932
a(lp7499
(lp7500
g17
ag18
aS'0.67'
p7501
aa(lp7502
g29
ag30
aS'0.5'
p7503
aa(lp7504
g21
ag22
aS'0.48'
p7505
aa(lp7506
g25
ag26
aS'0.46'
p7507
aa(lp7508
g33
ag34
aS'0.43'
p7509
aa(lp7510
g37
ag38
aS'0.43'
p7511
aa(lp7512
g41
ag42
aS'0.43'
p7513
aaaa(lp7514
VG4XS18_YEASX
p7515
aVG4XS18
p7516
ag6
aI4932
a(lp7517
(lp7518
g2111
ag2112
aS'0.84'
p7519
aa(lp7520
g57
ag58
aS'0.71'
p7521
aa(lp7522
g2117
ag2118
aS'0.56'
p7523
aaaa(lp7524
VD6C7E7_YEASX
p7525
aVD6C7E7
p7526
ag6
aI4932
a(lp7527
(lp7528
g29
ag30
aS'0.52'
p7529
aa(lp7530
g17
ag18
aS'0.22'
p7531
aaaa(lp7532
VE9P9L7_YEASX
p7533
aVE9P9L7
p7534
ag6
aI4932
a(lp7535
(lp7536
g135
ag136
aS'0.95'
p7537
aa(lp7538
g139
ag140
aS'0.16'
p7539
aa(lp7540
g143
ag144
aS'0.15'
p7541
aaaa(lp7542
VE9P9H9_YEASX
p7543
aVE9P9H9
p7544
ag6
aI4932
a(lp7545
(lp7546
g1471
ag1472
aS'0.93'
p7547
aa(lp7548
g1475
ag1476
aS'0.1'
p7549
aa(lp7550
g1479
ag1480
aS'0.09'
p7551
aa(lp7552
g1483
ag1484
aS'0.09'
p7553
aaaa(lp7554
VE9P9F1_YEASX
p7555
aVE9P9F1
p7556
ag6
aI4932
a(lp7557
(lp7558
g29
ag30
aS'0.52'
p7559
aa(lp7560
g17
ag18
aS'0.22'
p7561
aaaa(lp7562
VE9P9C8_YEASX
p7563
aVE9P9C8
p7564
ag6
aI4932
a(lp7565
(lp7566
g1507
ag1508
aS'0.94'
p7567
aa(lp7568
g1503
ag1504
aS'0.89'
p7569
aaaa(lp7570
VE9P8M6_YEASX
p7571
aVE9P8M6
p7572
ag6
aI4932
a(lp7573
(lp7574
g563
ag564
aS'0.93'
p7575
aa(lp7576
g57
ag58
aS'0.68'
p7577
aa(lp7578
g569
ag570
aS'0.67'
p7579
aa(lp7580
g573
ag574
aS'0.67'
p7581
aaaa(lp7582
VE9P980_YEASX
p7583
aVE9P980
p7584
ag6
aI4932
a(lp7585
(lp7586
g3141
ag3142
aS'0.94'
p7587
aa(lp7588
g57
ag58
aS'0.83'
p7589
aa(lp7590
g135
ag136
aS'0.83'
p7591
aa(lp7592
g3161
ag3162
aS'0.83'
p7593
aa(lp7594
g3169
ag3170
aS'0.83'
p7595
aa(lp7596
g2317
ag2318
aS'0.83'
p7597
aaaa(lp7598
VE9P8D3_YEASX
p7599
aVE9P8D3
p7600
ag6
aI4932
a(lp7601
(lp7602
g1101
ag1102
aS'0.87'
p7603
aa(lp7604
g1097
ag1098
aS'0.87'
p7605
aa(lp7606
g1105
ag1106
aS'0.87'
p7607
aa(lp7608
g1109
ag1110
aS'0.71'
p7609
aaaa(lp7610
VE9P8J3_YEASX
p7611
aVE9P8J3
p7612
ag6
aI4932
a(lp7613
(lp7614
g151
ag152
aS'0.75'
p7615
aa(lp7616
g155
ag156
aS'0.41'
p7617
aaaa(lp7618
VE9P9K8_YEASX
p7619
aVE9P9K8
p7620
ag6
aI4932
a(lp7621
(lp7622
g627
ag628
aS'0.92'
p7623
aa(lp7624
g631
ag632
aS'0.13'
p7625
aa(lp7626
g57
ag58
aS'0.13'
p7627
aa(lp7628
g551
ag552
aS'0.13'
p7629
aaaa(lp7630
VH9BH63_YEASX
p7631
aVH9BH63
p7632
ag6
aI4932
a(lp7633
(lp7634
g25
ag26
aS'0.83'
p7635
aa(lp7636
g269
ag270
aS'0.83'
p7637
aa(lp7638
g227
ag228
aS'0.77'
p7639
aa(lp7640
g127
ag128
aS'0.74'
p7641
aaaa(lp7642
VQ70CI4_YEASX
p7643
aVQ70CI4
p7644
ag6
aI4932
a(lp7645
(lp7646
g151
ag152
aS'0.75'
p7647
aa(lp7648
g155
ag156
aS'0.41'
p7649
aaaa(lp7650
VE9P9T9_YEASX
p7651
aVE9P9T9
p7652
ag6
aI4932
a(lp7653
(lp7654
g543
ag544
aS'0.95'
p7655
aa(lp7656
VGO:0005080
p7657
aVprotein kinase C binding
p7658
aS'0.05'
p7659
aa(lp7660
VGO:0043130
p7661
aVubiquitin binding
p7662
aS'0.05'
p7663
aa(lp7664
g243
ag244
aS'0.05'
p7665
aa(lp7666
g551
ag552
aS'0.05'
p7667
aa(lp7668
g435
ag436
aS'0.05'
p7669
aa(lp7670
g547
ag548
aS'0.05'
p7671
aa(lp7672
g57
ag58
aS'0.05'
p7673
aa(lp7674
g1065
ag1066
aS'0.05'
p7675
aa(lp7676
g53
ag54
aS'0.05'
p7677
aa(lp7678
g555
ag556
aS'0.05'
p7679
aa(lp7680
g793
ag794
aS'0.05'
p7681
aaaa(lp7682
VD5MS20_YEASX
p7683
aVD5MS20
p7684
ag6
aI4932
a(lp7685
(lp7686
g251
ag252
aS'0.93'
p7687
aa(lp7688
g255
ag256
aS'0.86'
p7689
aa(lp7690
g259
ag260
aS'0.86'
p7691
aaaa(lp7692
VE9P8L5_YEASX
p7693
aVE9P8L5
p7694
ag6
aI4932
a(lp7695
(lp7696
g151
ag152
aS'0.76'
p7697
aa(lp7698
g155
ag156
aS'0.36'
p7699
aaaa(lp7700
VE9P8M8_YEASX
p7701
aVE9P8M8
p7702
ag6
aI4932
a(lp7703
(lp7704
g563
ag564
aS'0.92'
p7705
aa(lp7706
g57
ag58
aS'0.71'
p7707
aa(lp7708
g569
ag570
aS'0.7'
p7709
aa(lp7710
g573
ag574
aS'0.7'
p7711
aaaa(lp7712
VE9P8J2_YEASX
p7713
aVE9P8J2
p7714
ag6
aI4932
a(lp7715
(lp7716
g151
ag152
aS'0.75'
p7717
aa(lp7718
g155
ag156
aS'0.1'
p7719
aaaa(lp7720
VE9P9V4_YEASX
p7721
aVE9P9V4
p7722
ag6
aI4932
a(lp7723
(lp7724
g4555
ag4556
aS'0.89'
p7725
aa(lp7726
g123
ag124
aS'0.19'
p7727
aaaa(lp7728
VH9TYV4_YEASX
p7729
aVH9TYV4
p7730
ag6
aI4932
a(lp7731
(lp7732
g151
ag152
aS'0.74'
p7733
aaaa(lp7734
VH9NBK2_YEASX
p7735
aVH9NBK2
p7736
ag6
aI4932
a(lp7737
(lp7738
g17
ag18
aS'0.54'
p7739
aa(lp7740
g29
ag30
aS'0.46'
p7741
aa(lp7742
g21
ag22
aS'0.46'
p7743
aa(lp7744
g25
ag26
aS'0.46'
p7745
aa(lp7746
g33
ag34
aS'0.45'
p7747
aa(lp7748
g37
ag38
aS'0.45'
p7749
aa(lp7750
g41
ag42
aS'0.44'
p7751
aaaa(lp7752
VG8EXF7_YEASX
p7753
aVG8EXF7
p7754
ag6
aI4932
a(lp7755
(lp7756
g649
ag650
aS'0.76'
p7757
aa(lp7758
g653
ag654
aS'0.3'
p7759
aa(lp7760
g657
ag658
aS'0.25'
p7761
aaaa(lp7762
VE9P970_YEASX
p7763
aVE9P970
p7764
ag6
aI4932
a(lp7765
(lp7766
g151
ag152
aS'0.76'
p7767
aa(lp7768
g2373
ag2374
aS'0.66'
p7769
aa(lp7770
g143
ag144
aS'0.66'
p7771
aa(lp7772
g2365
ag2366
aS'0.65'
p7773
aa(lp7774
g2369
ag2370
aS'0.65'
p7775
aa(lp7776
g2377
ag2378
aS'0.65'
p7777
aa(lp7778
g555
ag556
aS'0.65'
p7779
aa(lp7780
g2385
ag2386
aS'0.65'
p7781
aaaa(lp7782
VG8EXD5_YEASX
p7783
aVG8EXD5
p7784
ag6
aI4932
a(lp7785
(lp7786
g627
ag628
aS'0.92'
p7787
aa(lp7788
g631
ag632
aS'0.14'
p7789
aa(lp7790
g57
ag58
aS'0.14'
p7791
aa(lp7792
g551
ag552
aS'0.14'
p7793
aaaa(lp7794
VE9P9K2_YEASX
p7795
aVE9P9K2
p7796
ag6
aI4932
a(lp7797
(lp7798
g29
ag30
aS'0.51'
p7799
aa(lp7800
g17
ag18
aS'0.45'
p7801
aaaa(lp7802
VD5MS31_YEASX
p7803
aVD5MS31
p7804
ag6
aI4932
a(lp7805
(lp7806
g251
ag252
aS'0.94'
p7807
aa(lp7808
g255
ag256
aS'0.57'
p7809
aa(lp7810
g259
ag260
aS'0.57'
p7811
aaaa(lp7812
VD5MS22_YEASX
p7813
aVD5MS22
p7814
ag6
aI4932
a(lp7815
(lp7816
g251
ag252
aS'0.94'
p7817
aa(lp7818
g255
ag256
aS'0.68'
p7819
aa(lp7820
g259
ag260
aS'0.68'
p7821
aaaa(lp7822
VE9P9Z6_YEASX
p7823
aVE9P9Z6
p7824
ag6
aI4932
a(lp7825
(lp7826
VGO:0008379
p7827
aVthioredoxin peroxidase activity
p7828
aS'0.86'
p7829
aa(lp7830
VGO:0030985
p7831
aVhigh molecular weight kininogen binding
p7832
aS'0.11'
p7833
aaaa(lp7834
VE9P9D5_YEASX
p7835
aVE9P9D5
p7836
ag6
aI4932
a(lp7837
(lp7838
VGO:0004412
p7839
aVhomoserine dehydrogenase activity
p7840
aS'0.93'
p7841
aa(lp7842
VGO:0004072
p7843
aVaspartate kinase activity
p7844
aS'0.93'
p7845
aa(lp7846
VGO:0016620
p7847
aVoxidoreductase activity, acting on the aldehyde or oxo group of donors, NAD or NADP as acceptor
p7848
aS'0.88'
p7849
aaaa(lp7850
VE9P9D3_YEASX
p7851
aVE9P9D3
p7852
ag6
aI4932
a(lp7853
(lp7854
g1305
ag1306
aS'0.9'
p7855
aa(lp7856
g1309
ag1310
aS'0.47'
p7857
aaaa(lp7858
VD2J4C2_YEASX
p7859
aVD2J4C2
p7860
ag6
aI4932
a(lp7861
(lp7862
g4555
ag4556
aS'0.89'
p7863
aa(lp7864
g123
ag124
aS'0.02'
p7865
aa(lp7866
g2117
ag2118
aS'0.02'
p7867
aa(lp7868
g311
ag312
aS'0.02'
p7869
aa(lp7870
g135
ag136
aS'0.02'
p7871
aa(lp7872
g555
ag556
aS'0.02'
p7873
aa(lp7874
g2111
ag2112
aS'0.02'
p7875
aaaa(lp7876
VH9TVU0_YEASX
p7877
aVH9TVU0
p7878
ag6
aI4932
a(lp7879
(lp7880
g627
ag628
aS'0.89'
p7881
aa(lp7882
g631
ag632
aS'0.32'
p7883
aa(lp7884
g57
ag58
aS'0.32'
p7885
aa(lp7886
g551
ag552
aS'0.32'
p7887
aaaa(lp7888
VE9P9W5_YEASX
p7889
aVE9P9W5
p7890
ag6
aI4932
a(lp7891
(lp7892
g231
ag232
aS'0.81'
p7893
aa(lp7894
g243
ag244
aS'0.38'
p7895
aa(lp7896
VGO:0005518
p7897
aVcollagen binding
p7898
aS'0.38'
p7899
aa(lp7900
g195
ag196
aS'0.37'
p7901
aa(lp7902
g33
ag34
aS'0.37'
p7903
aa(lp7904
g809
ag810
aS'0.37'
p7905
aa(lp7906
g7053
ag7054
aS'0.37'
p7907
aa(lp7908
VGO:0043424
p7909
aVprotein histidine kinase binding
p7910
aS'0.37'
p7911
aa(lp7912
VGO:0030276
p7913
aVclathrin binding
p7914
aS'0.37'
p7915
aaaa(lp7916
VG4XS65_YEASX
p7917
aVG4XS65
p7918
ag6
aI4932
a(lp7919
(lp7920
g485
ag486
aS'0.93'
p7921
aa(lp7922
g489
ag490
aS'0.83'
p7923
aa(lp7924
g1155
ag1156
aS'0.74'
p7925
aa(lp7926
g1151
ag1152
aS'0.74'
p7927
aa(lp7928
g151
ag152
aS'0.74'
p7929
aa(lp7930
g555
ag556
aS'0.74'
p7931
aaaa(lp7932
VE9P8I9_YEASX
p7933
aVE9P8I9
p7934
ag6
aI4932
a(lp7935
(lp7936
g151
ag152
aS'0.87'
p7937
aa(lp7938
g1065
ag1066
aS'0.53'
p7939
aa(lp7940
g1785
ag1786
aS'0.53'
p7941
aa(lp7942
g439
ag440
aS'0.53'
p7943
aaaa(lp7944
VE9P9E6_YEASX
p7945
aVE9P9E6
p7946
ag6
aI4932
a(lp7947
(lp7948
g17
ag18
aS'0.5'
p7949
aa(lp7950
g29
ag30
aS'0.5'
p7951
aa(lp7952
g21
ag22
aS'0.38'
p7953
aaaa(lp7954
VE9P8S5_YEASX
p7955
aVE9P8S5
p7956
ag6
aI4932
a(lp7957
(lp7958
g17
ag18
aS'0.71'
p7959
aa(lp7960
g439
ag440
aS'0.65'
p7961
aaaa(lp7962
VE9P9W4_YEASX
p7963
aVE9P9W4
p7964
ag6
aI4932
a(lp7965
(lp7966
g231
ag232
aS'0.81'
p7967
aa(lp7968
g243
ag244
aS'0.37'
p7969
aa(lp7970
g7897
ag7898
aS'0.37'
p7971
aa(lp7972
g195
ag196
aS'0.36'
p7973
aa(lp7974
g33
ag34
aS'0.36'
p7975
aa(lp7976
g809
ag810
aS'0.36'
p7977
aa(lp7978
g7053
ag7054
aS'0.36'
p7979
aa(lp7980
g7909
ag7910
aS'0.36'
p7981
aa(lp7982
g7913
ag7914
aS'0.36'
p7983
aaaa(lp7984
VD6C7H1_YEASX
p7985
aVD6C7H1
p7986
ag6
aI4932
a(lp7987
(lp7988
g497
ag498
aS'0.69'
p7989
aaaa(lp7990
VE9P9B8_YEASX
p7991
aVE9P9B8
p7992
ag6
aI4932
a(lp7993
(lp7994
g2373
ag2374
aS'0.74'
p7995
aaaa(lp7996
VE9P9W3_YEASX
p7997
aVE9P9W3
p7998
ag6
aI4932
a(lp7999
(lp8000
g431
ag432
aS'0.5'
p8001
aa(lp8002
g439
ag440
aS'0.47'
p8003
aa(lp8004
g443
ag444
aS'0.46'
p8005
aaaa(lp8006
VH9TW08_YEASX
p8007
aVH9TW08
p8008
ag6
aI4932
a(lp8009
(lp8010
g151
ag152
aS'0.69'
p8011
aa(lp8012
g699
ag700
aS'0.07'
p8013
aaaa(lp8014
VD6C7G1_YEASX
p8015
aVD6C7G1
p8016
ag6
aI4932
a(lp8017
(lp8018
g1503
ag1504
aS'0.86'
p8019
aa(lp8020
g1507
ag1508
aS'0.84'
p8021
aaaa(lp8022
VE9P8J6_YEASX
p8023
aVE9P8J6
p8024
ag6
aI4932
a(lp8025
(lp8026
g151
ag152
aS'0.75'
p8027
aa(lp8028
g155
ag156
aS'0.39'
p8029
aaaa(lp8030
VG4XS74_YEASX
p8031
aVG4XS74
p8032
ag6
aI4932
a(lp8033
(lp8034
g485
ag486
aS'0.94'
p8035
aa(lp8036
g489
ag490
aS'0.82'
p8037
aa(lp8038
g1155
ag1156
aS'0.7'
p8039
aa(lp8040
g1151
ag1152
aS'0.7'
p8041
aa(lp8042
g151
ag152
aS'0.7'
p8043
aa(lp8044
g555
ag556
aS'0.7'
p8045
aaaa(lp8046
VE9P9M1_YEASX
p8047
aVE9P9M1
p8048
ag6
aI4932
a(lp8049
(lp8050
g29
ag30
aS'0.48'
p8051
aa(lp8052
g17
ag18
aS'0.12'
p8053
aaaa(lp8054
VD2XNB2_YEASX
p8055
aVD2XNB2
p8056
ag6
aI4932
a(lp8057
(lp8058
g151
ag152
aS'0.79'
p8059
aaaa(lp8060
VE9P8C8_YEASX
p8061
aVE9P8C8
p8062
ag6
aI4932
a(lp8063
(lp8064
g1175
ag1176
aS'0.87'
p8065
aa(lp8066
VGO:0004568
p8067
aVchitinase activity
p8068
aS'0.85'
p8069
aa(lp8070
g5867
ag5868
aS'0.82'
p8071
aaaa(lp8072
VH9NBM6_YEASX
p8073
aVH9NBM6
p8074
ag6
aI4932
a(lp8075
(lp8076
g17
ag18
aS'0.56'
p8077
aa(lp8078
g21
ag22
aS'0.48'
p8079
aa(lp8080
g25
ag26
aS'0.47'
p8081
aa(lp8082
g29
ag30
aS'0.46'
p8083
aa(lp8084
g33
ag34
aS'0.46'
p8085
aa(lp8086
g37
ag38
aS'0.46'
p8087
aa(lp8088
g41
ag42
aS'0.46'
p8089
aaaa(lp8090
VH9TZ10_YEASX
p8091
aVH9TZ10
p8092
ag6
aI4932
a(lp8093
(lp8094
g707
ag708
aS'0.83'
p8095
aa(lp8096
g711
ag712
aS'0.81'
p8097
aa(lp8098
g151
ag152
aS'0.74'
p8099
aaaa(lp8100
VQ7LKB0_YEASX
p8101
aVQ7LKB0
p8102
ag6
aI4932
a(lp8103
(lp8104
g123
ag124
aS'0.69'
p8105
aa(lp8106
g127
ag128
aS'0.26'
p8107
aaaa(lp8108
VH9TW17_YEASX
p8109
aVH9TW17
p8110
ag6
aI4932
a(lp8111
(lp8112
g151
ag152
aS'0.69'
p8113
aa(lp8114
g699
ag700
aS'0.05'
p8115
aaaa(lp8116
VQ4KPX9_YEASX
p8117
aVQ4KPX9
p8118
ag6
aI4932
a(lp8119
(lp8120
g151
ag152
aS'0.77'
p8121
aa(lp8122
g2365
ag2366
aS'0.74'
p8123
aa(lp8124
g2369
ag2370
aS'0.74'
p8125
aa(lp8126
g2373
ag2374
aS'0.74'
p8127
aa(lp8128
g2377
ag2378
aS'0.74'
p8129
aa(lp8130
g555
ag556
aS'0.74'
p8131
aa(lp8132
g143
ag144
aS'0.74'
p8133
aa(lp8134
g2385
ag2386
aS'0.74'
p8135
aaaa(lp8136
VE9P9L6_YEASX
p8137
aVE9P9L6
p8138
ag6
aI4932
a(lp8139
(lp8140
g135
ag136
aS'0.95'
p8141
aa(lp8142
g139
ag140
aS'0.16'
p8143
aa(lp8144
g143
ag144
aS'0.15'
p8145
aaaa(lp8146
VE9P8Q1_YEASX
p8147
aVE9P8Q1
p8148
ag6
aI4932
a(lp8149
(lp8150
g123
ag124
aS'0.68'
p8151
aa(lp8152
g127
ag128
aS'0.23'
p8153
aaaa(lp8154
VC9ELP9_YEASX
p8155
aVC9ELP9
p8156
ag6
aI4932
a(lp8157
(lp8158
g1101
ag1102
aS'0.92'
p8159
aa(lp8160
g57
ag58
aS'0.77'
p8161
aaaa(lp8162
VE9P9J9_YEASX
p8163
aVE9P9J9
p8164
ag6
aI4932
a(lp8165
(lp8166
g29
ag30
aS'0.46'
p8167
aa(lp8168
g17
ag18
aS'0.32'
p8169
aaaa(lp8170
VE9P8H5_YEASX
p8171
aVE9P8H5
p8172
ag6
aI4932
a(lp8173
(lp8174
g543
ag544
aS'0.9'
p8175
aa(lp8176
g547
ag548
aS'0.8'
p8177
aa(lp8178
g551
ag552
aS'0.79'
p8179
aa(lp8180
g555
ag556
aS'0.76'
p8181
aaaa(lp8182
VE9P8E0_YEASX
p8183
aVE9P8E0
p8184
ag6
aI4932
a(lp8185
(lp8186
g6603
ag6604
aS'0.95'
p8187
aa(lp8188
g2317
ag2318
aS'0.19'
p8189
aaaa(lp8190
VE9P9E2_YEASX
p8191
aVE9P9E2
p8192
ag6
aI4932
a(lp8193
(lp8194
g1175
ag1176
aS'0.87'
p8195
aa(lp8196
g1179
ag1180
aS'0.29'
p8197
aaaa(lp8198
VH9BH55_YEASX
p8199
aVH9BH55
p8200
ag6
aI4932
a(lp8201
(lp8202
g25
ag26
aS'0.82'
p8203
aa(lp8204
g269
ag270
aS'0.81'
p8205
aa(lp8206
g227
ag228
aS'0.81'
p8207
aa(lp8208
g127
ag128
aS'0.75'
p8209
aa(lp8210
g123
ag124
aS'0.61'
p8211
aaaa(lp8212
VE9P8G1_YEASX
p8213
aVE9P8G1
p8214
ag6
aI4932
a(lp8215
(lp8216
g431
ag432
aS'0.89'
p8217
aa(lp8218
g435
ag436
aS'0.67'
p8219
aa(lp8220
g439
ag440
aS'0.66'
p8221
aa(lp8222
g443
ag444
aS'0.65'
p8223
aa(lp8224
g447
ag448
aS'0.61'
p8225
aaaa(lp8226
VE9P8M2_YEASX
p8227
aVE9P8M2
p8228
ag6
aI4932
a(lp8229
(lp8230
g563
ag564
aS'0.94'
p8231
aa(lp8232
g57
ag58
aS'0.55'
p8233
aa(lp8234
g569
ag570
aS'0.54'
p8235
aa(lp8236
g573
ag574
aS'0.54'
p8237
aaaa(lp8238
VH9TYW0_YEASX
p8239
aVH9TYW0
p8240
ag6
aI4932
a(lp8241
(lp8242
g151
ag152
aS'0.74'
p8243
aaaa(lp8244
VE9P9F0_YEASX
p8245
aVE9P9F0
p8246
ag6
aI4932
a(lp8247
(lp8248
g29
ag30
aS'0.51'
p8249
aa(lp8250
g17
ag18
aS'0.45'
p8251
aaaa(lp8252
VE9P8I7_YEASX
p8253
aVE9P8I7
p8254
ag6
aI4932
a(lp8255
(lp8256
g151
ag152
aS'0.76'
p8257
aa(lp8258
g155
ag156
aS'0.39'
p8259
aaaa(lp8260
VG4XS49_YEASX
p8261
aVG4XS49
p8262
ag6
aI4932
a(lp8263
(lp8264
g485
ag486
aS'0.94'
p8265
aa(lp8266
g489
ag490
aS'0.73'
p8267
aaaa(lp8268
VH9NBI6_YEASX
p8269
aVH9NBI6
p8270
ag6
aI4932
a(lp8271
(lp8272
g17
ag18
aS'0.76'
p8273
aa(lp8274
g21
ag22
aS'0.54'
p8275
aa(lp8276
g25
ag26
aS'0.53'
p8277
aa(lp8278
g29
ag30
aS'0.51'
p8279
aa(lp8280
g33
ag34
aS'0.49'
p8281
aa(lp8282
g37
ag38
aS'0.49'
p8283
aa(lp8284
g41
ag42
aS'0.49'
p8285
aaaa(lp8286
VD5MS28_YEASX
p8287
aVD5MS28
p8288
ag6
aI4932
a(lp8289
(lp8290
g251
ag252
aS'0.94'
p8291
aa(lp8292
g255
ag256
aS'0.65'
p8293
aa(lp8294
g259
ag260
aS'0.64'
p8295
aaaa(lp8296
VH9TVT2_YEASX
p8297
aVH9TVT2
p8298
ag6
aI4932
a(lp8299
(lp8300
g627
ag628
aS'0.92'
p8301
aa(lp8302
g631
ag632
aS'0.13'
p8303
aa(lp8304
g57
ag58
aS'0.13'
p8305
aa(lp8306
g551
ag552
aS'0.13'
p8307
aaaa(lp8308
VE9P9K3_YEASX
p8309
aVE9P9K3
p8310
ag6
aI4932
a(lp8311
(lp8312
g17
ag18
aS'0.5'
p8313
aa(lp8314
g29
ag30
aS'0.5'
p8315
aaaa(lp8316
VH9TVX7_YEASX
p8317
aVH9TVX7
p8318
ag6
aI4932
a(lp8319
(lp8320
g151
ag152
aS'0.69'
p8321
aa(lp8322
g699
ag700
aS'0.07'
p8323
aaaa(lp8324
VH9NBA0_YEASX
p8325
aVH9NBA0
p8326
ag6
aI4932
a(lp8327
(lp8328
g1367
ag1368
aS'0.81'
p8329
aa(lp8330
g1371
ag1372
aS'0.78'
p8331
aa(lp8332
g1375
ag1376
aS'0.78'
p8333
aa(lp8334
g547
ag548
aS'0.78'
p8335
aa(lp8336
g1381
ag1382
aS'0.78'
p8337
aa(lp8338
g57
ag58
aS'0.78'
p8339
aa(lp8340
g1387
ag1388
aS'0.78'
p8341
aaaa(lp8342
VB5LYQ9_YEASX
p8343
aVB5LYQ9
p8344
ag6
aI4932
a(lp8345
(lp8346
VGO:0043874
p8347
aVacireductone synthase activity
p8348
aS'0.52'
p8349
aa(lp8350
VGO:0008877
p8351
aVglucose-1-phosphatase activity
p8352
aS'0.45'
p8353
aa(lp8354
VGO:0050483
p8355
aVIMP 5'-nucleotidase activity
p8356
aS'0.45'
p8357
aa(lp8358
VGO:0050484
p8359
aVGMP 5'-nucleotidase activity
p8360
aS'0.45'
p8361
aa(lp8362
VGO:0050124
p8363
aVN-acylneuraminate-9-phosphatase activity
p8364
aS'0.45'
p8365
aa(lp8366
g551
ag552
aS'0.44'
p8367
aa(lp8368
g151
ag152
aS'0.44'
p8369
aa(lp8370
g631
ag632
aS'0.44'
p8371
aa(lp8372
VGO:0008477
p8373
aVpurine nucleosidase activity
p8374
aS'0.44'
p8375
aa(lp8376
VGO:0004713
p8377
aVprotein tyrosine kinase activity
p8378
aS'0.42'
p8379
aaaa(lp8380
VD2XNB0_YEASX
p8381
aVD2XNB0
p8382
ag6
aI4932
a(lp8383
(lp8384
g151
ag152
aS'0.79'
p8385
aaaa(lp8386
VG4XSL3_YEASX
p8387
aVG4XSL3
p8388
ag6
aI4932
a(lp8389
(lp8390
g473
ag474
aS'0.85'
p8391
aa(lp8392
g631
ag632
aS'0.8'
p8393
aa(lp8394
g3683
ag3684
aS'0.8'
p8395
aa(lp8396
g477
ag478
aS'0.8'
p8397
aaaa(lp8398
VD7GNM4_YEASX
p8399
aVD7GNM4
p8400
ag6
aI4932
a(lp8401
(lp8402
g29
ag30
aS'0.52'
p8403
aa(lp8404
g17
ag18
aS'0.29'
p8405
aaaa(lp8406
VE9P8D0_YEASX
p8407
aVE9P8D0
p8408
ag6
aI4932
a(lp8409
(lp8410
VGO:0004004
p8411
aVATP-dependent RNA helicase activity
p8412
aS'0.77'
p8413
aa(lp8414
VGO:0036310
p8415
aVannealing helicase activity
p8416
aS'0.72'
p8417
aaaa(lp8418
VG4XSE0_YEASX
p8419
aVG4XSE0
p8420
ag6
aI4932
a(lp8421
(lp8422
g689
ag690
aS'0.93'
p8423
aa(lp8424
g649
ag650
aS'0.79'
p8425
aa(lp8426
g695
ag696
aS'0.79'
p8427
aa(lp8428
g699
ag700
aS'0.79'
p8429
aaaa(lp8430
VG4XSG8_YEASX
p8431
aVG4XSG8
p8432
ag6
aI4932
a(lp8433
(lp8434
g689
ag690
aS'0.93'
p8435
aa(lp8436
g649
ag650
aS'0.83'
p8437
aa(lp8438
g695
ag696
aS'0.83'
p8439
aa(lp8440
g699
ag700
aS'0.83'
p8441
aaaa(lp8442
VE9P9E8_YEASX
p8443
aVE9P9E8
p8444
ag6
aI4932
a(lp8445
(lp8446
g17
ag18
aS'0.76'
p8447
aa(lp8448
g29
ag30
aS'0.51'
p8449
aa(lp8450
g21
ag22
aS'0.51'
p8451
aa(lp8452
g25
ag26
aS'0.49'
p8453
aa(lp8454
g37
ag38
aS'0.46'
p8455
aa(lp8456
g33
ag34
aS'0.45'
p8457
aa(lp8458
g41
ag42
aS'0.45'
p8459
aaaa(lp8460
VHAP1_YEASX
p8461
aVP0CS82
p8462
ag6
aI4932
a(lp8463
(lp8464
g439
ag440
aS'0.56'
p8465
aa(lp8466
g431
ag432
aS'0.5'
p8467
aaaa(lp8468
VE9P9E4_YEASX
p8469
aVE9P9E4
p8470
ag6
aI4932
a(lp8471
(lp8472
g1175
ag1176
aS'0.82'
p8473
aa(lp8474
g8067
ag8068
aS'0.79'
p8475
aa(lp8476
g5867
ag5868
aS'0.76'
p8477
aaaa(lp8478
VE9P9B0_YEASX
p8479
aVE9P9B0
p8480
ag6
aI4932
a(lp8481
(lp8482
VGO:0043262
p8483
aVadenosine-diphosphatase activity
p8484
aS'0.62'
p8485
aa(lp8486
VGO:0015292
p8487
aVuniporter activity
p8488
aS'0.31'
p8489
aa(lp8490
VGO:0044610
p8491
aVFMN transmembrane transporter activity
p8492
aS'0.29'
p8493
aaaa(lp8494
VH9NBH9_YEASX
p8495
aVH9NBH9
p8496
ag6
aI4932
a(lp8497
(lp8498
g17
ag18
aS'0.55'
p8499
aa(lp8500
g29
ag30
aS'0.5'
p8501
aa(lp8502
g21
ag22
aS'0.43'
p8503
aa(lp8504
g25
ag26
aS'0.42'
p8505
aa(lp8506
g33
ag34
aS'0.38'
p8507
aa(lp8508
g37
ag38
aS'0.38'
p8509
aa(lp8510
g41
ag42
aS'0.38'
p8511
aaaa(lp8512
VE9P8L8_YEASX
p8513
aVE9P8L8
p8514
ag6
aI4932
a(lp8515
(lp8516
g151
ag152
aS'0.75'
p8517
aa(lp8518
g155
ag156
aS'0.1'
p8519
aaaa(lp8520
VH9TYP8_YEASX
p8521
aVH9TYP8
p8522
ag6
aI4932
a(lp8523
(lp8524
g151
ag152
aS'0.74'
p8525
aaaa(lp8526
VH9NBN0_YEASX
p8527
aVH9NBN0
p8528
ag6
aI4932
a(lp8529
(lp8530
g17
ag18
aS'0.74'
p8531
aa(lp8532
g21
ag22
aS'0.54'
p8533
aa(lp8534
g25
ag26
aS'0.53'
p8535
aa(lp8536
g29
ag30
aS'0.51'
p8537
aa(lp8538
g33
ag34
aS'0.49'
p8539
aa(lp8540
g37
ag38
aS'0.49'
p8541
aa(lp8542
g41
ag42
aS'0.49'
p8543
aaaa(lp8544
VG5EKG8_YEASX
p8545
aVG5EKG8
p8546
ag6
aI4932
a(lp8547
(lp8548
g251
ag252
aS'0.94'
p8549
aa(lp8550
g255
ag256
aS'0.49'
p8551
aa(lp8552
g259
ag260
aS'0.49'
p8553
aaaa(lp8554
VH9TYW8_YEASX
p8555
aVH9TYW8
p8556
ag6
aI4932
a(lp8557
(lp8558
g151
ag152
aS'0.74'
p8559
aaaa(lp8560
VINV4_YEASX
p8561
aVP10596
p8562
ag6
aI4932
a(lp8563
(lp8564
g251
ag252
aS'0.94'
p8565
aa(lp8566
g255
ag256
aS'0.54'
p8567
aa(lp8568
g259
ag260
aS'0.54'
p8569
aaaa(lp8570
VH9BH32_YEASX
p8571
aVH9BH32
p8572
ag6
aI4932
a(lp8573
(lp8574
g25
ag26
aS'0.85'
p8575
aa(lp8576
g127
ag128
aS'0.68'
p8577
aa(lp8578
g269
ag270
aS'0.67'
p8579
aa(lp8580
g227
ag228
aS'0.67'
p8581
aa(lp8582
g123
ag124
aS'0.62'
p8583
aaaa(lp8584
VH9NBJ6_YEASX
p8585
aVH9NBJ6
p8586
ag6
aI4932
a(lp8587
(lp8588
g17
ag18
aS'0.81'
p8589
aa(lp8590
g21
ag22
aS'0.55'
p8591
aa(lp8592
g25
ag26
aS'0.53'
p8593
aa(lp8594
g29
ag30
aS'0.51'
p8595
aa(lp8596
g33
ag34
aS'0.49'
p8597
aa(lp8598
g37
ag38
aS'0.49'
p8599
aa(lp8600
g41
ag42
aS'0.49'
p8601
aaaa(lp8602
VH9BH77_YEASX
p8603
aVH9BH77
p8604
ag6
aI4932
a(lp8605
(lp8606
g25
ag26
aS'0.82'
p8607
aa(lp8608
g269
ag270
aS'0.82'
p8609
aa(lp8610
g227
ag228
aS'0.8'
p8611
aa(lp8612
g127
ag128
aS'0.69'
p8613
aa(lp8614
g123
ag124
aS'0.62'
p8615
aaaa(lp8616
VG4XRY8_YEASX
p8617
aVG4XRY8
p8618
ag6
aI4932
a(lp8619
(lp8620
g2111
ag2112
aS'0.82'
p8621
aa(lp8622
g57
ag58
aS'0.76'
p8623
aa(lp8624
g2117
ag2118
aS'0.69'
p8625
aaaa(lp8626
VQ7LMA1_YEASX
p8627
aVQ7LMA1
p8628
ag6
aI4932
a(lp8629
(lp8630
g163
ag164
aS'0.88'
p8631
aa(lp8632
g17
ag18
aS'0.02'
p8633
aa(lp8634
g7019
ag7020
aS'0.02'
p8635
aa(lp8636
g7023
ag7024
aS'0.02'
p8637
aa(lp8638
g171
ag172
aS'0.02'
p8639
aa(lp8640
g7029
ag7030
aS'0.02'
p8641
aa(lp8642
g195
ag196
aS'0.02'
p8643
aa(lp8644
g7035
ag7036
aS'0.02'
p8645
aa(lp8646
g311
ag312
aS'0.02'
p8647
aa(lp8648
g7041
ag7042
aS'0.02'
p8649
aa(lp8650
g7045
ag7046
aS'0.02'
p8651
aa(lp8652
g239
ag240
aS'0.02'
p8653
aa(lp8654
g605
ag606
aS'0.02'
p8655
aa(lp8656
g7053
ag7054
aS'0.02'
p8657
aa(lp8658
g2545
ag2546
aS'0.02'
p8659
aa(lp8660
g227
ag228
aS'0.02'
p8661
aa(lp8662
g37
ag38
aS'0.02'
p8663
aa(lp8664
g7063
ag7064
aS'0.02'
p8665
aa(lp8666
g7067
ag7068
aS'0.02'
p8667
aa(lp8668
g7071
ag7072
aS'0.02'
p8669
aa(lp8670
g7075
ag7076
aS'0.02'
p8671
aa(lp8672
g7079
ag7080
aS'0.02'
p8673
aa(lp8674
g7083
ag7084
aS'0.02'
p8675
aaaa(lp8676
VE9P9Y2_YEASX
p8677
aVE9P9Y2
p8678
ag6
aI4932
a(lp8679
(lp8680
g6177
ag6178
aS'0.94'
p8681
aa(lp8682
g6183
ag6184
aS'0.66'
p8683
aa(lp8684
g551
ag552
aS'0.66'
p8685
aa(lp8686
g57
ag58
aS'0.65'
p8687
aaaa(lp8688
VH9NBK8_YEASX
p8689
aVH9NBK8
p8690
ag6
aI4932
a(lp8691
(lp8692
g17
ag18
aS'0.66'
p8693
aa(lp8694
g21
ag22
aS'0.54'
p8695
aa(lp8696
g25
ag26
aS'0.53'
p8697
aa(lp8698
g29
ag30
aS'0.51'
p8699
aa(lp8700
g33
ag34
aS'0.49'
p8701
aa(lp8702
g37
ag38
aS'0.49'
p8703
aa(lp8704
g41
ag42
aS'0.49'
p8705
aaaa(lp8706
VE1ABC8_YEASX
p8707
aVE1ABC8
p8708
ag6
aI4932
a(lp8709
(lp8710
g473
ag474
aS'0.93'
p8711
aa(lp8712
g477
ag478
aS'0.13'
p8713
aaaa(lp8714
VH9BH67_YEASX
p8715
aVH9BH67
p8716
ag6
aI4932
a(lp8717
(lp8718
g25
ag26
aS'0.83'
p8719
aa(lp8720
g269
ag270
aS'0.77'
p8721
aa(lp8722
g227
ag228
aS'0.75'
p8723
aa(lp8724
g127
ag128
aS'0.73'
p8725
aa(lp8726
g123
ag124
aS'0.6'
p8727
aa(lp8728
g163
ag164
aS'0.59'
p8729
aaaa(lp8730
VH9NBN2_YEASX
p8731
aVH9NBN2
p8732
ag6
aI4932
a(lp8733
(lp8734
g17
ag18
aS'0.65'
p8735
aa(lp8736
g21
ag22
aS'0.54'
p8737
aa(lp8738
g25
ag26
aS'0.52'
p8739
aa(lp8740
g29
ag30
aS'0.51'
p8741
aa(lp8742
g33
ag34
aS'0.49'
p8743
aa(lp8744
g37
ag38
aS'0.49'
p8745
aa(lp8746
g41
ag42
aS'0.49'
p8747
aaaa(lp8748
VQ0P7C9_YEASX
p8749
aVQ0P7C9
p8750
ag6
aI4932
a(lp8751
(lp8752
g563
ag564
aS'0.93'
p8753
aa(lp8754
g57
ag58
aS'0.61'
p8755
aa(lp8756
g569
ag570
aS'0.61'
p8757
aa(lp8758
g573
ag574
aS'0.61'
p8759
aaaa(lp8760
VE9P976_YEASX
p8761
aVE9P976
p8762
ag6
aI4932
a(lp8763
(lp8764
g151
ag152
aS'0.75'
p8765
aa(lp8766
g143
ag144
aS'0.45'
p8767
aaaa(lp8768
VG0Y634_YEASX
p8769
aVG0Y634
p8770
ag6
aI4932
a(lp8771
(lp8772
g439
ag440
aS'0.9'
p8773
aa(lp8774
g443
ag444
aS'0.68'
p8775
aa(lp8776
g431
ag432
aS'0.67'
p8777
aa(lp8778
VGO:0001128
p8779
aVRNA polymerase II transcription coactivator activity involved in preinitiation complex assembly
p8780
aS'0.67'
p8781
aa(lp8782
VGO:0001135
p8783
aVRNA polymerase II transcription factor recruiting transcription factor activity
p8784
aS'0.65'
p8785
aa(lp8786
g293
ag294
aS'0.65'
p8787
aa(lp8788
g1079
ag1080
aS'0.65'
p8789
aa(lp8790
g447
ag448
aS'0.64'
p8791
aaaa(lp8792
VQ2VQ92_YEASX
p8793
aVQ2VQ92
p8794
ag6
aI4932
a(lp8795
(lp8796
g439
ag440
aS'0.68'
p8797
aa(lp8798
g1059
ag1060
aS'0.2'
p8799
aa(lp8800
g17
ag18
aS'0.19'
p8801
aaaa(lp8802
VH9NBK7_YEASX
p8803
aVH9NBK7
p8804
ag6
aI4932
a(lp8805
(lp8806
g17
ag18
aS'0.7'
p8807
aa(lp8808
g21
ag22
aS'0.54'
p8809
aa(lp8810
g25
ag26
aS'0.52'
p8811
aa(lp8812
g29
ag30
aS'0.51'
p8813
aa(lp8814
g33
ag34
aS'0.49'
p8815
aa(lp8816
g37
ag38
aS'0.49'
p8817
aa(lp8818
g41
ag42
aS'0.49'
p8819
aaaa(lp8820
VD6C7G0_YEASX
p8821
aVD6C7G0
p8822
ag6
aI4932
a(lp8823
(lp8824
g1503
ag1504
aS'0.87'
p8825
aa(lp8826
g1507
ag1508
aS'0.86'
p8827
aaaa(lp8828
VE9P9D9_YEASX
p8829
aVE9P9D9
p8830
ag6
aI4932
a(lp8831
(lp8832
g3517
ag3518
aS'0.87'
p8833
aa(lp8834
g3161
ag3162
aS'0.87'
p8835
aa(lp8836
g3521
ag3522
aS'0.86'
p8837
aa(lp8838
g3525
ag3526
aS'0.86'
p8839
aa(lp8840
g3529
ag3530
aS'0.86'
p8841
aa(lp8842
g3533
ag3534
aS'0.86'
p8843
aa(lp8844
g3539
ag3540
aS'0.86'
p8845
aa(lp8846
g1309
ag1310
aS'0.8'
p8847
aaaa(lp8848
VE9P9D7_YEASX
p8849
aVE9P9D7
p8850
ag6
aI4932
a(lp8851
(lp8852
g3517
ag3518
aS'0.87'
p8853
aa(lp8854
g3521
ag3522
aS'0.87'
p8855
aa(lp8856
g3525
ag3526
aS'0.87'
p8857
aa(lp8858
g3529
ag3530
aS'0.87'
p8859
aa(lp8860
g3533
ag3534
aS'0.87'
p8861
aa(lp8862
g3161
ag3162
aS'0.87'
p8863
aa(lp8864
g3539
ag3540
aS'0.87'
p8865
aa(lp8866
g1309
ag1310
aS'0.8'
p8867
aaaa(lp8868
VH9TVN6_YEASX
p8869
aVH9TVN6
p8870
ag6
aI4932
a(lp8871
(lp8872
g627
ag628
aS'0.93'
p8873
aa(lp8874
g631
ag632
aS'0.13'
p8875
aa(lp8876
g57
ag58
aS'0.13'
p8877
aa(lp8878
g551
ag552
aS'0.13'
p8879
aaaa(lp8880
VH9NBF4_YEASX
p8881
aVH9NBF4
p8882
ag6
aI4932
a(lp8883
(lp8884
g17
ag18
aS'0.66'
p8885
aa(lp8886
g21
ag22
aS'0.54'
p8887
aa(lp8888
g25
ag26
aS'0.53'
p8889
aa(lp8890
g29
ag30
aS'0.51'
p8891
aa(lp8892
g33
ag34
aS'0.49'
p8893
aa(lp8894
g37
ag38
aS'0.49'
p8895
aa(lp8896
g41
ag42
aS'0.49'
p8897
aaaa(lp8898
VE9P9E0_YEASX
p8899
aVE9P9E0
p8900
ag6
aI4932
a(lp8901
(lp8902
g3517
ag3518
aS'0.87'
p8903
aa(lp8904
g3533
ag3534
aS'0.87'
p8905
aa(lp8906
g3161
ag3162
aS'0.87'
p8907
aa(lp8908
g3521
ag3522
aS'0.86'
p8909
aa(lp8910
g3525
ag3526
aS'0.86'
p8911
aa(lp8912
g3529
ag3530
aS'0.86'
p8913
aa(lp8914
g3539
ag3540
aS'0.86'
p8915
aa(lp8916
g1309
ag1310
aS'0.8'
p8917
aaaa(lp8918
VE9P9N6_YEASX
p8919
aVE9P9N6
p8920
ag6
aI4932
a(lp8921
(lp8922
g925
ag926
aS'0.82'
p8923
aa(lp8924
g151
ag152
aS'0.78'
p8925
aaaa(lp8926
VE9P9G4_YEASX
p8927
aVE9P9G4
p8928
ag6
aI4932
a(lp8929
(lp8930
g1009
ag1010
aS'0.72'
p8931
aa(lp8932
g155
ag156
aS'0.51'
p8933
aaaa(lp8934
VH9BH61_YEASX
p8935
aVH9BH61
p8936
ag6
aI4932
a(lp8937
(lp8938
g25
ag26
aS'0.82'
p8939
aa(lp8940
g269
ag270
aS'0.82'
p8941
aa(lp8942
g227
ag228
aS'0.82'
p8943
aa(lp8944
g127
ag128
aS'0.75'
p8945
aaaa(lp8946
VH9NBD2_YEASX
p8947
aVH9NBD2
p8948
ag6
aI4932
a(lp8949
(lp8950
g1367
ag1368
aS'0.81'
p8951
aa(lp8952
g1371
ag1372
aS'0.81'
p8953
aa(lp8954
g1375
ag1376
aS'0.81'
p8955
aa(lp8956
g547
ag548
aS'0.81'
p8957
aa(lp8958
g1381
ag1382
aS'0.81'
p8959
aa(lp8960
g57
ag58
aS'0.81'
p8961
aa(lp8962
g1387
ag1388
aS'0.81'
p8963
aaaa(lp8964
VQ4KQG7_YEASX
p8965
aVQ4KQG7
p8966
ag6
aI4932
a(lp8967
(lp8968
g1431
ag1432
aS'0.92'
p8969
aa(lp8970
g1435
ag1436
aS'0.41'
p8971
aaaa(lp8972
VE9P9U8_YEASX
p8973
aVE9P9U8
p8974
ag6
aI4932
a(lp8975
(lp8976
g1333
ag1334
aS'0.76'
p8977
aa(lp8978
g1847
ag1848
aS'0.14'
p8979
aaaa(lp8980
VMAL62_YEASX
p8981
aVP07265
p8982
ag6
aI4932
a(lp8983
(lp8984
g581
ag582
aS'0.92'
p8985
aa(lp8986
g585
ag586
aS'0.2'
p8987
aaaa(lp8988
VE9P8N0_YEASX
p8989
aVE9P8N0
p8990
ag6
aI4932
a(lp8991
(lp8992
g563
ag564
aS'0.94'
p8993
aa(lp8994
g57
ag58
aS'0.56'
p8995
aa(lp8996
g569
ag570
aS'0.55'
p8997
aa(lp8998
g573
ag574
aS'0.55'
p8999
aaaa(lp9000
VC8C542_YEASX
p9001
aVC8C542
p9002
ag6
aI4932
a(lp9003
(lp9004
g925
ag926
aS'0.78'
p9005
aa(lp9006
g151
ag152
aS'0.29'
p9007
aaaa(lp9008
VG4XSR1_YEASX
p9009
aVG4XSR1
p9010
ag6
aI4932
a(lp9011
(lp9012
g473
ag474
aS'0.85'
p9013
aa(lp9014
g477
ag478
aS'0.8'
p9015
aa(lp9016
g631
ag632
aS'0.79'
p9017
aa(lp9018
g3683
ag3684
aS'0.79'
p9019
aaaa(lp9020
VE9P9U0_YEASX
p9021
aVE9P9U0
p9022
ag6
aI4932
a(lp9023
(lp9024
g435
ag436
aS'0.53'
p9025
aa(lp9026
g431
ag432
aS'0.52'
p9027
aa(lp9028
g443
ag444
aS'0.49'
p9029
aa(lp9030
g439
ag440
aS'0.48'
p9031
aa(lp9032
g851
ag852
aS'0.45'
p9033
aa(lp9034
g447
ag448
aS'0.43'
p9035
aaaa(lp9036
VE9P9X0_YEASX
p9037
aVE9P9X0
p9038
ag6
aI4932
a(lp9039
(lp9040
VGO:0017016
p9041
aVRas GTPase binding
p9042
aS'0.74'
p9043
aa(lp9044
VGO:0043325
p9045
aVphosphatidylinositol-3,4-bisphosphate binding
p9046
aS'0.18'
p9047
aa(lp9048
g203
ag204
aS'0.18'
p9049
aa(lp9050
g2533
ag2534
aS'0.18'
p9051
aa(lp9052
g3347
ag3348
aS'0.18'
p9053
aa(lp9054
VGO:0080025
p9055
aVphosphatidylinositol-3,5-bisphosphate binding
p9056
aS'0.18'
p9057
aaaa(lp9058
VG8ENB3_YEASX
p9059
aVG8ENB3
p9060
ag6
aI4932
a(lp9061
(lp9062
g443
ag444
aS'0.49'
p9063
aa(lp9064
g4313
ag4314
aS'0.48'
p9065
aa(lp9066
g431
ag432
aS'0.48'
p9067
aa(lp9068
g8779
ag8780
aS'0.48'
p9069
aa(lp9070
g439
ag440
aS'0.47'
p9071
aa(lp9072
g293
ag294
aS'0.46'
p9073
aa(lp9074
g8783
ag8784
aS'0.45'
p9075
aa(lp9076
g1079
ag1080
aS'0.45'
p9077
aa(lp9078
g447
ag448
aS'0.44'
p9079
aa(lp9080
g865
ag866
aS'0.44'
p9081
aaaa(lp9082
VH9NBI4_YEASX
p9083
aVH9NBI4
p9084
ag6
aI4932
a(lp9085
(lp9086
g17
ag18
aS'0.56'
p9087
aa(lp9088
g21
ag22
aS'0.47'
p9089
aa(lp9090
g25
ag26
aS'0.47'
p9091
aa(lp9092
g29
ag30
aS'0.46'
p9093
aa(lp9094
g33
ag34
aS'0.46'
p9095
aa(lp9096
g37
ag38
aS'0.46'
p9097
aa(lp9098
g41
ag42
aS'0.46'
p9099
aaaa(lp9100
VE9PA20_YEASX
p9101
aVE9PA20
p9102
ag6
aI4932
a(lp9103
(lp9104
g1097
ag1098
aS'0.94'
p9105
aa(lp9106
g1109
ag1110
aS'0.89'
p9107
aaaa(lp9108
VH9NBL1_YEASX
p9109
aVH9NBL1
p9110
ag6
aI4932
a(lp9111
(lp9112
g17
ag18
aS'0.72'
p9113
aa(lp9114
g21
ag22
aS'0.54'
p9115
aa(lp9116
g25
ag26
aS'0.53'
p9117
aa(lp9118
g29
ag30
aS'0.51'
p9119
aa(lp9120
g33
ag34
aS'0.49'
p9121
aa(lp9122
g37
ag38
aS'0.49'
p9123
aa(lp9124
g41
ag42
aS'0.49'
p9125
aaaa(lp9126
VE9P9L4_YEASX
p9127
aVE9P9L4
p9128
ag6
aI4932
a(lp9129
(lp9130
g135
ag136
aS'0.95'
p9131
aa(lp9132
g139
ag140
aS'0.16'
p9133
aa(lp9134
g143
ag144
aS'0.15'
p9135
aaaa(lp9136
VE9P9E9_YEASX
p9137
aVE9P9E9
p9138
ag6
aI4932
a(lp9139
(lp9140
g17
ag18
aS'0.76'
p9141
aa(lp9142
g29
ag30
aS'0.51'
p9143
aa(lp9144
g21
ag22
aS'0.51'
p9145
aa(lp9146
g25
ag26
aS'0.49'
p9147
aa(lp9148
g37
ag38
aS'0.46'
p9149
aa(lp9150
g33
ag34
aS'0.45'
p9151
aa(lp9152
g41
ag42
aS'0.45'
p9153
aaaa(lp9154
VH9TVT4_YEASX
p9155
aVH9TVT4
p9156
ag6
aI4932
a(lp9157
(lp9158
g627
ag628
aS'0.93'
p9159
aa(lp9160
g631
ag632
aS'0.13'
p9161
aa(lp9162
g57
ag58
aS'0.13'
p9163
aa(lp9164
g551
ag552
aS'0.13'
p9165
aaaa(lp9166
VE9P8P3_YEASX
p9167
aVE9P8P3
p9168
ag6
aI4932
a(lp9169
(lp9170
g123
ag124
aS'0.68'
p9171
aa(lp9172
g127
ag128
aS'0.21'
p9173
aaaa(lp9174
VG4XS50_YEASX
p9175
aVG4XS50
p9176
ag6
aI4932
a(lp9177
(lp9178
g485
ag486
aS'0.94'
p9179
aa(lp9180
g489
ag490
aS'0.79'
p9181
aa(lp9182
g1155
ag1156
aS'0.63'
p9183
aa(lp9184
g1151
ag1152
aS'0.63'
p9185
aa(lp9186
g151
ag152
aS'0.63'
p9187
aa(lp9188
g555
ag556
aS'0.63'
p9189
aaaa(lp9190
VTY1AB_YEASX
p9191
aVQ07163
p9192
ag6
aI4932
a(lp9193
(lp9194
g151
ag152
aS'0.89'
p9195
aaaa(lp9196
VE9P8D1_YEASX
p9197
aVE9P8D1
p9198
ag6
aI4932
a(lp9199
(lp9200
g551
ag552
aS'0.75'
p9201
aa(lp9202
g2027
ag2028
aS'0.66'
p9203
aa(lp9204
g2023
ag2024
aS'0.65'
p9205
aa(lp9206
g2031
ag2032
aS'0.5'
p9207
aa(lp9208
g2039
ag2040
aS'0.5'
p9209
aaaa(lp9210
VCMC1_YEASX
p9211
aVP0CI40
p9212
ag6
aI4932
a(lp9213
(lp9214
g605
ag606
aS'0.71'
p9215
aa(lp9216
g8483
ag8484
aS'0.41'
p9217
aa(lp9218
VGO:0005471
p9219
aVATP:ADP antiporter activity
p9220
aS'0.34'
p9221
aa(lp9222
VGO:0015226
p9223
aVcarnitine transmembrane transporter activity
p9224
aS'0.32'
p9225
aa(lp9226
VGO:0030233
p9227
aVdeoxynucleotide transmembrane transporter activity
p9228
aS'0.31'
p9229
aa(lp9230
VGO:0080122
p9231
aVAMP transmembrane transporter activity
p9232
aS'0.31'
p9233
aaaa(lp9234
VQ7GHK0_YEASX
p9235
aVQ7GHK0
p9236
ag6
aI4932
a(lp9237
(lp9238
g1109
ag1110
aS'0.68'
p9239
aaaa(lp9240
VE9P9F3_YEASX
p9241
aVE9P9F3
p9242
ag6
aI4932
a(lp9243
(lp9244
g29
ag30
aS'0.51'
p9245
aa(lp9246
g17
ag18
aS'0.33'
p9247
aaaa(lp9248
VH9TYY9_YEASX
p9249
aVH9TYY9
p9250
ag6
aI4932
a(lp9251
(lp9252
g707
ag708
aS'0.82'
p9253
aa(lp9254
g711
ag712
aS'0.82'
p9255
aa(lp9256
g151
ag152
aS'0.8'
p9257
aaaa(lp9258
VYAJ3_YEASX
p9259
aVP0CI38
p9260
ag6
aI4932
a(lp9261
(lp9262
g151
ag152
aS'0.74'
p9263
aa(lp9264
g155
ag156
aS'0.47'
p9265
aaaa(lp9266
VH9TYQ6_YEASX
p9267
aVH9TYQ6
p9268
ag6
aI4932
a(lp9269
(lp9270
g151
ag152
aS'0.74'
p9271
aaaa(lp9272
VF5AT70_YEASX
p9273
aVF5AT70
p9274
ag6
aI4932
a(lp9275
(lp9276
g1175
ag1176
aS'0.79'
p9277
aa(lp9278
VGO:0004535
p9279
aVpoly(A)-specific ribonuclease activity
p9280
aS'0.56'
p9281
aaaa(lp9282
VE9P9I4_YEASX
p9283
aVE9P9I4
p9284
ag6
aI4932
a(lp9285
(lp9286
g1395
ag1396
aS'0.89'
p9287
aa(lp9288
g1859
ag1860
aS'0.81'
p9289
aaaa(lp9290
VSDH1_YEASX
p9291
aVP0CF23
p9292
ag6
aI4932
a(lp9293
(lp9294
VGO:0003941
p9295
aVL-serine ammonia-lyase activity
p9296
aS'0.46'
p9297
aa(lp9298
VGO:0008838
p9299
aVdiaminopropionate ammonia-lyase activity
p9300
aS'0.41'
p9301
aaaa(lp9302
VE9P9G2_YEASX
p9303
aVE9P9G2
p9304
ag6
aI4932
a(lp9305
(lp9306
g5867
ag5868
aS'0.83'
p9307
aaaa(lp9308
VE9P9F5_YEASX
p9309
aVE9P9F5
p9310
ag6
aI4932
a(lp9311
(lp9312
g17
ag18
aS'0.59'
p9313
aa(lp9314
g29
ag30
aS'0.5'
p9315
aa(lp9316
g21
ag22
aS'0.44'
p9317
aa(lp9318
g25
ag26
aS'0.42'
p9319
aa(lp9320
g33
ag34
aS'0.39'
p9321
aa(lp9322
g37
ag38
aS'0.39'
p9323
aa(lp9324
g41
ag42
aS'0.39'
p9325
aaaa(lp9326
VH9NBM1_YEASX
p9327
aVH9NBM1
p9328
ag6
aI4932
a(lp9329
(lp9330
g17
ag18
aS'0.74'
p9331
aa(lp9332
g21
ag22
aS'0.54'
p9333
aa(lp9334
g25
ag26
aS'0.53'
p9335
aa(lp9336
g29
ag30
aS'0.51'
p9337
aa(lp9338
g33
ag34
aS'0.49'
p9339
aa(lp9340
g37
ag38
aS'0.49'
p9341
aa(lp9342
g41
ag42
aS'0.49'
p9343
aaaa(lp9344
VQ7LJX4_YEASX
p9345
aVQ7LJX4
p9346
ag6
aI4932
a(lp9347
(lp9348
g127
ag128
aS'0.74'
p9349
aa(lp9350
g123
ag124
aS'0.64'
p9351
aaaa(lp9352
VH9NBK6_YEASX
p9353
aVH9NBK6
p9354
ag6
aI4932
a(lp9355
(lp9356
g17
ag18
aS'0.74'
p9357
aa(lp9358
g21
ag22
aS'0.54'
p9359
aa(lp9360
g25
ag26
aS'0.53'
p9361
aa(lp9362
g29
ag30
aS'0.51'
p9363
aa(lp9364
g33
ag34
aS'0.49'
p9365
aa(lp9366
g37
ag38
aS'0.49'
p9367
aa(lp9368
g41
ag42
aS'0.49'
p9369
aaaa(lp9370
VE9P8F1_YEASX
p9371
aVE9P8F1
p9372
ag6
aI4932
a(lp9373
(lp9374
g1515
ag1516
aS'0.78'
p9375
aaaa(lp9376
VH9NBN4_YEASX
p9377
aVH9NBN4
p9378
ag6
aI4932
a(lp9379
(lp9380
g29
ag30
aS'0.51'
p9381
aa(lp9382
g17
ag18
aS'0.28'
p9383
aaaa(lp9384
VE9PA77_YEASX
p9385
aVE9PA77
p9386
ag6
aI4932
a(lp9387
(lp9388
g4973
ag4974
aS'0.86'
p9389
aa(lp9390
g1263
ag1264
aS'0.83'
p9391
aa(lp9392
g4977
ag4978
aS'0.81'
p9393
aaaa(lp9394
VC5I8G0_YEASX
p9395
aVC5I8G0
p9396
ag6
aI4932
a(lp9397
(lp9398
g1263
ag1264
aS'0.22'
p9399
aa(lp9400
g1269
ag1270
aS'0.17'
p9401
aa(lp9402
g215
ag216
aS'0.15'
p9403
aaaa(lp9404
VE9P8J4_YEASX
p9405
aVE9P8J4
p9406
ag6
aI4932
a(lp9407
(lp9408
g151
ag152
aS'0.76'
p9409
aa(lp9410
g155
ag156
aS'0.39'
p9411
aaaa(lp9412
VE9P9C1_YEASX
p9413
aVE9P9C1
p9414
ag6
aI4932
a(lp9415
(lp9416
g2501
ag2502
aS'0.92'
p9417
aa(lp9418
g4165
ag4166
aS'0.8'
p9419
aaaa(lp9420
VE9P995_YEASX
p9421
aVE9P995
p9422
ag6
aI4932
a(lp9423
(lp9424
g151
ag152
aS'0.89'
p9425
aa(lp9426
VGO:0042134
p9427
aVrRNA primary transcript binding
p9428
aS'0.33'
p9429
aa(lp9430
VGO:0004526
p9431
aVribonuclease P activity
p9432
aS'0.3'
p9433
aa(lp9434
VGO:0000171
p9435
aVribonuclease MRP activity
p9436
aS'0.27'
p9437
aaaa(lp9438
VH9NBL8_YEASX
p9439
aVH9NBL8
p9440
ag6
aI4932
a(lp9441
(lp9442
g17
ag18
aS'0.76'
p9443
aa(lp9444
g21
ag22
aS'0.52'
p9445
aa(lp9446
g29
ag30
aS'0.51'
p9447
aa(lp9448
g25
ag26
aS'0.51'
p9449
aa(lp9450
g33
ag34
aS'0.47'
p9451
aa(lp9452
g37
ag38
aS'0.47'
p9453
aa(lp9454
g41
ag42
aS'0.47'
p9455
aaaa(lp9456
VG8EXG4_YEASX
p9457
aVG8EXG4
p9458
ag6
aI4932
a(lp9459
(lp9460
g649
ag650
aS'0.77'
p9461
aa(lp9462
g653
ag654
aS'0.14'
p9463
aaaa(lp9464
VH9NBK9_YEASX
p9465
aVH9NBK9
p9466
ag6
aI4932
a(lp9467
(lp9468
g17
ag18
aS'0.79'
p9469
aa(lp9470
g21
ag22
aS'0.55'
p9471
aa(lp9472
g25
ag26
aS'0.53'
p9473
aa(lp9474
g29
ag30
aS'0.51'
p9475
aa(lp9476
g33
ag34
aS'0.49'
p9477
aa(lp9478
g37
ag38
aS'0.49'
p9479
aa(lp9480
g41
ag42
aS'0.49'
p9481
aaaa(lp9482
VQ6XBT0_YEASX
p9483
aVQ6XBT0
p9484
ag6
aI4932
a(lp9485
(lp9486
g4041
ag4042
aS'0.82'
p9487
aa(lp9488
g4045
ag4046
aS'0.46'
p9489
aaaa(lp9490
VE9P9G6_YEASX
p9491
aVE9P9G6
p9492
ag6
aI4932
a(lp9493
(lp9494
g1009
ag1010
aS'0.7'
p9495
aa(lp9496
g155
ag156
aS'0.51'
p9497
aaaa(lp9498
VE9P9H0_YEASX
p9499
aVE9P9H0
p9500
ag6
aI4932
a(lp9501
(lp9502
g1009
ag1010
aS'0.7'
p9503
aa(lp9504
g155
ag156
aS'0.51'
p9505
aaaa(lp9506
VH9TZ42_YEASX
p9507
aVH9TZ42
p9508
ag6
aI4932
a(lp9509
(lp9510
g711
ag712
aS'0.9'
p9511
aa(lp9512
g707
ag708
aS'0.84'
p9513
aa(lp9514
g151
ag152
aS'0.7'
p9515
aaaa(lp9516
VE9P8G3_YEASX
p9517
aVE9P8G3
p9518
ag6
aI4932
a(lp9519
(lp9520
g431
ag432
aS'0.89'
p9521
aa(lp9522
g439
ag440
aS'0.59'
p9523
aaaa(lp9524
VE9P9C3_YEASX
p9525
aVE9P9C3
p9526
ag6
aI4932
a(lp9527
(lp9528
g151
ag152
aS'0.89'
p9529
aaaa(lp9530
VE9P9W6_YEASX
p9531
aVE9P9W6
p9532
ag6
aI4932
a(lp9533
(lp9534
g439
ag440
aS'0.46'
p9535
aa(lp9536
g431
ag432
aS'0.44'
p9537
aaaa(lp9538
VE9P8R2_YEASX
p9539
aVE9P8R2
p9540
ag6
aI4932
a(lp9541
(lp9542
g497
ag498
aS'0.69'
p9543
aaaa(lp9544
VE9P9H6_YEASX
p9545
aVE9P9H6
p9546
ag6
aI4932
a(lp9547
(lp9548
g3517
ag3518
aS'0.87'
p9549
aa(lp9550
g3521
ag3522
aS'0.87'
p9551
aa(lp9552
g3525
ag3526
aS'0.87'
p9553
aa(lp9554
g3529
ag3530
aS'0.87'
p9555
aa(lp9556
g3533
ag3534
aS'0.87'
p9557
aa(lp9558
g3161
ag3162
aS'0.87'
p9559
aa(lp9560
g3539
ag3540
aS'0.87'
p9561
aa(lp9562
g1309
ag1310
aS'0.8'
p9563
aaaa(lp9564
VH1AB55_YEASX
p9565
aVH1AB55
p9566
ag6
aI4932
a(lp9567
(lp9568
VGO:0003984
p9569
aVacetolactate synthase activity
p9570
aS'0.93'
p9571
aaaa(lp9572
VH9NBD4_YEASX
p9573
aVH9NBD4
p9574
ag6
aI4932
a(lp9575
(lp9576
g1367
ag1368
aS'0.81'
p9577
aa(lp9578
g1371
ag1372
aS'0.79'
p9579
aa(lp9580
g1375
ag1376
aS'0.79'
p9581
aa(lp9582
g547
ag548
aS'0.79'
p9583
aa(lp9584
g1381
ag1382
aS'0.79'
p9585
aa(lp9586
g57
ag58
aS'0.79'
p9587
aa(lp9588
g1387
ag1388
aS'0.79'
p9589
aaaa(lp9590
VD6C7G2_YEASX
p9591
aVD6C7G2
p9592
ag6
aI4932
a(lp9593
(lp9594
g1503
ag1504
aS'0.87'
p9595
aa(lp9596
g1507
ag1508
aS'0.85'
p9597
aaaa(lp9598
VH1AB67_YEASX
p9599
aVH1AB67
p9600
ag6
aI4932
a(lp9601
(lp9602
VGO:0043021
p9603
aVribonucleoprotein complex binding
p9604
aS'0.4'
p9605
aa(lp9606
VGO:0001106
p9607
aVRNA polymerase II transcription corepressor activity
p9608
aS'0.37'
p9609
aaaa(lp9610
VE9PA26_YEASX
p9611
aVE9PA26
p9612
ag6
aI4932
a(lp9613
(lp9614
g431
ag432
aS'0.45'
p9615
aa(lp9616
g57
ag58
aS'0.37'
p9617
aa(lp9618
g6289
ag6290
aS'0.37'
p9619
aaaa(lp9620
VE9P9Z3_YEASX
p9621
aVE9P9Z3
p9622
ag6
aI4932
a(lp9623
(lp9624
g61
ag62
aS'0.43'
p9625
aa(lp9626
VGO:0001105
p9627
aVRNA polymerase II transcription coactivator activity
p9628
aS'0.37'
p9629
aaaa(lp9630
VE9PA25_YEASX
p9631
aVE9PA25
p9632
ag6
aI4932
a(lp9633
(lp9634
g431
ag432
aS'0.89'
p9635
aa(lp9636
g439
ag440
aS'0.64'
p9637
aaaa(lp9638
VH9TT80_YEASX
p9639
aVH9TT80
p9640
ag6
aI4932
a(lp9641
(lp9642
g1263
ag1264
aS'0.22'
p9643
aa(lp9644
g215
ag216
aS'0.17'
p9645
aa(lp9646
g1269
ag1270
aS'0.16'
p9647
aaaa(lp9648
VH9TW20_YEASX
p9649
aVH9TW20
p9650
ag6
aI4932
a(lp9651
(lp9652
g151
ag152
aS'0.69'
p9653
aa(lp9654
g699
ag700
aS'0.08'
p9655
aaaa(lp9656
VQ45T98_YEASX
p9657
aVQ45T98
p9658
ag6
aI4932
a(lp9659
(lp9660
g2501
ag2502
aS'0.92'
p9661
aa(lp9662
g4165
ag4166
aS'0.66'
p9663
aaaa(lp9664
VE1AFZ0_YEASX
p9665
aVE1AFZ0
p9666
ag6
aI4932
a(lp9667
(lp9668
g581
ag582
aS'0.91'
p9669
aa(lp9670
g585
ag586
aS'0.19'
p9671
aaaa(lp9672
VE9P993_YEASX
p9673
aVE9P993
p9674
ag6
aI4932
a(lp9675
(lp9676
g1009
ag1010
aS'0.85'
p9677
aa(lp9678
g1875
ag1876
aS'0.4'
p9679
aa(lp9680
g17
ag18
aS'0.35'
p9681
aa(lp9682
g1881
ag1882
aS'0.35'
p9683
aa(lp9684
g1885
ag1886
aS'0.35'
p9685
aa(lp9686
g821
ag822
aS'0.35'
p9687
aa(lp9688
g1891
ag1892
aS'0.35'
p9689
aa(lp9690
g1895
ag1896
aS'0.35'
p9691
aaaa(lp9692
VG0Y637_YEASX
p9693
aVG0Y637
p9694
ag6
aI4932
a(lp9695
(lp9696
g5867
ag5868
aS'0.64'
p9697
aaaa(lp9698
VH9TYS1_YEASX
p9699
aVH9TYS1
p9700
ag6
aI4932
a(lp9701
(lp9702
g151
ag152
aS'0.74'
p9703
aaaa(lp9704
VQ45U12_YEASX
p9705
aVQ45U12
p9706
ag6
aI4932
a(lp9707
(lp9708
g151
ag152
aS'0.89'
p9709
aaaa(lp9710
VB5LYT3_YEASX
p9711
aVB5LYT3
p9712
ag6
aI4932
a(lp9713
(lp9714
g473
ag474
aS'0.93'
p9715
aa(lp9716
g477
ag478
aS'0.13'
p9717
aaaa(lp9718
VE9P8H0_YEASX
p9719
aVE9P8H0
p9720
ag6
aI4932
a(lp9721
(lp9722
g543
ag544
aS'0.9'
p9723
aa(lp9724
g551
ag552
aS'0.77'
p9725
aa(lp9726
g547
ag548
aS'0.77'
p9727
aa(lp9728
g555
ag556
aS'0.75'
p9729
aaaa(lp9730
VE9P8F9_YEASX
p9731
aVE9P8F9
p9732
ag6
aI4932
a(lp9733
(lp9734
g431
ag432
aS'0.89'
p9735
aa(lp9736
g439
ag440
aS'0.69'
p9737
aa(lp9738
g435
ag436
aS'0.61'
p9739
aa(lp9740
g443
ag444
aS'0.58'
p9741
aa(lp9742
g447
ag448
aS'0.55'
p9743
aaaa(lp9744
VE9P8M9_YEASX
p9745
aVE9P8M9
p9746
ag6
aI4932
a(lp9747
(lp9748
g563
ag564
aS'0.93'
p9749
aa(lp9750
g57
ag58
aS'0.63'
p9751
aa(lp9752
g569
ag570
aS'0.62'
p9753
aa(lp9754
g573
ag574
aS'0.62'
p9755
aaaa(lp9756
VH9NBI7_YEASX
p9757
aVH9NBI7
p9758
ag6
aI4932
a(lp9759
(lp9760
g17
ag18
aS'0.74'
p9761
aa(lp9762
g21
ag22
aS'0.54'
p9763
aa(lp9764
g25
ag26
aS'0.53'
p9765
aa(lp9766
g29
ag30
aS'0.51'
p9767
aa(lp9768
g33
ag34
aS'0.49'
p9769
aa(lp9770
g37
ag38
aS'0.49'
p9771
aa(lp9772
g41
ag42
aS'0.49'
p9773
aaaa(lp9774
VE9P9E1_YEASX
p9775
aVE9P9E1
p9776
ag6
aI4932
a(lp9777
(lp9778
g1175
ag1176
aS'0.9'
p9779
aa(lp9780
g1179
ag1180
aS'0.27'
p9781
aaaa(lp9782
VE9P8S0_YEASX
p9783
aVE9P8S0
p9784
ag6
aI4932
a(lp9785
(lp9786
g127
ag128
aS'0.7'
p9787
aa(lp9788
g123
ag124
aS'0.65'
p9789
aaaa(lp9790
VH9NBI5_YEASX
p9791
aVH9NBI5
p9792
ag6
aI4932
a(lp9793
(lp9794
g17
ag18
aS'0.56'
p9795
aa(lp9796
g21
ag22
aS'0.48'
p9797
aa(lp9798
g25
ag26
aS'0.47'
p9799
aa(lp9800
g29
ag30
aS'0.46'
p9801
aa(lp9802
g33
ag34
aS'0.46'
p9803
aa(lp9804
g37
ag38
aS'0.46'
p9805
aa(lp9806
g41
ag42
aS'0.46'
p9807
aaaa(lp9808
VE9P9A5_YEASX
p9809
aVE9P9A5
p9810
ag6
aI4932
a(lp9811
(lp9812
VGO:0004642
p9813
aVphosphoribosylformylglycinamidine synthase activity
p9814
aS'0.9'
p9815
aa(lp9816
g555
ag556
aS'0.65'
p9817
aa(lp9818
g2111
ag2112
aS'0.65'
p9819
aa(lp9820
g547
ag548
aS'0.58'
p9821
aa(lp9822
VGO:0004756
p9823
aVselenide, water dikinase activity
p9824
aS'0.57'
p9825
aa(lp9826
g551
ag552
aS'0.57'
p9827
aa(lp9828
g57
ag58
aS'0.57'
p9829
aa(lp9830
g227
ag228
aS'0.57'
p9831
aa(lp9832
VGO:0004641
p9833
aVphosphoribosylformylglycinamidine cyclo-ligase activity
p9834
aS'0.57'
p9835
aaaa(lp9836
VE9P8S1_YEASX
p9837
aVE9P8S1
p9838
ag6
aI4932
a(lp9839
(lp9840
g127
ag128
aS'0.71'
p9841
aa(lp9842
g123
ag124
aS'0.65'
p9843
aaaa(lp9844
VE9P8I0_YEASX
p9845
aVE9P8I0
p9846
ag6
aI4932
a(lp9847
(lp9848
g57
ag58
aS'0.44'
p9849
aa(lp9850
g3813
ag3814
aS'0.42'
p9851
aa(lp9852
g3823
ag3824
aS'0.42'
p9853
aa(lp9854
g551
ag552
aS'0.41'
p9855
aa(lp9856
g605
ag606
aS'0.41'
p9857
aa(lp9858
g3965
ag3966
aS'0.41'
p9859
aaaa(lp9860
VE9P9K4_YEASX
p9861
aVE9P9K4
p9862
ag6
aI4932
a(lp9863
(lp9864
g29
ag30
aS'0.51'
p9865
aa(lp9866
g17
ag18
aS'0.33'
p9867
aaaa(lp9868
VH9NBI3_YEASX
p9869
aVH9NBI3
p9870
ag6
aI4932
a(lp9871
(lp9872
g29
ag30
aS'0.46'
p9873
aa(lp9874
g17
ag18
aS'0.39'
p9875
aa(lp9876
g21
ag22
aS'0.31'
p9877
aa(lp9878
g25
ag26
aS'0.31'
p9879
aa(lp9880
g33
ag34
aS'0.3'
p9881
aa(lp9882
g37
ag38
aS'0.3'
p9883
aaaa(lp9884
VE9P8F7_YEASX
p9885
aVE9P8F7
p9886
ag6
aI4932
a(lp9887
(lp9888
g431
ag432
aS'0.9'
p9889
aa(lp9890
g439
ag440
aS'0.65'
p9891
aa(lp9892
g435
ag436
aS'0.6'
p9893
aa(lp9894
g443
ag444
aS'0.57'
p9895
aa(lp9896
g447
ag448
aS'0.54'
p9897
aaaa(lp9898
VH9NBL6_YEASX
p9899
aVH9NBL6
p9900
ag6
aI4932
a(lp9901
(lp9902
g17
ag18
aS'0.76'
p9903
aa(lp9904
g21
ag22
aS'0.54'
p9905
aa(lp9906
g25
ag26
aS'0.53'
p9907
aa(lp9908
g29
ag30
aS'0.51'
p9909
aa(lp9910
g33
ag34
aS'0.49'
p9911
aa(lp9912
g37
ag38
aS'0.49'
p9913
aa(lp9914
g41
ag42
aS'0.49'
p9915
aaaa(lp9916
VH9TTW1_YEASX
p9917
aVH9TTW1
p9918
ag6
aI4932
a(lp9919
(lp9920
g1431
ag1432
aS'0.94'
p9921
aa(lp9922
g1439
ag1440
aS'0.93'
p9923
aa(lp9924
g1435
ag1436
aS'0.93'
p9925
aa(lp9926
g1443
ag1444
aS'0.93'
p9927
aa(lp9928
g555
ag556
aS'0.93'
p9929
aaaa(lp9930
VD6C7E5_YEASX
p9931
aVD6C7E5
p9932
ag6
aI4932
a(lp9933
(lp9934
g29
ag30
aS'0.48'
p9935
aa(lp9936
g17
ag18
aS'0.18'
p9937
aaaa(lp9938
VE9P8H2_YEASX
p9939
aVE9P8H2
p9940
ag6
aI4932
a(lp9941
(lp9942
g543
ag544
aS'0.9'
p9943
aa(lp9944
g547
ag548
aS'0.77'
p9945
aa(lp9946
g551
ag552
aS'0.74'
p9947
aa(lp9948
g555
ag556
aS'0.71'
p9949
aaaa(lp9950
VE9PAD5_YEASX
p9951
aVE9PAD5
p9952
ag6
aI4932
a(lp9953
(lp9954
VGO:0004039
p9955
aVallophanate hydrolase activity
p9956
aS'0.94'
p9957
aa(lp9958
VGO:0070051
p9959
aVfibrinogen binding
p9960
aS'0.29'
p9961
aa(lp9962
VGO:0050537
p9963
aVmandelamide amidase activity
p9964
aS'0.28'
p9965
aa(lp9966
VGO:0050567
p9967
aVglutaminyl-tRNA synthase (glutamine-hydrolyzing) activity
p9968
aS'0.27'
p9969
aa(lp9970
VGO:0017064
p9971
aVfatty acid amide hydrolase activity
p9972
aS'0.27'
p9973
aa(lp9974
VGO:0018750
p9975
aVbiuret amidohydrolase activity
p9976
aS'0.27'
p9977
aa(lp9978
VGO:0004847
p9979
aVurea carboxylase activity
p9980
aS'0.27'
p9981
aaaa(lp9982
VE9P8Q4_YEASX
p9983
aVE9P8Q4
p9984
ag6
aI4932
a(lp9985
(lp9986
g127
ag128
aS'0.77'
p9987
aa(lp9988
g123
ag124
aS'0.64'
p9989
aaaa(lp9990
VE9P8F4_YEASX
p9991
aVE9P8F4
p9992
ag6
aI4932
a(lp9993
(lp9994
g1009
ag1010
aS'0.85'
p9995
aa(lp9996
g1875
ag1876
aS'0.4'
p9997
aa(lp9998
g17
ag18
aS'0.35'
p9999
aa(lp10000
g1881
ag1882
aS'0.35'
p10001
aa(lp10002
g1885
ag1886
aS'0.35'
p10003
aa(lp10004
g821
ag822
aS'0.35'
p10005
aa(lp10006
g1891
ag1892
aS'0.35'
p10007
aa(lp10008
g1895
ag1896
aS'0.35'
p10009
aaaa(lp10010
VG9BX85_YEASX
p10011
aVG9BX85
p10012
ag6
aI4932
a(lp10013
(lp10014
g4555
ag4556
aS'0.87'
p10015
aa(lp10016
g123
ag124
aS'0.19'
p10017
aa(lp10018
g2117
ag2118
aS'0.19'
p10019
aa(lp10020
g311
ag312
aS'0.19'
p10021
aa(lp10022
g135
ag136
aS'0.19'
p10023
aa(lp10024
g555
ag556
aS'0.19'
p10025
aa(lp10026
g2111
ag2112
aS'0.19'
p10027
aaaa(lp10028
VH9NBF2_YEASX
p10029
aVH9NBF2
p10030
ag6
aI4932
a(lp10031
(lp10032
g17
ag18
aS'0.56'
p10033
aa(lp10034
g21
ag22
aS'0.48'
p10035
aa(lp10036
g25
ag26
aS'0.47'
p10037
aa(lp10038
g29
ag30
aS'0.46'
p10039
aa(lp10040
g33
ag34
aS'0.46'
p10041
aa(lp10042
g37
ag38
aS'0.46'
p10043
aa(lp10044
g41
ag42
aS'0.46'
p10045
aaaa(lp10046
VG3EJN8_YEASX
p10047
aVG3EJN8
p10048
ag6
aI4932
a(lp10049
(lp10050
g6771
ag6772
aS'0.94'
p10051
aa(lp10052
g6775
ag6776
aS'0.94'
p10053
aaaa(lp10054
VH9TYP0_YEASX
p10055
aVH9TYP0
p10056
ag6
aI4932
a(lp10057
(lp10058
g151
ag152
aS'0.74'
p10059
aaaa(lp10060
VF8LG03_YEASX
p10061
aVF8LG03
p10062
ag6
aI4932
a(lp10063
(lp10064
g1009
ag1010
aS'0.84'
p10065
aa(lp10066
g1875
ag1876
aS'0.44'
p10067
aa(lp10068
g17
ag18
aS'0.42'
p10069
aa(lp10070
g1881
ag1882
aS'0.42'
p10071
aa(lp10072
g1891
ag1892
aS'0.42'
p10073
aa(lp10074
g821
ag822
aS'0.42'
p10075
aa(lp10076
g1885
ag1886
aS'0.42'
p10077
aa(lp10078
g1895
ag1896
aS'0.42'
p10079
aaaa(lp10080
VD0UZV3_YEASX
p10081
aVD0UZV3
p10082
ag6
aI4932
a(lp10083
(lp10084
g2501
ag2502
aS'0.76'
p10085
aa(lp10086
g2505
ag2506
aS'0.64'
p10087
aa(lp10088
g1065
ag1066
aS'0.51'
p10089
aaaa(lp10090
VE9P8J5_YEASX
p10091
aVE9P8J5
p10092
ag6
aI4932
a(lp10093
(lp10094
g151
ag152
aS'0.75'
p10095
aa(lp10096
g155
ag156
aS'0.39'
p10097
aaaa(lp10098
VQ6Q7H5_YEASX
p10099
aVQ6Q7H5
p10100
ag6
aI4932
a(lp10101
(lp10102
g17
ag18
aS'0.7'
p10103
aa(lp10104
g439
ag440
aS'0.64'
p10105
aaaa(lp10106
VE9P8L0_YEASX
p10107
aVE9P8L0
p10108
ag6
aI4932
a(lp10109
(lp10110
g151
ag152
aS'0.73'
p10111
aa(lp10112
g155
ag156
aS'0.51'
p10113
aaaa(lp10114
VB8XW44_YEASX
p10115
aVB8XW44
p10116
ag6
aI4932
a(lp10117
(lp10118
g2501
ag2502
aS'0.92'
p10119
aa(lp10120
g4165
ag4166
aS'0.66'
p10121
aaaa(lp10122
VD3W790_YEASX
p10123
aVD3W790
p10124
ag6
aI4932
a(lp10125
(lp10126
g327
ag328
aS'0.84'
p10127
aa(lp10128
g331
ag332
aS'0.12'
p10129
aa(lp10130
g335
ag336
aS'0.12'
p10131
aa(lp10132
g339
ag340
aS'0.12'
p10133
aa(lp10134
g151
ag152
aS'0.12'
p10135
aa(lp10136
g345
ag346
aS'0.12'
p10137
aa(lp10138
g349
ag350
aS'0.12'
p10139
aa(lp10140
g353
ag354
aS'0.12'
p10141
aaaa(lp10142
VE9PA01_YEASX
p10143
aVE9PA01
p10144
ag6
aI4932
a(lp10145
(lp10146
g1263
ag1264
aS'0.87'
p10147
aa(lp10148
g4977
ag4978
aS'0.68'
p10149
aaaa(lp10150
VQ3SCJ1_YEASX
p10151
aVQ3SCJ1
p10152
ag6
aI4932
a(lp10153
(lp10154
g1009
ag1010
aS'0.84'
p10155
aa(lp10156
g1875
ag1876
aS'0.44'
p10157
aa(lp10158
g17
ag18
aS'0.42'
p10159
aa(lp10160
g1881
ag1882
aS'0.42'
p10161
aa(lp10162
g1891
ag1892
aS'0.42'
p10163
aa(lp10164
g821
ag822
aS'0.42'
p10165
aa(lp10166
g1885
ag1886
aS'0.42'
p10167
aa(lp10168
g1895
ag1896
aS'0.42'
p10169
aaaa(lp10170
VG8EXD3_YEASX
p10171
aVG8EXD3
p10172
ag6
aI4932
a(lp10173
(lp10174
g627
ag628
aS'0.92'
p10175
aa(lp10176
g631
ag632
aS'0.14'
p10177
aa(lp10178
g57
ag58
aS'0.14'
p10179
aa(lp10180
g551
ag552
aS'0.14'
p10181
aaaa(lp10182
VE9P8E9_YEASX
p10183
aVE9P8E9
p10184
ag6
aI4932
a(lp10185
(lp10186
VGO:0047184
p10187
aV1-acylglycerophosphocholine O-acyltransferase activity
p10188
aS'0.81'
p10189
aa(lp10190
g151
ag152
aS'0.45'
p10191
aa(lp10192
VGO:0016412
p10193
aVserine O-acyltransferase activity
p10194
aS'0.4'
p10195
aa(lp10196
VGO:0034736
p10197
aVcholesterol O-acyltransferase activity
p10198
aS'0.39'
p10199
aa(lp10200
VGO:0004144
p10201
aVdiacylglycerol O-acyltransferase activity
p10202
aS'0.39'
p10203
aa(lp10204
VGO:0000062
p10205
aVfatty-acyl-CoA binding
p10206
aS'0.39'
p10207
aa(lp10208
g6995
ag6996
aS'0.39'
p10209
aaaa(lp10210
VQ0P6W3_YEASX
p10211
aVQ0P6W3
p10212
ag6
aI4932
a(lp10213
(lp10214
VGO:0042393
p10215
aVhistone binding
p10216
aS'0.44'
p10217
aa(lp10218
VGO:0030544
p10219
aVHsp70 protein binding
p10220
aS'0.41'
p10221
aa(lp10222
g1065
ag1066
aS'0.37'
p10223
aa(lp10224
g1023
ag1024
aS'0.35'
p10225
aaaa(lp10226
VQ7LJX5_YEASX
p10227
aVQ7LJX5
p10228
ag6
aI4932
a(lp10229
(lp10230
g127
ag128
aS'0.78'
p10231
aa(lp10232
g123
ag124
aS'0.64'
p10233
aaaa(lp10234
VH9BH73_YEASX
p10235
aVH9BH73
p10236
ag6
aI4932
a(lp10237
(lp10238
g25
ag26
aS'0.83'
p10239
aa(lp10240
g269
ag270
aS'0.83'
p10241
aa(lp10242
g127
ag128
aS'0.78'
p10243
aa(lp10244
g227
ag228
aS'0.76'
p10245
aaaa(lp10246
VG8EXC5_YEASX
p10247
aVG8EXC5
p10248
ag6
aI4932
a(lp10249
(lp10250
g627
ag628
aS'0.92'
p10251
aa(lp10252
g631
ag632
aS'0.13'
p10253
aa(lp10254
g57
ag58
aS'0.13'
p10255
aa(lp10256
g551
ag552
aS'0.13'
p10257
aaaa(lp10258
VG8EXE0_YEASX
p10259
aVG8EXE0
p10260
ag6
aI4932
a(lp10261
(lp10262
g627
ag628
aS'0.92'
p10263
aa(lp10264
g631
ag632
aS'0.14'
p10265
aa(lp10266
g57
ag58
aS'0.14'
p10267
aa(lp10268
g551
ag552
aS'0.14'
p10269
aaaa(lp10270
VH9TTS8_YEASX
p10271
aVH9TTS8
p10272
ag6
aI4932
a(lp10273
(lp10274
g1431
ag1432
aS'0.94'
p10275
aa(lp10276
g1435
ag1436
aS'0.67'
p10277
aaaa(lp10278
VE9P8P4_YEASX
p10279
aVE9P8P4
p10280
ag6
aI4932
a(lp10281
(lp10282
g123
ag124
aS'0.68'
p10283
aa(lp10284
g127
ag128
aS'0.12'
p10285
aaaa(lp10286
VE9P8J9_YEASX
p10287
aVE9P8J9
p10288
ag6
aI4932
a(lp10289
(lp10290
g151
ag152
aS'0.76'
p10291
aa(lp10292
g155
ag156
aS'0.02'
p10293
aaaa(lp10294
VE9P8L6_YEASX
p10295
aVE9P8L6
p10296
ag6
aI4932
a(lp10297
(lp10298
g151
ag152
aS'0.74'
p10299
aa(lp10300
g155
ag156
aS'0.36'
p10301
aaaa(lp10302
VE9P9H8_YEASX
p10303
aVE9P9H8
p10304
ag6
aI4932
a(lp10305
(lp10306
g1305
ag1306
aS'0.93'
p10307
aa(lp10308
g1309
ag1310
aS'0.3'
p10309
aaaa(lp10310
VE9P9A7_YEASX
p10311
aVE9P9A7
p10312
ag6
aI4932
a(lp10313
(lp10314
VGO:0008517
p10315
aVfolic acid transporter activity
p10316
aS'0.36'
p10317
aa(lp10318
VGO:0019534
p10319
aVtoxin transporter activity
p10320
aS'0.01'
p10321
aa(lp10322
g6771
ag6772
aS'0.01'
p10323
aa(lp10324
VGO:0015112
p10325
aVnitrate transmembrane transporter activity
p10326
aS'0.01'
p10327
aa(lp10328
VGO:0015124
p10329
aVallantoate transmembrane transporter activity
p10330
aS'0.01'
p10331
aa(lp10332
VGO:0015134
p10333
aVhexuronate transmembrane transporter activity
p10334
aS'0.01'
p10335
aa(lp10336
VGO:0015136
p10337
aVsialic acid transmembrane transporter activity
p10338
aS'0.01'
p10339
aa(lp10340
VGO:0005452
p10341
aVinorganic anion exchanger activity
p10342
aS'0.01'
p10343
aa(lp10344
VGO:0015143
p10345
aVurate transmembrane transporter activity
p10346
aS'0.01'
p10347
aa(lp10348
VGO:0015321
p10349
aVsodium-dependent phosphate transmembrane transporter activity
p10350
aS'0.01'
p10351
aa(lp10352
VGO:0015152
p10353
aVglucose-6-phosphate transmembrane transporter activity
p10354
aS'0.01'
p10355
aa(lp10356
VGO:0015319
p10357
aVsodium:inorganic phosphate symporter activity
p10358
aS'0.01'
p10359
aa(lp10360
VGO:0008308
p10361
aVvoltage-gated anion channel activity
p10362
aS'0.01'
p10363
aa(lp10364
g151
ag152
aS'0.01'
p10365
aa(lp10366
VGO:0005313
p10367
aVL-glutamate transmembrane transporter activity
p10368
aS'0.01'
p10369
aa(lp10370
VGO:0005315
p10371
aVinorganic phosphate transmembrane transporter activity
p10372
aS'0.01'
p10373
aa(lp10374
VGO:0015513
p10375
aVnitrite uptake transmembrane transporter activity
p10376
aS'0.01'
p10377
aa(lp10378
VGO:0015514
p10379
aVnitrite efflux transmembrane transporter activity
p10380
aS'0.01'
p10381
aa(lp10382
g3161
ag3162
aS'0.01'
p10383
aa(lp10384
VGO:0015526
p10385
aVhexose-phosphate:inorganic phosphate antiporter activity
p10386
aS'0.01'
p10387
aa(lp10388
VGO:0015527
p10389
aVglycerol-phosphate:inorganic phosphate antiporter activity
p10390
aS'0.01'
p10391
aa(lp10392
VGO:0015232
p10393
aVheme transporter activity
p10394
aS'0.01'
p10395
aa(lp10396
VGO:0005351
p10397
aVsugar:hydrogen symporter activity
p10398
aS'0.01'
p10399
aaaa(lp10400
VA0SXJ5_YEASX
p10401
aVA0SXJ5
p10402
ag6
aI4932
a(lp10403
(lp10404
VGO:0047545
p10405
aV2-hydroxyglutarate dehydrogenase activity
p10406
aS'0.87'
p10407
aa(lp10408
VGO:0004617
p10409
aVphosphoglycerate dehydrogenase activity
p10410
aS'0.61'
p10411
aa(lp10412
VGO:0047995
p10413
aVhydroxyphenylpyruvate reductase activity
p10414
aS'0.56'
p10415
aaaa(lp10416
VH9NBL5_YEASX
p10417
aVH9NBL5
p10418
ag6
aI4932
a(lp10419
(lp10420
g17
ag18
aS'0.78'
p10421
aa(lp10422
g21
ag22
aS'0.54'
p10423
aa(lp10424
g25
ag26
aS'0.53'
p10425
aa(lp10426
g29
ag30
aS'0.51'
p10427
aa(lp10428
g33
ag34
aS'0.49'
p10429
aa(lp10430
g37
ag38
aS'0.49'
p10431
aa(lp10432
g41
ag42
aS'0.49'
p10433
aaaa(lp10434
VH9NBM3_YEASX
p10435
aVH9NBM3
p10436
ag6
aI4932
a(lp10437
(lp10438
g17
ag18
aS'0.71'
p10439
aa(lp10440
g21
ag22
aS'0.54'
p10441
aa(lp10442
g25
ag26
aS'0.53'
p10443
aa(lp10444
g29
ag30
aS'0.51'
p10445
aa(lp10446
g33
ag34
aS'0.49'
p10447
aa(lp10448
g37
ag38
aS'0.49'
p10449
aa(lp10450
g41
ag42
aS'0.49'
p10451
aaaa(lp10452
VG0Y636_YEASX
p10453
aVG0Y636
p10454
ag6
aI4932
a(lp10455
(lp10456
g10315
ag10316
aS'0.35'
p10457
aa(lp10458
g10319
ag10320
aS'0.02'
p10459
aa(lp10460
g6771
ag6772
aS'0.02'
p10461
aa(lp10462
g10325
ag10326
aS'0.02'
p10463
aa(lp10464
g10329
ag10330
aS'0.02'
p10465
aa(lp10466
g10333
ag10334
aS'0.02'
p10467
aa(lp10468
g10337
ag10338
aS'0.02'
p10469
aa(lp10470
g10341
ag10342
aS'0.02'
p10471
aa(lp10472
g10345
ag10346
aS'0.02'
p10473
aa(lp10474
g10349
ag10350
aS'0.02'
p10475
aa(lp10476
g10353
ag10354
aS'0.02'
p10477
aa(lp10478
g10357
ag10358
aS'0.02'
p10479
aa(lp10480
g10361
ag10362
aS'0.02'
p10481
aa(lp10482
g151
ag152
aS'0.02'
p10483
aa(lp10484
g10367
ag10368
aS'0.02'
p10485
aa(lp10486
g10371
ag10372
aS'0.02'
p10487
aa(lp10488
g10375
ag10376
aS'0.02'
p10489
aa(lp10490
g10379
ag10380
aS'0.02'
p10491
aa(lp10492
g3161
ag3162
aS'0.02'
p10493
aa(lp10494
g10385
ag10386
aS'0.02'
p10495
aa(lp10496
g10389
ag10390
aS'0.02'
p10497
aa(lp10498
g10393
ag10394
aS'0.02'
p10499
aa(lp10500
g10397
ag10398
aS'0.02'
p10501
aaaa(lp10502
VE9PA84_YEASX
p10503
aVE9PA84
p10504
ag6
aI4932
a(lp10505
(lp10506
VGO:0015633
p10507
aVzinc transporting ATPase activity
p10508
aS'0.94'
p10509
aa(lp10510
VGO:0015341
p10511
aVzinc efflux active transmembrane transporter activity
p10512
aS'0.34'
p10513
aa(lp10514
g649
ag650
aS'0.31'
p10515
aa(lp10516
g443
ag444
aS'0.31'
p10517
aa(lp10518
VGO:0015086
p10519
aVcadmium ion transmembrane transporter activity
p10520
aS'0.3'
p10521
aa(lp10522
VGO:0015093
p10523
aVferrous iron transmembrane transporter activity
p10524
aS'0.3'
p10525
aaaa(lp10526
VE9P9A4_YEASX
p10527
aVE9P9A4
p10528
ag6
aI4932
a(lp10529
(lp10530
VGO:0032947
p10531
aVprotein complex scaffold
p10532
aS'0.87'
p10533
aa(lp10534
VGO:0005484
p10535
aVSNAP receptor activity
p10536
aS'0.59'
p10537
aaaa(lp10538
VE9P8Q2_YEASX
p10539
aVE9P8Q2
p10540
ag6
aI4932
a(lp10541
(lp10542
g123
ag124
aS'0.68'
p10543
aa(lp10544
g127
ag128
aS'0.27'
p10545
aaaa(lp10546
VD3W8N5_YEASX
p10547
aVD3W8N5
p10548
ag6
aI4932
a(lp10549
(lp10550
g327
ag328
aS'0.83'
p10551
aa(lp10552
g331
ag332
aS'0.22'
p10553
aa(lp10554
g335
ag336
aS'0.22'
p10555
aa(lp10556
g339
ag340
aS'0.22'
p10557
aa(lp10558
g151
ag152
aS'0.22'
p10559
aa(lp10560
g345
ag346
aS'0.22'
p10561
aa(lp10562
g349
ag350
aS'0.22'
p10563
aa(lp10564
g353
ag354
aS'0.22'
p10565
aaaa(lp10566
VD6C7E9_YEASX
p10567
aVD6C7E9
p10568
ag6
aI4932
a(lp10569
(lp10570
g29
ag30
aS'0.52'
p10571
aa(lp10572
g17
ag18
aS'0.22'
p10573
aaaa(lp10574
VE9P8M5_YEASX
p10575
aVE9P8M5
p10576
ag6
aI4932
a(lp10577
(lp10578
g563
ag564
aS'0.94'
p10579
aa(lp10580
g57
ag58
aS'0.53'
p10581
aa(lp10582
g569
ag570
aS'0.52'
p10583
aa(lp10584
g573
ag574
aS'0.52'
p10585
aaaa(lp10586
VH9TYU4_YEASX
p10587
aVH9TYU4
p10588
ag6
aI4932
a(lp10589
(lp10590
g151
ag152
aS'0.74'
p10591
aaaa(lp10592
VE9P9K0_YEASX
p10593
aVE9P9K0
p10594
ag6
aI4932
a(lp10595
(lp10596
g17
ag18
aS'0.59'
p10597
aa(lp10598
g29
ag30
aS'0.5'
p10599
aa(lp10600
g21
ag22
aS'0.43'
p10601
aa(lp10602
g25
ag26
aS'0.42'
p10603
aa(lp10604
g37
ag38
aS'0.39'
p10605
aa(lp10606
g33
ag34
aS'0.38'
p10607
aa(lp10608
g41
ag42
aS'0.38'
p10609
aaaa(lp10610
VE9P8K5_YEASX
p10611
aVE9P8K5
p10612
ag6
aI4932
a(lp10613
(lp10614
g151
ag152
aS'0.73'
p10615
aa(lp10616
g155
ag156
aS'0.5'
p10617
aaaa(lp10618
VE9P8D7_YEASX
p10619
aVE9P8D7
p10620
ag6
aI4932
a(lp10621
(lp10622
g1105
ag1106
aS'0.92'
p10623
aa(lp10624
g1097
ag1098
aS'0.89'
p10625
aa(lp10626
g17
ag18
aS'0.78'
p10627
aa(lp10628
g1109
ag1110
aS'0.76'
p10629
aaaa(lp10630
VH9NBG4_YEASX
p10631
aVH9NBG4
p10632
ag6
aI4932
a(lp10633
(lp10634
g17
ag18
aS'0.56'
p10635
aa(lp10636
g21
ag22
aS'0.47'
p10637
aa(lp10638
g25
ag26
aS'0.47'
p10639
aa(lp10640
g29
ag30
aS'0.46'
p10641
aa(lp10642
g33
ag34
aS'0.46'
p10643
aa(lp10644
g37
ag38
aS'0.46'
p10645
aa(lp10646
g41
ag42
aS'0.46'
p10647
aaaa(lp10648
VG4XSS5_YEASX
p10649
aVG4XSS5
p10650
ag6
aI4932
a(lp10651
(lp10652
g473
ag474
aS'0.86'
p10653
aa(lp10654
g477
ag478
aS'0.6'
p10655
aa(lp10656
g631
ag632
aS'0.57'
p10657
aa(lp10658
g3683
ag3684
aS'0.57'
p10659
aaaa(lp10660
VE9P9G7_YEASX
p10661
aVE9P9G7
p10662
ag6
aI4932
a(lp10663
(lp10664
g1009
ag1010
aS'0.7'
p10665
aa(lp10666
g155
ag156
aS'0.51'
p10667
aaaa(lp10668
VE9P9B9_YEASX
p10669
aVE9P9B9
p10670
ag6
aI4932
a(lp10671
(lp10672
VGO:0008195
p10673
aVphosphatidate phosphatase activity
p10674
aS'0.63'
p10675
aa(lp10676
g151
ag152
aS'0.63'
p10677
aaaa(lp10678
VAQY1_YEASX
p10679
aVP0CD92
p10680
ag6
aI4932
a(lp10681
(lp10682
g327
ag328
aS'0.83'
p10683
aa(lp10684
g331
ag332
aS'0.22'
p10685
aa(lp10686
g335
ag336
aS'0.22'
p10687
aa(lp10688
g339
ag340
aS'0.22'
p10689
aa(lp10690
g151
ag152
aS'0.22'
p10691
aa(lp10692
g345
ag346
aS'0.22'
p10693
aa(lp10694
g349
ag350
aS'0.22'
p10695
aa(lp10696
g353
ag354
aS'0.22'
p10697
aaaa(lp10698
VH1AB54_YEASX
p10699
aVH1AB54
p10700
ag6
aI4932
a(lp10701
(lp10702
VGO:0035064
p10703
aVmethylated histone residue binding
p10704
aS'0.73'
p10705
aa(lp10706
g8783
ag8784
aS'0.46'
p10707
aaaa(lp10708
VE9P9I0_YEASX
p10709
aVE9P9I0
p10710
ag6
aI4932
a(lp10711
(lp10712
g1957
ag1958
aS'0.78'
p10713
aaaa(lp10714
VF4N9N8_YEASX
p10715
aVF4N9N8
p10716
ag6
aI4932
a(lp10717
(lp10718
g5815
ag5816
aS'0.9'
p10719
aa(lp10720
g5819
ag5820
aS'0.16'
p10721
aa(lp10722
g5823
ag5824
aS'0.16'
p10723
aa(lp10724
g1083
ag1084
aS'0.16'
p10725
aa(lp10726
g57
ag58
aS'0.16'
p10727
aaaa(lp10728
VE9PA11_YEASX
p10729
aVE9PA11
p10730
ag6
aI4932
a(lp10731
(lp10732
VGO:0043008
p10733
aVATP-dependent protein binding
p10734
aS'0.85'
p10735
aa(lp10736
VGO:0031386
p10737
aVprotein tag
p10738
aS'0.83'
p10739
aaaa(lp10740
VE9P8P6_YEASX
p10741
aVE9P8P6
p10742
ag6
aI4932
a(lp10743
(lp10744
g123
ag124
aS'0.68'
p10745
aa(lp10746
g127
ag128
aS'0.13'
p10747
aaaa(lp10748
VE9P9K6_YEASX
p10749
aVE9P9K6
p10750
ag6
aI4932
a(lp10751
(lp10752
g627
ag628
aS'0.92'
p10753
aa(lp10754
g631
ag632
aS'0.13'
p10755
aa(lp10756
g57
ag58
aS'0.13'
p10757
aa(lp10758
g551
ag552
aS'0.13'
p10759
aaaas.