(lp0
(dp1
a(dp2
a(dp3
a(dp4
Vseq1
p5
(lp6
(lp7
c__builtin__
set
p8
((lp9
VTID_DROME
p10
atp11
Rp12
aF224.557
aF5.76429e-69
aF100.0
aa(lp13
g8
((lp14
VTID_DROME
p15
atp16
Rp17
aF224.557
aF5.82627e-69
aF100.0
aa(lp18
g8
((lp19
VD3DN23_DROME
p20
atp21
Rp22
aF224.557
aF6.31525e-69
aF100.0
aa(lp23
g8
((lp24
VTID_DROME
p25
atp26
Rp27
aF225.713
aF9.23698e-69
aF100.0
aa(lp28
g8
((lp29
VTID_DROME
p30
atp31
Rp32
aF225.713
aF9.23698e-69
aF100.0
aa(lp33
g8
((lp34
VD6W4V2_DROME
p35
atp36
Rp37
aF224.942
aF1.78183e-68
aF100.0
aa(lp38
g8
((lp39
VQ7KVH7_DROME
p40
atp41
Rp42
aF224.557
aF2.34896e-68
aF100.0
aa(lp43
g8
((lp44
VT2GGE7_DROME
p45
atp46
Rp47
aF224.557
aF2.58743e-68
aF99.0
aa(lp48
g8
((lp49
VTID_DROME
p50
atp51
Rp52
aF223.787
aF5.98302e-68
aF99.0
aa(lp53
g8
((lp54
VB4QAY0_DROSI
p55
atp56
Rp57
aF217.624
aF1.01952e-65
aF96.0
aa(lp58
g8
((lp59
VTID_DROME
p60
atp61
Rp62
aF217.238
aF1.9722e-65
aF98.0
aa(lp63
g8
((lp64
VB4I8S2_DROSE
p65
atp66
Rp67
aF214.927
aF9.00121e-65
aF94.0
aa(lp68
g8
((lp69
VB4P9R9_DROYA
p70
atp71
Rp72
aF212.616
aF7.76255e-64
aF94.0
aa(lp73
g8
((lp74
VB3NPR2_DROER
p75
atp76
Rp77
aF207.223
aF1.16406e-61
aF94.0
aa(lp78
g8
((lp79
VB3MFJ4_DROAN
p80
atp81
Rp82
aF139.043
aF2.13942e-36
aF62.0
aa(lp83
g8
((lp84
VB4GHT7_DROPE
p85
atp86
Rp87
aF125.176
aF2.00811e-31
aF57.0
aa(lp88
g8
((lp89
VB5E1J0_DROPS
p90
atp91
Rp92
aF122.865
aF1.36805e-30
aF56.0
aa(lp93
g8
((lp94
VB4NML0_DROWI
p95
atp96
Rp97
aF122.094
aF2.47026e-30
aF56.0
aa(lp98
g8
((lp99
VB4MDV9_DROVI
p100
atp101
Rp102
aF110.153
aF6.5327e-26
aF51.0
aa(lp103
g8
((lp104
VTID_DROVI
p105
atp106
Rp107
aF109.768
aF9.01266e-26
aF51.0
aa(lp108
g8
((lp109
VB4KQ15_DROMO
p110
atp111
Rp112
aF100.523
aF1.8718e-22
aF48.0
aa(lp113
g8
((lp114
VB4J871_DROGR
p115
atp116
Rp117
aF100.138
aF2.2794e-22
aF52.0
aa(lp118
g8
((lp119
VT1PAG9_MUSDO
p120
atp121
Rp122
aF98.9821
aF3.53002e-22
aF79.0
aa(lp123
g8
((lp124
VE2ADT8_CAMFO
p125
atp126
Rp127
aF91.2781
aF4.51903e-19
aF52.0
aa(lp128
g8
((lp129
VW5JTS9_ANODA
p130
atp131
Rp132
aF89.7373
aF7.01765e-19
aF74.0
aa(lp133
g8
((lp134
VQ16R72_AEDAE
p135
atp136
Rp137
aF89.7373
aF1.25593e-18
aF72.0
aa(lp138
g8
((lp139
VW5JHS9_ANODA
p140
atp141
Rp142
aF89.7373
aF1.62492e-18
aF69.0
aa(lp143
g8
((lp144
VF4WP97_ACREC
p145
atp146
Rp147
aF88.1965
aF4.14071e-18
aF71.0
aa(lp148
g8
((lp149
VA7UR98_ANOGA
p150
atp151
Rp152
aF87.0409
aF1.36629e-17
aF65.0
aa(lp153
g8
((lp154
VA0A026WNX8_CERBI
p155
atp156
Rp157
aF87.0409
aF1.38288e-17
aF70.0
aa(lp158
g8
((lp159
VE9J573_SOLIN
p160
atp161
Rp162
aF86.6557
aF1.98734e-17
aF51.0
aa(lp163
g8
((lp164
VH6VTQ4_BOMMO
p165
atp166
Rp167
aF86.2705
aF3.08467e-17
aF67.0
aa(lp168
g8
((lp169
VQ7QJL2_ANOGA
p170
atp171
Rp172
aF86.2705
aF3.33171e-17
aF65.0
aa(lp173
g8
((lp174
VE2BN18_HARSA
p175
atp176
Rp177
aF85.1149
aF4.91615e-17
aF68.0
aa(lp178
g8
((lp179
VD7T2W9_VITVI
p180
atp181
Rp182
aF84.7297
aF6.43596e-17
aF54.0
aa(lp183
g8
((lp184
VG6DRS5_DANPL
p185
atp186
Rp187
aF83.5741
aF2.78722e-16
aF51.0
aa(lp188
g8
((lp189
VA0A067QSP8_ZOONE
p190
atp191
Rp192
aF82.4185
aF6.3004e-16
aF80.0
aa(lp193
g8
((lp194
VB8BND1_ORYSI
p195
atp196
Rp197
aF80.8777
aF1.43342e-15
aF52.0
aa(lp198
g8
((lp199
VQ2QX63_ORYSJ
p200
atp201
Rp202
aF80.1073
aF2.48872e-15
aF66.0
aa(lp203
g8
((lp204
VE0VXY1_PEDHC
p205
atp206
Rp207
aF79.7221
aF3.54983e-15
aF64.0
aa(lp208
g8
((lp209
VC5YSM8_SORBI
p210
atp211
Rp212
aF78.9518
aF6.83559e-15
aF63.0
aa(lp213
g8
((lp214
VA0A022T6E8_9HYME
p215
atp216
Rp217
aF79.337
aF7.77022e-15
aF62.0
aa(lp218
g8
((lp219
VL8HPQ8_9CETA
p220
atp221
Rp222
aF77.0258
aF8.56198e-15
aF66.0
aa(lp223
g8
((lp224
VA0A067GXR5_CITSI
p225
atp226
Rp227
aF78.5666
aF9.99953e-15
aF61.0
aa(lp228
g8
((lp229
VV4TG42_9ROSI
p230
atp231
Rp232
aF78.5666
aF9.99953e-15
aF61.0
aa(lp233
g8
((lp234
VF6T912_CALJA
p235
atp236
Rp237
aF78.5666
aF1.23114e-14
aF68.0
aa(lp238
g8
((lp239
VA1KXF7_RAT
p240
atp241
Rp242
aF78.1814
aF1.23618e-14
aF68.0
aa(lp243
g8
((lp244
VU3CDU6_CALJA
p245
atp246
Rp247
aF78.1814
aF1.27253e-14
aF68.0
aa(lp248
g8
((lp249
VDNJA3_MOUSE
p250
atp251
Rp252
aF78.1814
aF1.27353e-14
aF68.0
aa(lp253
g8
((lp254
VG3HS69_CRIGR
p255
atp256
Rp257
aF78.1814
aF1.5341e-14
aF68.0
aasaI1
a.