(dp0
S'result'
p1
(lp2
(lp3
VZDH14_HUMAN
p4
aVQ8IZN3
p5
aVHomo sapiens
p6
aI9606
a(lp7
(lp8
VGO:0019706
p9
aVprotein-cysteine S-palmitoyltransferase activity
p10
aS'0.89'
p11
aa(lp12
VGO:0004871
p13
aVsignal transducer activity
p14
aS'0.38'
p15
aa(lp16
VGO:0000035
p17
aVacyl binding
p18
aS'0.38'
p19
aa(lp20
VGO:0005515
p21
aVprotein binding
p22
aS'0.38'
p23
aa(lp24
VGO:0015095
p25
aVmagnesium ion transmembrane transporter activity
p26
aS'0.38'
p27
aa(lp28
VGO:0003677
p29
aVDNA binding
p30
aS'0.38'
p31
aaaa(lp32
VATS12_HUMAN
p33
aVP58397
p34
ag6
aI9606
a(lp35
(lp36
VGO:0004222
p37
aVmetalloendopeptidase activity
p38
aS'0.83'
p39
aa(lp40
VGO:0002020
p41
aVprotease binding
p42
aS'0.81'
p43
aa(lp44
VGO:0008270
p45
aVzinc ion binding
p46
aS'0.8'
p47
aa(lp48
VGO:0005178
p49
aVintegrin binding
p50
aS'0.8'
p51
aa(lp52
VGO:0009673
p53
aVlow affinity phosphate transmembrane transporter activity
p54
aS'0.78'
p55
aa(lp56
VGO:0005509
p57
aVcalcium ion binding
p58
aS'0.78'
p59
aa(lp60
VGO:0008201
p61
aVheparin binding
p62
aS'0.78'
p63
aa(lp64
VGO:0005201
p65
aVextracellular matrix structural constituent
p66
aS'0.77'
p67
aaaa(lp68
VGNT2C_HUMAN
p69
aVQ8NFS9
p70
ag6
aI9606
a(lp71
(lp72
VGO:0008109
p73
aVN-acetyllactosaminide beta-1,6-N-acetylglucosaminyltransferase activity
p74
aS'0.92'
p75
aa(lp76
VGO:0047225
p77
aVacetylgalactosaminyl-O-glycosyl-glycoprotein beta-1,6-N-acetylglucosaminyltransferase activity
p78
aS'0.05'
p79
aa(lp80
VGO:0003829
p81
aVbeta-1,3-galactosyl-O-glycosyl-glycoprotein beta-1,6-N-acetylglucosaminyltransferase activity
p82
aS'0.05'
p83
aaaa(lp84
VABCAC_HUMAN
p85
aVQ86UK0
p86
ag6
aI9606
a(lp87
(lp88
VGO:0005524
p89
aVATP binding
p90
aS'0.63'
p91
aa(lp92
VGO:0017127
p93
aVcholesterol transporter activity
p94
aS'0.56'
p95
aa(lp96
VGO:0019905
p97
aVsyntaxin binding
p98
aS'0.55'
p99
aa(lp100
VGO:0034186
p101
aVapolipoprotein A-I binding
p102
aS'0.53'
p103
aa(lp104
VGO:0034188
p105
aVapolipoprotein A-I receptor activity
p106
aS'0.53'
p107
aa(lp108
VGO:0031267
p109
aVsmall GTPase binding
p110
aS'0.52'
p111
aa(lp112
VGO:0042803
p113
aVprotein homodimerization activity
p114
aS'0.47'
p115
aaaa(lp116
VRISC_MOUSE
p117
aVQ920A5
p118
aVMus musculus
p119
aI10090
a(lp120
(lp121
VGO:0004185
p122
aVserine-type carboxypeptidase activity
p123
aS'0.93'
p124
aa(lp125
VGO:0008047
p126
aVenzyme activator activity
p127
aS'0.02'
p128
aa(lp129
VGO:0046982
p130
aVprotein heterodimerization activity
p131
aS'0.02'
p132
aa(lp133
VGO:0016754
p134
aVsinapoylglucose-malate O-sinapoyltransferase activity
p135
aS'0.02'
p136
aaaa(lp137
VPGAM4_HUMAN
p138
aVQ8N0Y7
p139
ag6
aI9606
a(lp140
(lp141
VGO:0003873
p142
aV6-phosphofructo-2-kinase activity
p143
aS'0.46'
p144
aa(lp145
VGO:0046538
p146
aV2,3-bisphosphoglycerate-dependent phosphoglycerate mutase activity
p147
aS'0.38'
p148
aaaa(lp149
VGNT2A_HUMAN
p150
aVQ8N0V5
p151
ag6
aI9606
a(lp152
(lp153
g73
ag74
aS'0.9'
p154
aa(lp155
g77
ag78
aS'0.12'
p156
aa(lp157
g81
ag82
aS'0.12'
p158
aa(lp159
VGO:0030158
p160
aVprotein xylosyltransferase activity
p161
aS'0.11'
p162
aaaa(lp163
VCA2D4_HUMAN
p164
aVQ7Z3S7
p165
ag6
aI9606
a(lp166
(lp167
VGO:0005245
p168
aVvoltage-gated calcium channel activity
p169
aS'0.9'
p170
aa(lp171
VGO:0005246
p172
aVcalcium channel regulator activity
p173
aS'0.34'
p174
aa(lp175
VGO:0016757
p176
aVtransferase activity, transferring glycosyl groups
p177
aS'0.3'
p178
aaaa(lp179
VVWA2_HUMAN
p180
aVQ5GFL6
p181
ag6
aI9606
a(lp182
(lp183
g113
ag114
aS'0.58'
p184
aa(lp185
VGO:0043395
p186
aVheparan sulfate proteoglycan binding
p187
aS'0.51'
p188
aa(lp189
VGO:0019903
p190
aVprotein phosphatase binding
p191
aS'0.44'
p192
aaaa(lp193
VH2A3_HUMAN
p194
aVQ7L7L0
p195
ag6
aI9606
a(lp196
(lp197
VGO:0003684
p198
aVdamaged DNA binding
p199
aS'0.16'
p200
aa(lp201
VGO:0000978
p202
aVRNA polymerase II core promoter proximal region sequence-specific DNA binding
p203
aS'0.16'
p204
aa(lp205
VGO:0019237
p206
aVcentromeric DNA binding
p207
aS'0.16'
p208
aaaa(lp209
VPHLB3_HUMAN
p210
aVQ6NSJ2
p211
ag6
aI9606
a(lp212
(lp213
VGO:0048365
p214
aVRac GTPase binding
p215
aS'0.75'
p216
aa(lp217
VGO:0036033
p218
aVmediator complex binding
p219
aS'0.6'
p220
aaaa(lp221
VZDHC2_HUMAN
p222
aVQ9UIJ5
p223
ag6
aI9606
a(lp224
(lp225
g9
ag10
aS'0.91'
p226
aa(lp227
g13
ag14
aS'0.13'
p228
aa(lp229
g17
ag18
aS'0.13'
p230
aa(lp231
g21
ag22
aS'0.13'
p232
aa(lp233
g25
ag26
aS'0.13'
p234
aa(lp235
g29
ag30
aS'0.13'
p236
aaaa(lp237
VDIRA1_HUMAN
p238
aVO95057
p239
ag6
aI9606
a(lp240
(lp241
VGO:0005525
p242
aVGTP binding
p243
aS'0.66'
p244
aa(lp245
VGO:0003924
p246
aVGTPase activity
p247
aS'0.46'
p248
aaaa(lp249
VDIRA2_HUMAN
p250
aVQ96HU8
p251
ag6
aI9606
a(lp252
(lp253
g242
ag243
aS'0.83'
p254
aa(lp255
g246
ag247
aS'0.46'
p256
aa(lp257
VGO:0031681
p258
aVG-protein beta-subunit binding
p259
aS'0.44'
p260
aa(lp261
VGO:0016887
p262
aVATPase activity
p263
aS'0.43'
p264
aa(lp265
VGO:0031624
p266
aVubiquitin conjugating enzyme binding
p267
aS'0.43'
p268
aa(lp269
g89
ag90
aS'0.43'
p270
aa(lp271
VGO:0017137
p272
aVRab GTPase binding
p273
aS'0.43'
p274
aaaa(lp275
VMOS_HUMAN
p276
aVP00540
p277
ag6
aI9606
a(lp278
(lp279
VGO:0004709
p280
aVMAP kinase kinase kinase activity
p281
aS'0.62'
p282
aa(lp283
VGO:0000287
p284
aVmagnesium ion binding
p285
aS'0.3'
p286
aa(lp287
VGO:0030274
p288
aVLIM domain binding
p289
aS'0.24'
p290
aaaa(lp291
V1B48_HUMAN
p292
aVP30486
p293
ag6
aI9606
a(lp294
(lp295
VGO:0042605
p296
aVpeptide antigen binding
p297
aS'0.9'
p298
aa(lp299
VGO:0032395
p300
aVMHC class II receptor activity
p301
aS'0.76'
p302
aa(lp303
g130
ag131
aS'0.75'
p304
aa(lp305
VGO:0030881
p306
aVbeta-2-microglobulin binding
p307
aS'0.75'
p308
aaaa(lp309
VMOS_XENLA
p310
aVP12965
p311
aVXenopus laevis
p312
aI8355
a(lp313
(lp314
g280
ag281
aS'0.64'
p315
aa(lp316
g284
ag285
aS'0.3'
p317
aa(lp318
g288
ag289
aS'0.25'
p319
aaaa(lp320
VZDH15_HUMAN
p321
aVQ96MV8
p322
ag6
aI9606
a(lp323
(lp324
g9
ag10
aS'0.9'
p325
aa(lp326
g13
ag14
aS'0.23'
p327
aa(lp328
g17
ag18
aS'0.23'
p329
aa(lp330
g21
ag22
aS'0.23'
p331
aa(lp332
g25
ag26
aS'0.23'
p333
aa(lp334
g29
ag30
aS'0.23'
p335
aaaa(lp336
VZDHC1_HUMAN
p337
aVQ8WTX9
p338
ag6
aI9606
a(lp339
(lp340
g9
ag10
aS'0.93'
p341
aa(lp342
g29
ag30
aS'0.03'
p343
aaaa(lp344
VACY3_HUMAN
p345
aVQ96HD9
p346
ag6
aI9606
a(lp347
(lp348
VGO:0004046
p349
aVaminoacylase activity
p350
aS'0.78'
p351
aaaa(lp352
VCYTS_HUMAN
p353
aVP01036
p354
ag6
aI9606
a(lp355
(lp356
VGO:0004869
p357
aVcysteine-type endopeptidase inhibitor activity
p358
aS'0.64'
p359
aa(lp360
g41
ag42
aS'0.44'
p361
aaaa(lp362
VFUCO2_HUMAN
p363
aVQ9BTY2
p364
ag6
aI9606
a(lp365
(lp366
VGO:0033938
p367
aV1,6-alpha-L-fucosidase activity
p368
aS'0.92'
p369
aa(lp370
VGO:0033932
p371
aV1,3-alpha-L-fucosidase activity
p372
aS'0.66'
p373
aaaa(lp374
VPGFS_RAT
p375
aVD3ZVR7
p376
aVRattus norvegicus
p377
aI10116
a(lp378
(lp379
VGO:0016616
p380
aVoxidoreductase activity, acting on the CH-OH group of donors, NAD or NADP as acceptor
p381
aS'0.77'
p382
aa(lp383
VGO:0016209
p384
aVantioxidant activity
p385
aS'0.56'
p386
aaaa(lp387
VDMP4_HUMAN
p388
aVQ8IXL6
p389
ag6
aI9606
a(lp390
(lp391
VGO:0004672
p392
aVprotein kinase activity
p393
aS'0.74'
p394
aa(lp395
g57
ag58
aS'0.74'
p396
aaaa(lp397
VMYO1B_HUMAN
p398
aVO43795
p399
ag6
aI9606
a(lp400
(lp401
VGO:0051015
p402
aVactin filament binding
p403
aS'0.69'
p404
aa(lp405
VGO:0030898
p406
aVactin-dependent ATPase activity
p407
aS'0.53'
p408
aa(lp409
g89
ag90
aS'0.53'
p410
aa(lp411
VGO:0060002
p412
aVplus-end directed microfilament motor activity
p413
aS'0.52'
p414
aaaa(lp415
VZDHC3_HUMAN
p416
aVQ9NYG2
p417
ag6
aI9606
a(lp418
(lp419
g9
ag10
aS'0.93'
p420
aa(lp421
g13
ag14
aS'0.01'
p422
aa(lp423
g17
ag18
aS'0.01'
p424
aa(lp425
g21
ag22
aS'0.01'
p426
aa(lp427
g25
ag26
aS'0.01'
p428
aa(lp429
g29
ag30
aS'0.01'
p430
aaaa(lp431
VPADI2_RAT
p432
aVP20717
p433
ag377
aI10116
a(lp434
(lp435
VGO:0004668
p436
aVprotein-arginine deiminase activity
p437
aS'0.9'
p438
aaaa(lp439
VPKRI1_HUMAN
p440
aVQ9H875
p441
ag6
aI9606
a(lp442
(lp443
VGO:0019901
p444
aVprotein kinase binding
p445
aS'0.62'
p446
aa(lp447
VGO:0004860
p448
aVprotein kinase inhibitor activity
p449
aS'0.61'
p450
aa(lp451
VGO:0003725
p452
aVdouble-stranded RNA binding
p453
aS'0.61'
p454
aaaa(lp455
VRISC_HUMAN
p456
aVQ9HB40
p457
ag6
aI9606
a(lp458
(lp459
g122
ag123
aS'0.93'
p460
aa(lp461
g126
ag127
aS'0.02'
p462
aa(lp463
g130
ag131
aS'0.02'
p464
aa(lp465
g134
ag135
aS'0.02'
p466
aaaasS'downloadfile'
p467
S'/data_more/SIFER_webserver/src/sifter_webserver/sifter_web/output/6159120_download.txt'
p468
s.