(dp0
S'result'
p1
(lp2
(lp3
VLEU3_DESVH
p4
aVQ726X1
p5
aVDesulfovibrio vulgaris str. Hildenborough
p6
aI882
a(lp7
(lp8
VGO:0004657
p9
aVproline dehydrogenase activity
p10
aS'0.92'
p11
aa(lp12
VGO:0003862
p13
aV3-isopropylmalate dehydrogenase activity
p14
aS'0.6'
p15
aaaa(lp16
VQ725V6_DESVH
p17
aVQ725V6
p18
ag6
aI882
a(lp19
(lp20
g9
ag10
aS'0.79'
p21
aa(lp22
VGO:0071949
p23
aVFAD binding
p24
aS'0.74'
p25
aaaa(lp26
VQ725Y0_DESVH
p27
aVQ725Y0
p28
ag6
aI882
a(lp29
(lp30
VGO:0051287
p31
aVNAD binding
p32
aS'0.27'
p33
aa(lp34
g9
ag10
aS'0.21'
p35
aa(lp36
VGO:0009055
p37
aVelectron carrier activity
p38
aS'0.18'
p39
aaaasS'downloadfile'
p40
S'/data_more/SIFER_webserver/src/sifter_webserver/sifter_web/output/6586748_download.txt'
p41
s.