(lp0
(dp1
VA4IIQ0_XENTR
p2
(dp3
I3200
F0.08
sI7055
F0.05
sI1808
F0.05
sI3094
F0.13
sI6551
F0.05
sI3101
F0.91
sI1846
F0.01
sI443
F0.05
sI445
F0.01
sI4799
F0.01
sI8644
F0.05
sI4805
F0.01
sI1997
F0.01
sI467
F0.01
sI982
F0.01
sI6927
F0.01
sI3165
F0.08
sI3295
F0.48
sI3297
F0.1
sI2151
F0.05
sI1512
F0.01
sI1514
F0.01
sI2161
F0.05
sI5112
F0.05
sI7037
F0.05
ssVF1Q4Y9_DANRE
p4
(dp5
I3200
F0.22
sI7055
F0.07
sI1808
F0.07
sI3094
F0.26
sI6551
F0.07
sI3101
F0.82
sI1846
F0.01
sI443
F0.07
sI445
F0.01
sI4799
F0.01
sI8644
F0.07
sI4805
F0.01
sI1997
F0.01
sI467
F0.01
sI982
F0.01
sI6927
F0.01
sI3165
F0.22
sI3295
F0.75
sI3297
F0.23
sI2151
F0.07
sI1512
F0.01
sI1514
F0.01
sI2161
F0.07
sI5112
F0.07
sI7037
F0.07
ssVQ93550_CAEEL
p6
(dp7
I3200
F0.18
sI3297
F0.82
sI3101
F0.22
sI3094
F0.18
sI3165
F0.18
sI3295
F0.18
ssVH9J2D0_BOMMO
p8
(dp9
I3200
F0.12
sI7055
F0.03
sI1808
F0.03
sI3094
F0.76
sI6551
F0.03
sI3101
F0.29
sI1846
F0.01
sI443
F0.03
sI445
F0.01
sI4799
F0.01
sI8644
F0.03
sI4805
F0.01
sI1997
F0.01
sI467
F0.01
sI982
F0.01
sI6927
F0.01
sI3165
F0.12
sI3295
F0.12
sI3297
F0.79
sI2151
F0.03
sI1512
F0.01
sI1514
F0.01
sI2161
F0.03
sI5112
F0.03
sI7037
F0.03
ssVG0MHZ3_CAEBE
p10
(dp11
I3200
F0.18
sI3297
F0.82
sI3101
F0.22
sI3094
F0.19
sI3165
F0.18
sI3295
F0.18
ssVA8PR64_BRUMA
p12
(dp13
I3200
F0.18
sI3297
F0.82
sI3101
F0.22
sI3094
F0.19
sI3165
F0.18
sI3295
F0.18
ssVA4IG10_DANRE
p14
(dp15
I3200
F0.34
sI7055
F0.07
sI1808
F0.07
sI3094
F0.37
sI6551
F0.07
sI3101
F0.84
sI1846
F0.01
sI443
F0.07
sI445
F0.01
sI4799
F0.01
sI8644
F0.07
sI4805
F0.01
sI1997
F0.01
sI467
F0.01
sI982
F0.01
sI6927
F0.01
sI3165
F0.34
sI3295
F0.75
sI3297
F0.35
sI2151
F0.07
sI1512
F0.01
sI1514
F0.01
sI2161
F0.07
sI5112
F0.07
sI7037
F0.07
ssVG5BQA6_HETGA
p16
(dp17
I3200
F0.01
sI3297
F0.01
sI443
F0.01
sI8644
F0.01
sI913
F0.01
sI3295
F0.01
sI2151
F0.01
sI3101
F0.91
sI4814
F0.01
sI3165
F0.01
sI2160
F0.01
sI2161
F0.01
sI4871
F0.01
sI3094
F0.16
sI6551
F0.01
sI5112
F0.01
sI1857
F0.01
sI7055
F0.01
sI7037
F0.01
sI1808
F0.01
sI10239
F0.01
ssVG1SCG0_RABIT
p18
(dp19
I3200
F0.06
sI7055
F0.05
sI1808
F0.05
sI3094
F0.15
sI6551
F0.05
sI3101
F0.91
sI1846
F0.01
sI443
F0.05
sI445
F0.01
sI4799
F0.01
sI8644
F0.05
sI4805
F0.01
sI1997
F0.01
sI467
F0.01
sI982
F0.01
sI6927
F0.01
sI3165
F0.06
sI3295
F0.06
sI3297
F0.06
sI2151
F0.05
sI1512
F0.01
sI1514
F0.01
sI2161
F0.05
sI5112
F0.05
sI7037
F0.05
ssVE1C5S3_CHICK
p20
(dp21
I3200
F0.07
sI7055
F0.04
sI1808
F0.04
sI3094
F0.13
sI6551
F0.04
sI3101
F0.91
sI1846
F0.01
sI443
F0.04
sI445
F0.01
sI4799
F0.01
sI8644
F0.04
sI4805
F0.01
sI1997
F0.01
sI467
F0.01
sI982
F0.01
sI6927
F0.01
sI3165
F0.07
sI3295
F0.45
sI3297
F0.09
sI2151
F0.04
sI1512
F0.01
sI1514
F0.01
sI2161
F0.04
sI5112
F0.04
sI7037
F0.04
ssVE5SJD8_TRISP
p22
(dp23
I3200
F0.15
sI3297
F0.81
sI3101
F0.19
sI3094
F0.16
sI3165
F0.15
sI3295
F0.15
ssVC3Y4T6_BRAFL
p24
(dp25
I3200
F0.1
sI3297
F0.81
sI3101
F0.19
sI3094
F0.1
sI3165
F0.1
sI3295
F0.1
ssVE3MMF1_CAERE
p26
(dp27
I3200
F0.18
sI3297
F0.82
sI3101
F0.22
sI3094
F0.19
sI3165
F0.18
sI3295
F0.18
ssVQ5FX75_CANFA
p28
(dp29
I3200
F0.06
sI7055
F0.05
sI1808
F0.05
sI3094
F0.15
sI6551
F0.05
sI3101
F0.91
sI1846
F0.01
sI443
F0.05
sI445
F0.01
sI4799
F0.01
sI8644
F0.05
sI4805
F0.01
sI1997
F0.01
sI467
F0.01
sI982
F0.01
sI6927
F0.01
sI3165
F0.06
sI3295
F0.06
sI3297
F0.06
sI2151
F0.05
sI1512
F0.01
sI1514
F0.01
sI2161
F0.05
sI5112
F0.05
sI7037
F0.05
ssVE5SJE0_TRISP
p30
(dp31
I3200
F0.18
sI3297
F0.81
sI3101
F0.22
sI3094
F0.19
sI3165
F0.18
sI3295
F0.19
ssVE1FKB9_LOALO
p32
(dp33
I3200
F0.18
sI3297
F0.82
sI3101
F0.21
sI3094
F0.18
sI3165
F0.18
sI3295
F0.18
ssa(dp34
g2
I8364
sg4
I7955
sg6
I6239
sg8
I7091
sg10
I135651
sg12
I6279
sg14
I7955
sg16
I10181
sg18
I9986
sg20
I9031
sg22
I6334
sg24
I7739
sg26
I31234
sg28
I9615
sg30
I6334
sg32
I7209
sa(dp35
g2
VA4IIQ0
p36
sg4
VF1Q4Y9
p37
sg6
VQ93550
p38
sg8
VH9J2D0
p39
sg10
VG0MHZ3
p40
sg12
VA8PR64
p41
sg14
VA4IG10
p42
sg16
VG5BQA6
p43
sg18
VG1SCG0
p44
sg20
VE1C5S3
p45
sg22
VE5SJD8
p46
sg24
VC3Y4T6
p47
sg26
VE3MMF1
p48
sg28
VQ5FX75
p49
sg30
VE5SJE0
p50
sg32
VE1FKB9
p51
sa(dp52
Vseq1
p53
(lp54
(lp55
VE3MMF1_CAERE
p56
aF1258.82
aF0.0
aF95.0
aa(lp57
VG0MHZ3_CAEBE
p58
aF1237.25
aF0.0
aF93.0
aa(lp59
VQ93550_CAEEL
p60
aF1230.7
aF0.0
aF92.0
aa(lp61
VE1FKB9_LOALO
p62
aF561.607
aF0.0
aF45.0
aa(lp63
VA8PR64_BRUMA
p64
aF502.671
aF2.32216e-166
aF43.0
aa(lp65
VE5SJE0_TRISP
p66
aF394.43
aF6.06011e-125
aF40.0
aa(lp67
VE5SJD8_TRISP
p68
aF366.311
aF6.42128e-114
aF47.0
aa(lp69
VJ9ERJ5_WUCBA
p70
aF278.87
aF2.59069e-84
aF46.0
aa(lp71
VC3Y4T6_BRAFL
p72
aF274.248
aF3.23788e-79
aF29.0
aa(lp73
VA4IIQ0_XENTR
p74
aF267.7
aF4.49586e-76
aF28.0
aa(lp75
VE1C5S3_CHICK
p76
aF260.766
aF1.97353e-73
aF28.0
aa(lp77
VA4IG10_DANRE
p78
aF259.996
aF3.69389e-73
aF29.0
aa(lp79
VF1Q4Y9_DANRE
p80
aF259.61
aF7.14487e-73
aF29.0
aa(lp81
VG1SCG0_RABIT
p82
aF253.447
aF6.66067e-71
aF29.0
aa(lp83
VQ5FX75_CANFA
p84
aF251.906
aF2.19141e-70
aF29.0
aa(lp85
VH9J2D0_BOMMO
p86
aF256.144
aF5.05044e-70
aF27.0
aa(lp87
VG5BQA6_HETGA
p88
aF245.743
aF2.34564e-68
aF29.0
aasaI1
a.