(lp0
(dp1
VADT1_ANOGA
p2
(dp3
I7040
F0.34
sI5001
F0.17
sI1995
F0.11
sI1935
F0.13
sI323
F0.03
sI20
F0.06
sI21
F0.12
sI2198
F0.07
sI9375
F0.11
sI6305
F0.03
sI3106
F0.05
sI3244
F0.29
sI1970
F0.04
sI47
F0.09
sI3762
F0.14
sI1971
F0.21
sI4148
F0.13
sI1973
F0.12
sI1974
F0.07
sI7351
F0.26
sI3267
F0.01
sI3524
F0.08
sI3270
F0.1
sI2359
F0.13
sI3148
F0.09
sI1997
F0.15
sI3150
F0.08
sI1871
F0.14
sI3156
F0.09
sI4814
F0.77
sI476
F0.12
sI1887
F0.05
sI1889
F0.08
sI3171
F0.15
sI10348
F0.18
sI3182
F0.02
sI3190
F0.2
sI3191
F0.06
sI3192
F0.11
sI3194
F0.01
sI9469
F0.03
sI1941
F0.07
ssa(dp4
g2
I7165
sa(dp5
g2
VQ27238
p6
sa.