(dp0
S'result'
p1
(lp2
(lp3
VE9P8G2_YEASX
p4
aVE9P8G2
p5
aVSaccharomyces cerevisiae
p6
aI4932
a(lp7
(lp8
VGO:0000978
p9
aVRNA polymerase II core promoter proximal region sequence-specific DNA binding
p10
aS'0.89'
p11
aa(lp12
VGO:0001077
p13
aVRNA polymerase II core promoter proximal region sequence-specific DNA binding transcription factor activity involved in positive regulation of transcription
p14
aS'0.66'
p15
aa(lp16
VGO:0008144
p17
aVdrug binding
p18
aS'0.63'
p19
aa(lp20
VGO:0008270
p21
aVzinc ion binding
p22
aS'0.6'
p23
aa(lp24
VGO:0004553
p25
aVhydrolase activity, hydrolyzing O-glycosyl compounds
p26
aS'0.57'
p27
aaaa(lp28
VMAL63_YEASX
p29
aVP10508
p30
ag6
aI4932
a(lp31
(lp32
g9
ag10
aS'0.89'
p33
aa(lp34
g13
ag14
aS'0.6'
p35
aa(lp36
g17
ag18
aS'0.46'
p37
aaaa(lp38
VHAP1_YEASX
p39
aVP0CS82
p40
ag6
aI4932
a(lp41
(lp42
g13
ag14
aS'0.56'
p43
aa(lp44
g9
ag10
aS'0.5'
p45
aaaa(lp46
VB0M8W9_YEASX
p47
aVB0M8W9
p48
ag6
aI4932
a(lp49
(lp50
g9
ag10
aS'0.89'
p51
aa(lp52
g17
ag18
aS'0.71'
p53
aa(lp54
g21
ag22
aS'0.69'
p55
aa(lp56
g13
ag14
aS'0.68'
p57
aa(lp58
g25
ag26
aS'0.65'
p59
aaaa(lp60
VE9PA26_YEASX
p61
aVE9PA26
p62
ag6
aI4932
a(lp63
(lp64
g9
ag10
aS'0.45'
p65
aa(lp66
VGO:0042803
p67
aVprotein homodimerization activity
p68
aS'0.37'
p69
aa(lp70
VGO:0035497
p71
aVcAMP response element binding
p72
aS'0.37'
p73
aaaa(lp74
VE9P9W6_YEASX
p75
aVE9P9W6
p76
ag6
aI4932
a(lp77
(lp78
g13
ag14
aS'0.46'
p79
aa(lp80
g9
ag10
aS'0.44'
p81
aaaa(lp82
VE9P9W3_YEASX
p83
aVE9P9W3
p84
ag6
aI4932
a(lp85
(lp86
g9
ag10
aS'0.5'
p87
aa(lp88
g13
ag14
aS'0.47'
p89
aa(lp90
g21
ag22
aS'0.46'
p91
aaaa(lp92
VE9P8F9_YEASX
p93
aVE9P8F9
p94
ag6
aI4932
a(lp95
(lp96
g9
ag10
aS'0.89'
p97
aa(lp98
g13
ag14
aS'0.69'
p99
aa(lp100
g17
ag18
aS'0.61'
p101
aa(lp102
g21
ag22
aS'0.58'
p103
aa(lp104
g25
ag26
aS'0.55'
p105
aaaa(lp106
VE9P8G3_YEASX
p107
aVE9P8G3
p108
ag6
aI4932
a(lp109
(lp110
g9
ag10
aS'0.89'
p111
aa(lp112
g13
ag14
aS'0.59'
p113
aaaa(lp114
VE9P8G1_YEASX
p115
aVE9P8G1
p116
ag6
aI4932
a(lp117
(lp118
g9
ag10
aS'0.89'
p119
aa(lp120
g17
ag18
aS'0.67'
p121
aa(lp122
g13
ag14
aS'0.66'
p123
aa(lp124
g21
ag22
aS'0.65'
p125
aa(lp126
g25
ag26
aS'0.61'
p127
aaaa(lp128
VE9P8F7_YEASX
p129
aVE9P8F7
p130
ag6
aI4932
a(lp131
(lp132
g9
ag10
aS'0.9'
p133
aa(lp134
g13
ag14
aS'0.65'
p135
aa(lp136
g17
ag18
aS'0.6'
p137
aa(lp138
g21
ag22
aS'0.57'
p139
aa(lp140
g25
ag26
aS'0.54'
p141
aaaa(lp142
VE9PA25_YEASX
p143
aVE9PA25
p144
ag6
aI4932
a(lp145
(lp146
g9
ag10
aS'0.89'
p147
aa(lp148
g13
ag14
aS'0.64'
p149
aaaa(lp150
VE9P8F6_YEASX
p151
aVE9P8F6
p152
ag6
aI4932
a(lp153
(lp154
g9
ag10
aS'0.89'
p155
aa(lp156
g13
ag14
aS'0.66'
p157
aa(lp158
g17
ag18
aS'0.55'
p159
aa(lp160
g21
ag22
aS'0.52'
p161
aaaa(lp162
VE9P8F5_YEASX
p163
aVE9P8F5
p164
ag6
aI4932
a(lp165
(lp166
g9
ag10
aS'0.89'
p167
aa(lp168
g17
ag18
aS'0.7'
p169
aa(lp170
g13
ag14
aS'0.67'
p171
aa(lp172
g21
ag22
aS'0.67'
p173
aa(lp174
g25
ag26
aS'0.64'
p175
aaaa(lp176
VE9P8F8_YEASX
p177
aVE9P8F8
p178
ag6
aI4932
a(lp179
(lp180
g9
ag10
aS'0.9'
p181
aa(lp182
g13
ag14
aS'0.65'
p183
aa(lp184
g17
ag18
aS'0.64'
p185
aa(lp186
g21
ag22
aS'0.61'
p187
aa(lp188
g25
ag26
aS'0.57'
p189
aaaa(lp190
VB0M8X6_YEASX
p191
aVB0M8X6
p192
ag6
aI4932
a(lp193
(lp194
g9
ag10
aS'0.89'
p195
aa(lp196
g13
ag14
aS'0.68'
p197
aa(lp198
g17
ag18
aS'0.58'
p199
aa(lp200
g21
ag22
aS'0.55'
p201
aa(lp202
g25
ag26
aS'0.52'
p203
aaaa(lp204
VE9P9U0_YEASX
p205
aVE9P9U0
p206
ag6
aI4932
a(lp207
(lp208
g17
ag18
aS'0.53'
p209
aa(lp210
g9
ag10
aS'0.52'
p211
aa(lp212
g21
ag22
aS'0.49'
p213
aa(lp214
g13
ag14
aS'0.48'
p215
aa(lp216
VGO:0001078
p217
aVRNA polymerase II core promoter proximal region sequence-specific DNA binding transcription factor activity involved in negative regulation of transcription
p218
aS'0.45'
p219
aa(lp220
g25
ag26
aS'0.43'
p221
aaaa(lp222
VG8ENB3_YEASX
p223
aVG8ENB3
p224
ag6
aI4932
a(lp225
(lp226
g21
ag22
aS'0.49'
p227
aa(lp228
VGO:0001191
p229
aVRNA polymerase II transcription factor binding transcription factor activity involved in negative regulation of transcription
p230
aS'0.48'
p231
aa(lp232
g9
ag10
aS'0.48'
p233
aa(lp234
VGO:0001128
p235
aVRNA polymerase II transcription coactivator activity involved in preinitiation complex assembly
p236
aS'0.48'
p237
aa(lp238
g13
ag14
aS'0.47'
p239
aa(lp240
VGO:0003690
p241
aVdouble-stranded DNA binding
p242
aS'0.46'
p243
aa(lp244
VGO:0001135
p245
aVRNA polymerase II transcription factor recruiting transcription factor activity
p246
aS'0.45'
p247
aa(lp248
VGO:0003705
p249
aVRNA polymerase II distal enhancer sequence-specific DNA binding transcription factor activity
p250
aS'0.45'
p251
aa(lp252
g25
ag26
aS'0.44'
p253
aa(lp254
VGO:0003714
p255
aVtranscription corepressor activity
p256
aS'0.44'
p257
aaaa(lp258
VE9PA27_YEASX
p259
aVE9PA27
p260
ag6
aI4932
a(lp261
(lp262
g9
ag10
aS'0.43'
p263
aa(lp264
g71
ag72
aS'0.31'
p265
aaaas.