(dp0
S'result'
p1
(lp2
(lp3
Vseq2
p4
a(lp5
(lp6
VTID_DROME
p7
aVQ27237
p8
aVDrosophila melanogaster
p9
aI7227
aS'1076'
p10
aS'0.00e+00'
p11
aS'100'
p12
aS'100'
p13
a(lp14
(lp15
VGO:0050750
p16
aVlow-density lipoprotein particle receptor binding
p17
aS'0.92'
p18
aa(lp19
VGO:0019901
p20
aVprotein kinase binding
p21
aS'0.8'
p22
aa(lp23
VGO:0051059
p24
aVNF-kappaB binding
p25
aS'0.74'
p26
aa(lp27
VGO:0005133
p28
aVinterferon-gamma receptor binding
p29
aS'0.74'
p30
aa(lp31
VGO:0051082
p32
aVunfolded protein binding
p33
aS'0.73'
p34
aa(lp35
VGO:0008270
p36
aVzinc ion binding
p37
aS'0.73'
p38
aa(lp39
VGO:0003756
p40
aVprotein disulfide isomerase activity
p41
aS'0.72'
p42
aaaa(lp43
VQ7KVH7_DROME
p44
aVQ7KVH7
p45
ag9
aI7227
aS'860'
p46
aS'0.00e+00'
p47
aS'99'
p48
aS'85'
p49
a(lp50
(lp51
g16
ag17
aS'0.91'
p52
aa(lp53
g20
ag21
aS'0.81'
p54
aa(lp55
g24
ag25
aS'0.75'
p56
aa(lp57
g28
ag29
aS'0.75'
p58
aa(lp59
g32
ag33
aS'0.74'
p60
aa(lp61
g36
ag37
aS'0.74'
p62
aa(lp63
g40
ag41
aS'0.73'
p64
aaaa(lp65
VD6W4V2_DROME
p66
aVD6W4V2
p67
ag9
aI7227
aS'855'
p68
aS'0.00e+00'
p69
aS'99'
p70
aS'85'
p71
a(lp72
(lp73
g16
ag17
aS'0.92'
p74
aa(lp75
g20
ag21
aS'0.5'
p76
aa(lp77
VGO:0042393
p78
aVhistone binding
p79
aS'0.41'
p80
aaaa(lp81
VB4QAY0_DROSI
p82
aVB4QAY0
p83
aVDrosophila simulans
p84
aI7240
aS'850'
p85
aS'0.00e+00'
p86
aS'97'
p87
aS'87'
p88
a(lp89
(lp90
g16
ag17
aS'0.91'
p91
aa(lp92
g20
ag21
aS'0.84'
p93
aa(lp94
g24
ag25
aS'0.8'
p95
aa(lp96
g32
ag33
aS'0.8'
p97
aa(lp98
g28
ag29
aS'0.8'
p99
aa(lp100
g36
ag37
aS'0.8'
p101
aa(lp102
g40
ag41
aS'0.79'
p103
aaaa(lp104
VB4P9R9_DROYA
p105
aVB4P9R9
p106
aVDrosophila yakuba
p107
aI7245
aS'845'
p108
aS'0.00e+00'
p109
aS'96'
p110
aS'87'
p111
a(lp112
(lp113
g16
ag17
aS'0.92'
p114
aa(lp115
g20
ag21
aS'0.59'
p116
aaaa(lp117
VB3NPR2_DROER
p118
aVB3NPR2
p119
aVDrosophila erecta
p120
aI7220
aS'837'
p121
aS'0.00e+00'
p122
aS'95'
p123
aS'87'
p124
a(lp125
(lp126
g16
ag17
aS'0.92'
p127
aa(lp128
g20
ag21
aS'0.59'
p129
aaaa(lp130
VB4I8S2_DROSE
p131
aVB4I8S2
p132
aVDrosophila sechellia
p133
aI7238
aS'770'
p134
aS'0.00e+00'
p135
aS'86'
p136
aS'87'
p137
a(lp138
(lp139
g16
ag17
aS'0.91'
p140
aa(lp141
g20
ag21
aS'0.81'
p142
aa(lp143
g28
ag29
aS'0.75'
p144
aa(lp145
g24
ag25
aS'0.75'
p146
aa(lp147
g36
ag37
aS'0.75'
p148
aa(lp149
g32
ag33
aS'0.75'
p150
aa(lp151
g40
ag41
aS'0.73'
p152
aaaa(lp153
VB3MFJ4_DROAN
p154
aVB3MFJ4
p155
aVDrosophila ananassae
p156
aI7217
aS'748'
p157
aS'0.00e+00'
p158
aS'85'
p159
aS'85'
p160
a(lp161
(lp162
g16
ag17
aS'0.92'
p163
aa(lp164
g20
ag21
aS'0.55'
p165
aaaa(lp166
VTID_DROVI
p167
aVQ24331
p168
aVDrosophila virilis
p169
aI7244
aS'717'
p170
aS'0.00e+00'
p171
aS'72'
p172
aS'100'
p173
a(lp174
(lp175
g16
ag17
aS'0.92'
p176
aa(lp177
g20
ag21
aS'0.64'
p178
aa(lp179
g24
ag25
aS'0.49'
p180
aa(lp181
g28
ag29
aS'0.49'
p182
aaaa(lp183
VB4GHT7_DROPE
p184
aVB4GHT7
p185
aVDrosophila persimilis
p186
aI7234
aS'714'
p187
aS'0.00e+00'
p188
aS'73'
p189
aS'100'
p190
a(lp191
(lp192
g16
ag17
aS'0.92'
p193
aa(lp194
g20
ag21
aS'0.59'
p195
aaaa(lp196
VB5E1J0_DROPS
p197
aVB5E1J0
p198
aVDrosophila pseudoobscura pseudoobscura
p199
aI46245
aS'712'
p200
aS'0.00e+00'
p201
aS'73'
p202
aS'100'
p203
a(lp204
(lp205
g16
ag17
aS'0.92'
p206
aa(lp207
g20
ag21
aS'0.59'
p208
aaaa(lp209
VB4J871_DROGR
p210
aVB4J871
p211
aVDrosophila grimshawi
p212
aI7222
aS'701'
p213
aS'0.00e+00'
p214
aS'77'
p215
aS'85'
p216
a(lp217
(lp218
g16
ag17
aS'0.92'
p219
aa(lp220
g20
ag21
aS'0.56'
p221
aaaa(lp222
VB4KQ15_DROMO
p223
aVB4KQ15
p224
aVDrosophila mojavensis
p225
aI7230
aS'699'
p226
aS'0.00e+00'
p227
aS'75'
p228
aS'85'
p229
a(lp230
(lp231
g16
ag17
aS'0.92'
p232
aa(lp233
g20
ag21
aS'0.56'
p234
aaaa(lp235
VB4NML0_DROWI
p236
aVB4NML0
p237
aVDrosophila willistoni
p238
aI7260
aS'696'
p239
aS'0.00e+00'
p240
aS'78'
p241
aS'85'
p242
a(lp243
(lp244
g16
ag17
aS'0.92'
p245
aa(lp246
g20
ag21
aS'0.51'
p247
aa(lp248
g78
ag79
aS'0.39'
p249
aaaa(lp250
VB4MDV9_DROVI
p251
aVB4MDV9
p252
ag169
aI7244
aS'687'
p253
aS'0.00e+00'
p254
aS'77'
p255
aS'85'
p256
a(lp257
(lp258
g16
ag17
aS'0.92'
p259
aa(lp260
g20
ag21
aS'0.64'
p261
aa(lp262
g24
ag25
aS'0.49'
p263
aa(lp264
g28
ag29
aS'0.49'
p265
aaaa(lp266
VQ16R72_AEDAE
p267
aVQ16R72
p268
aVAedes aegypti
p269
aI7159
aS'615'
p270
aS'0.00e+00'
p271
aS'73'
p272
aS'75'
p273
a(lp274
(lp275
g16
ag17
aS'0.92'
p276
aa(lp277
g20
ag21
aS'0.65'
p278
aa(lp279
g24
ag25
aS'0.5'
p280
aa(lp281
g28
ag29
aS'0.5'
p282
aa(lp283
g32
ag33
aS'0.49'
p284
aa(lp285
g36
ag37
aS'0.49'
p286
aaaa(lp287
VE9J573_SOLIN
p288
aVE9J573
p289
aVSolenopsis invicta
p290
aI13686
aS'565'
p291
aS'0.00e+00'
p292
aS'63'
p293
aS'83'
p294
a(lp295
(lp296
g16
ag17
aS'0.92'
p297
aa(lp298
g20
ag21
aS'0.5'
p299
aa(lp300
g78
ag79
aS'0.39'
p301
aaaa(lp302
VE2ADT8_CAMFO
p303
aVE2ADT8
p304
aVCamponotus floridanus
p305
aI104421
aS'560'
p306
aS'0.00e+00'
p307
aS'61'
p308
aS'84'
p309
a(lp310
(lp311
g16
ag17
aS'0.92'
p312
aa(lp313
g20
ag21
aS'0.5'
p314
aa(lp315
g78
ag79
aS'0.39'
p316
aaaa(lp317
VE2BN18_HARSA
p318
aVE2BN18
p319
aVHarpegnathos saltator
p320
aI610380
aS'555'
p321
aS'0.00e+00'
p322
aS'65'
p323
aS'74'
p324
a(lp325
(lp326
g16
ag17
aS'0.92'
p327
aa(lp328
g20
ag21
aS'0.5'
p329
aa(lp330
g78
ag79
aS'0.39'
p331
aaaa(lp332
VF4WP97_ACREC
p333
aVF4WP97
p334
aVAcromyrmex echinatior
p335
aI103372
aS'553'
p336
aS'0.00e+00'
p337
aS'65'
p338
aS'74'
p339
a(lp340
(lp341
g16
ag17
aS'0.92'
p342
aa(lp343
g20
ag21
aS'0.5'
p344
aa(lp345
g78
ag79
aS'0.4'
p346
aaaa(lp347
VA7UR98_ANOGA
p348
aVA7UR98
p349
aVAnopheles gambiae
p350
aI7165
aS'543'
p351
aS'0.00e+00'
p352
aS'67'
p353
aS'78'
p354
a(lp355
(lp356
g16
ag17
aS'0.92'
p357
aa(lp358
g20
ag21
aS'0.69'
p359
aa(lp360
g24
ag25
aS'0.57'
p361
aa(lp362
g28
ag29
aS'0.57'
p363
aa(lp364
g32
ag33
aS'0.56'
p365
aa(lp366
g36
ag37
aS'0.55'
p367
aa(lp368
g40
ag41
aS'0.52'
p369
aaaa(lp370
VE9H747_DAPPU
p371
aVE9H747
p372
aVDaphnia pulex
p373
aI6669
aS'539'
p374
aS'0.00e+00'
p375
aS'60'
p376
aS'80'
p377
a(lp378
(lp379
g16
ag17
aS'0.92'
p380
aa(lp381
g20
ag21
aS'0.47'
p382
aa(lp383
g78
ag79
aS'0.38'
p384
aaaa(lp385
VG6DRS5_DANPL
p386
aVG6DRS5
p387
aVDanaus plexippus
p388
aI13037
aS'540'
p389
aS'0.00e+00'
p390
aS'61'
p391
aS'82'
p392
a(lp393
(lp394
g16
ag17
aS'0.92'
p395
aa(lp396
g20
ag21
aS'0.51'
p397
aaaa(lp398
VQ7QJL2_ANOGA
p399
aVQ7QJL2
p400
ag350
aI7165
aS'538'
p401
aS'0.00e+00'
p402
aS'68'
p403
aS'77'
p404
a(lp405
(lp406
g16
ag17
aS'0.92'
p407
aa(lp408
g20
ag21
aS'0.57'
p409
aaaa(lp410
VE0VXY1_PEDHC
p411
aVE0VXY1
p412
aVPediculus humanus corporis
p413
aI121224
aS'528'
p414
aS'0.00e+00'
p415
aS'64'
p416
aS'75'
p417
a(lp418
(lp419
g16
ag17
aS'0.92'
p420
aa(lp421
g20
ag21
aS'0.5'
p422
aa(lp423
g78
ag79
aS'0.38'
p424
aaaa(lp425
VH6VTQ4_BOMMO
p426
aVH6VTQ4
p427
aVBombyx mori
p428
aI7091
aS'518'
p429
aS'1.25e-175'
p430
aS'65'
p431
aS'77'
p432
a(lp433
(lp434
g16
ag17
aS'0.92'
p435
aa(lp436
g20
ag21
aS'0.57'
p437
aaaa(lp438
VD1ZZJ9_TRICA
p439
aVD1ZZJ9
p440
aVTribolium castaneum
p441
aI7070
aS'504'
p442
aS'2.42e-171'
p443
aS'62'
p444
aS'79'
p445
a(lp446
(lp447
g16
ag17
aS'0.92'
p448
aa(lp449
g20
ag21
aS'0.5'
p450
aa(lp451
g78
ag79
aS'0.38'
p452
aaaa(lp453
VB0WJM4_CULQU
p454
aVB0WJM4
p455
aVCulex quinquefasciatus
p456
aI7176
aS'470'
p457
aS'1.26e-158'
p458
aS'74'
p459
aS'55'
p460
a(lp461
(lp462
g16
ag17
aS'0.95'
p463
aa(lp464
g20
ag21
aS'0.59'
p465
aa(lp466
g24
ag25
aS'0.59'
p467
aa(lp468
g28
ag29
aS'0.58'
p469
aa(lp470
g36
ag37
aS'0.57'
p471
aa(lp472
g32
ag33
aS'0.57'
p473
aa(lp474
g40
ag41
aS'0.54'
p475
aaaa(lp476
VA1A4J9_BOVIN
p477
aVA1A4J9
p478
aVBos taurus
p479
aI9913
aS'427'
p480
aS'3.07e-141'
p481
aS'53'
p482
aS'75'
p483
a(lp484
(lp485
g16
ag17
aS'0.9'
p486
aa(lp487
VGO:0030544
p488
aVHsp70 protein binding
p489
aS'0.69'
p490
aaaa(lp491
VD2HQ81_AILME
p492
aVD2HQ81
p493
aVAiluropoda melanoleuca
p494
aI9646
aS'424'
p495
aS'8.16e-140'
p496
aS'52'
p497
aS'77'
p498
a(lp499
(lp500
g16
ag17
aS'0.9'
p501
aa(lp502
g488
ag489
aS'0.69'
p503
aaaaaa(lp504
Vseq1
p505
a(lp506
(lp507
VQ06G06_MOUSE
p508
aVQ06G06
p509
aVMus musculus
p510
aI10090
aS'1497'
p511
aS'0.00e+00'
p512
aS'100'
p513
aS'100'
p514
a(lp515
(lp516
VGO:0047498
p517
aVcalcium-dependent phospholipase A2 activity
p518
aS'0.89'
p519
aa(lp520
VGO:0047499
p521
aVcalcium-independent phospholipase A2 activity
p522
aS'0.6'
p523
aa(lp524
VGO:0004622
p525
aVlysophospholipase activity
p526
aS'0.52'
p527
aa(lp528
VGO:0005509
p529
aVcalcium ion binding
p530
aS'0.52'
p531
aa(lp532
VGO:0005544
p533
aVcalcium-dependent phospholipid binding
p534
aS'0.52'
p535
aaaa(lp536
VPA24B_MOUSE
p537
aVP0C871
p538
ag510
aI10090
aS'1496'
p539
aS'0.00e+00'
p540
aS'100'
p541
aS'100'
p542
a(lp543
(lp544
g517
ag518
aS'0.89'
p545
aa(lp546
g521
ag522
aS'0.6'
p547
aa(lp548
g525
ag526
aS'0.52'
p549
aa(lp550
g529
ag530
aS'0.52'
p551
aa(lp552
g533
ag534
aS'0.52'
p553
aaaa(lp554
VD4A1I6_RAT
p555
aVD4A1I6
p556
aVRattus norvegicus
p557
aI10116
aS'1385'
p558
aS'0.00e+00'
p559
aS'94'
p560
aS'98'
p561
a(lp562
(lp563
g517
ag518
aS'0.9'
p564
aa(lp565
g521
ag522
aS'0.42'
p566
aa(lp567
VGO:0017050
p568
aVD-erythro-sphingosine kinase activity
p569
aS'0.32'
p570
aaaa(lp571
VH0VT58_CAVPO
p572
aVH0VT58
p573
aVCavia porcellus
p574
aI10141
aS'1208'
p575
aS'0.00e+00'
p576
aS'82'
p577
aS'98'
p578
a(lp579
(lp580
g517
ag518
aS'0.91'
p581
aa(lp582
VGO:0000987
p583
aVcore promoter proximal region sequence-specific DNA binding
p584
aS'0.42'
p585
aa(lp586
g521
ag522
aS'0.35'
p587
aaaa(lp588
VF1SSW8_PIG
p589
aVF1SSW8
p590
aVSus scrofa
p591
aI9823
aS'1198'
p592
aS'0.00e+00'
p593
aS'81'
p594
aS'100'
p595
a(lp596
(lp597
g517
ag518
aS'0.89'
p598
aa(lp599
g583
ag584
aS'0.41'
p600
aa(lp601
g521
ag522
aS'0.36'
p602
aaaa(lp603
VG7MWY0_MACMU
p604
aVG7MWY0
p605
aVMacaca mulatta
p606
aI9544
aS'1185'
p607
aS'0.00e+00'
p608
aS'82'
p609
aS'98'
p610
a(lp611
(lp612
g517
ag518
aS'0.9'
p613
aa(lp614
g521
ag522
aS'0.43'
p615
aa(lp616
g583
ag584
aS'0.41'
p617
aaaa(lp618
VPA24B_HUMAN
p619
aVP0C869
p620
aVHomo sapiens
p621
aI9606
aS'1184'
p622
aS'0.00e+00'
p623
aS'82'
p624
aS'98'
p625
a(lp626
(lp627
g517
ag518
aS'0.93'
p628
aa(lp629
g521
ag522
aS'0.39'
p630
aaaa(lp631
VF1PC31_CANFA
p632
aVF1PC31
p633
aVCanis lupus familiaris
p634
aI9615
aS'1182'
p635
aS'0.00e+00'
p636
aS'81'
p637
aS'98'
p638
a(lp639
(lp640
g517
ag518
aS'0.89'
p641
aa(lp642
g583
ag584
aS'0.41'
p643
aa(lp644
g521
ag522
aS'0.34'
p645
aaaa(lp646
VG7PAZ3_MACFA
p647
aVG7PAZ3
p648
aVMacaca fascicularis
p649
aI9541
aS'1182'
p650
aS'0.00e+00'
p651
aS'82'
p652
aS'98'
p653
a(lp654
(lp655
g517
ag518
aS'0.91'
p656
aa(lp657
g583
ag584
aS'0.42'
p658
aa(lp659
g521
ag522
aS'0.38'
p660
aa(lp661
VGO:0033746
p662
aVhistone demethylase activity (H3-R2 specific)
p663
aS'0.33'
p664
aa(lp665
g36
ag37
aS'0.32'
p666
aa(lp667
VGO:0033749
p668
aVhistone demethylase activity (H4-R3 specific)
p669
aS'0.32'
p670
aaaa(lp671
VE1BC49_BOVIN
p672
aVE1BC49
p673
ag479
aI9913
aS'1160'
p674
aS'0.00e+00'
p675
aS'81'
p676
aS'100'
p677
a(lp678
(lp679
g517
ag518
aS'0.93'
p680
aa(lp681
g521
ag522
aS'0.36'
p682
aaaa(lp683
VD2GW80_AILME
p684
aVD2GW80
p685
ag494
aI9646
aS'1149'
p686
aS'0.00e+00'
p687
aS'81'
p688
aS'98'
p689
a(lp690
(lp691
g517
ag518
aS'0.88'
p692
aa(lp693
g583
ag584
aS'0.4'
p694
aa(lp695
g521
ag522
aS'0.39'
p696
aa(lp697
g662
ag663
aS'0.34'
p698
aa(lp699
g36
ag37
aS'0.33'
p700
aa(lp701
VGO:0034647
p702
aVhistone demethylase activity (H3-trimethyl-K4 specific)
p703
aS'0.33'
p704
aa(lp705
g668
ag669
aS'0.33'
p706
aaaaaasS'downloadfile'
p707
S'/data_more/SIFER_webserver/src/sifter_webserver/sifter_web/output/6977370_download.txt'
p708
s.