(dp0
S'result'
p1
(lp2
(lp3
Vseq2
p4
a(lp5
(lp6
VTID_DROME
p7
aVQ27237
p8
aVDrosophila melanogaster
p9
aI7227
aS'1076'
p10
aS'0.00e+00'
p11
aS'100'
p12
aS'100'
p13
a(lp14
(lp15
VGO:0050750
p16
aVlow-density lipoprotein particle receptor binding
p17
aS'0.92'
p18
aa(lp19
VGO:0019901
p20
aVprotein kinase binding
p21
aS'0.8'
p22
aa(lp23
VGO:0051059
p24
aVNF-kappaB binding
p25
aS'0.74'
p26
aa(lp27
VGO:0005133
p28
aVinterferon-gamma receptor binding
p29
aS'0.74'
p30
aa(lp31
VGO:0051082
p32
aVunfolded protein binding
p33
aS'0.73'
p34
aa(lp35
VGO:0008270
p36
aVzinc ion binding
p37
aS'0.73'
p38
aa(lp39
VGO:0003756
p40
aVprotein disulfide isomerase activity
p41
aS'0.72'
p42
aaaa(lp43
VTID_DROME
p44
ag8
ag9
aI7227
aS'1073'
p45
aS'0.00e+00'
p46
aS'100'
p47
aS'100'
p48
a(lp49
(lp50
g16
ag17
aS'0.92'
p51
aa(lp52
g20
ag21
aS'0.8'
p53
aa(lp54
g24
ag25
aS'0.74'
p55
aa(lp56
g28
ag29
aS'0.74'
p57
aa(lp58
g32
ag33
aS'0.73'
p59
aa(lp60
g36
ag37
aS'0.73'
p61
aa(lp62
g40
ag41
aS'0.72'
p63
aaaa(lp64
VTID_DROME
p65
ag8
ag9
aI7227
aS'1063'
p66
aS'0.00e+00'
p67
aS'99'
p68
aS'100'
p69
a(lp70
(lp71
g16
ag17
aS'0.92'
p72
aa(lp73
g20
ag21
aS'0.8'
p74
aa(lp75
g24
ag25
aS'0.74'
p76
aa(lp77
g28
ag29
aS'0.74'
p78
aa(lp79
g32
ag33
aS'0.73'
p80
aa(lp81
g36
ag37
aS'0.73'
p82
aa(lp83
g40
ag41
aS'0.72'
p84
aaaa(lp85
VTID_DROME
p86
ag8
ag9
aI7227
aS'1059'
p87
aS'0.00e+00'
p88
aS'99'
p89
aS'100'
p90
a(lp91
(lp92
g16
ag17
aS'0.92'
p93
aa(lp94
g20
ag21
aS'0.8'
p95
aa(lp96
g24
ag25
aS'0.74'
p97
aa(lp98
g28
ag29
aS'0.74'
p99
aa(lp100
g32
ag33
aS'0.73'
p101
aa(lp102
g36
ag37
aS'0.73'
p103
aa(lp104
g40
ag41
aS'0.72'
p105
aaaa(lp106
VTID_DROME
p107
ag8
ag9
aI7227
aS'932'
p108
aS'0.00e+00'
p109
aS'100'
p110
aS'86'
p111
a(lp112
(lp113
g16
ag17
aS'0.92'
p114
aa(lp115
g20
ag21
aS'0.8'
p116
aa(lp117
g24
ag25
aS'0.74'
p118
aa(lp119
g28
ag29
aS'0.74'
p120
aa(lp121
g32
ag33
aS'0.73'
p122
aa(lp123
g36
ag37
aS'0.73'
p124
aa(lp125
g40
ag41
aS'0.72'
p126
aaaa(lp127
VTID_DROME
p128
ag8
ag9
aI7227
aS'929'
p129
aS'0.00e+00'
p130
aS'99'
p131
aS'86'
p132
a(lp133
(lp134
g16
ag17
aS'0.92'
p135
aa(lp136
g20
ag21
aS'0.8'
p137
aa(lp138
g24
ag25
aS'0.74'
p139
aa(lp140
g28
ag29
aS'0.74'
p141
aa(lp142
g32
ag33
aS'0.73'
p143
aa(lp144
g36
ag37
aS'0.73'
p145
aa(lp146
g40
ag41
aS'0.72'
p147
aaaa(lp148
VQ7KVH7_DROME
p149
aVQ7KVH7
p150
ag9
aI7227
aS'860'
p151
aS'0.00e+00'
p152
aS'99'
p153
aS'85'
p154
a(lp155
(lp156
g16
ag17
aS'0.91'
p157
aa(lp158
g20
ag21
aS'0.81'
p159
aa(lp160
g24
ag25
aS'0.75'
p161
aa(lp162
g28
ag29
aS'0.75'
p163
aa(lp164
g32
ag33
aS'0.74'
p165
aa(lp166
g36
ag37
aS'0.74'
p167
aa(lp168
g40
ag41
aS'0.73'
p169
aaaa(lp170
VD6W4V2_DROME
p171
aVD6W4V2
p172
ag9
aI7227
aS'855'
p173
aS'0.00e+00'
p174
aS'99'
p175
aS'85'
p176
a(lp177
(lp178
g16
ag17
aS'0.92'
p179
aa(lp180
g20
ag21
aS'0.5'
p181
aa(lp182
VGO:0042393
p183
aVhistone binding
p184
aS'0.41'
p185
aaaa(lp186
VB4QAY0_DROSI
p187
aVB4QAY0
p188
aVDrosophila simulans
p189
aI7240
aS'850'
p190
aS'0.00e+00'
p191
aS'97'
p192
aS'87'
p193
a(lp194
(lp195
g16
ag17
aS'0.91'
p196
aa(lp197
g20
ag21
aS'0.84'
p198
aa(lp199
g24
ag25
aS'0.8'
p200
aa(lp201
g32
ag33
aS'0.8'
p202
aa(lp203
g28
ag29
aS'0.8'
p204
aa(lp205
g36
ag37
aS'0.8'
p206
aa(lp207
g40
ag41
aS'0.79'
p208
aaaa(lp209
VB4P9R9_DROYA
p210
aVB4P9R9
p211
aVDrosophila yakuba
p212
aI7245
aS'845'
p213
aS'0.00e+00'
p214
aS'96'
p215
aS'87'
p216
a(lp217
(lp218
g16
ag17
aS'0.92'
p219
aa(lp220
g20
ag21
aS'0.59'
p221
aaaa(lp222
VB3NPR2_DROER
p223
aVB3NPR2
p224
aVDrosophila erecta
p225
aI7220
aS'837'
p226
aS'0.00e+00'
p227
aS'95'
p228
aS'87'
p229
a(lp230
(lp231
g16
ag17
aS'0.92'
p232
aa(lp233
g20
ag21
aS'0.59'
p234
aaaa(lp235
VB4I8S2_DROSE
p236
aVB4I8S2
p237
aVDrosophila sechellia
p238
aI7238
aS'770'
p239
aS'0.00e+00'
p240
aS'86'
p241
aS'87'
p242
a(lp243
(lp244
g16
ag17
aS'0.91'
p245
aa(lp246
g20
ag21
aS'0.81'
p247
aa(lp248
g28
ag29
aS'0.75'
p249
aa(lp250
g24
ag25
aS'0.75'
p251
aa(lp252
g36
ag37
aS'0.75'
p253
aa(lp254
g32
ag33
aS'0.75'
p255
aa(lp256
g40
ag41
aS'0.73'
p257
aaaa(lp258
VB3MFJ4_DROAN
p259
aVB3MFJ4
p260
aVDrosophila ananassae
p261
aI7217
aS'748'
p262
aS'0.00e+00'
p263
aS'85'
p264
aS'85'
p265
a(lp266
(lp267
g16
ag17
aS'0.92'
p268
aa(lp269
g20
ag21
aS'0.55'
p270
aaaa(lp271
VTID_DROVI
p272
aVQ24331
p273
aVDrosophila virilis
p274
aI7244
aS'717'
p275
aS'0.00e+00'
p276
aS'72'
p277
aS'100'
p278
a(lp279
(lp280
g16
ag17
aS'0.92'
p281
aa(lp282
g20
ag21
aS'0.64'
p283
aa(lp284
g24
ag25
aS'0.49'
p285
aa(lp286
g28
ag29
aS'0.49'
p287
aaaa(lp288
VB4GHT7_DROPE
p289
aVB4GHT7
p290
aVDrosophila persimilis
p291
aI7234
aS'714'
p292
aS'0.00e+00'
p293
aS'73'
p294
aS'100'
p295
a(lp296
(lp297
g16
ag17
aS'0.92'
p298
aa(lp299
g20
ag21
aS'0.59'
p300
aaaa(lp301
VB5E1J0_DROPS
p302
aVB5E1J0
p303
aVDrosophila pseudoobscura pseudoobscura
p304
aI46245
aS'712'
p305
aS'0.00e+00'
p306
aS'73'
p307
aS'100'
p308
a(lp309
(lp310
g16
ag17
aS'0.92'
p311
aa(lp312
g20
ag21
aS'0.59'
p313
aaaa(lp314
VB4J871_DROGR
p315
aVB4J871
p316
aVDrosophila grimshawi
p317
aI7222
aS'701'
p318
aS'0.00e+00'
p319
aS'77'
p320
aS'85'
p321
a(lp322
(lp323
g16
ag17
aS'0.92'
p324
aa(lp325
g20
ag21
aS'0.56'
p326
aaaa(lp327
VB4KQ15_DROMO
p328
aVB4KQ15
p329
aVDrosophila mojavensis
p330
aI7230
aS'699'
p331
aS'0.00e+00'
p332
aS'75'
p333
aS'85'
p334
a(lp335
(lp336
g16
ag17
aS'0.92'
p337
aa(lp338
g20
ag21
aS'0.56'
p339
aaaa(lp340
VB4NML0_DROWI
p341
aVB4NML0
p342
aVDrosophila willistoni
p343
aI7260
aS'696'
p344
aS'0.00e+00'
p345
aS'78'
p346
aS'85'
p347
a(lp348
(lp349
g16
ag17
aS'0.92'
p350
aa(lp351
g20
ag21
aS'0.51'
p352
aa(lp353
g183
ag184
aS'0.39'
p354
aaaa(lp355
VB4MDV9_DROVI
p356
aVB4MDV9
p357
ag274
aI7244
aS'687'
p358
aS'0.00e+00'
p359
aS'77'
p360
aS'85'
p361
a(lp362
(lp363
g16
ag17
aS'0.92'
p364
aa(lp365
g20
ag21
aS'0.64'
p366
aa(lp367
g24
ag25
aS'0.49'
p368
aa(lp369
g28
ag29
aS'0.49'
p370
aaaa(lp371
VQ16R72_AEDAE
p372
aVQ16R72
p373
aVAedes aegypti
p374
aI7159
aS'615'
p375
aS'0.00e+00'
p376
aS'73'
p377
aS'75'
p378
a(lp379
(lp380
g16
ag17
aS'0.92'
p381
aa(lp382
g20
ag21
aS'0.65'
p383
aa(lp384
g24
ag25
aS'0.5'
p385
aa(lp386
g28
ag29
aS'0.5'
p387
aa(lp388
g32
ag33
aS'0.49'
p389
aa(lp390
g36
ag37
aS'0.49'
p391
aaaa(lp392
VE9J573_SOLIN
p393
aVE9J573
p394
aVSolenopsis invicta
p395
aI13686
aS'565'
p396
aS'0.00e+00'
p397
aS'63'
p398
aS'83'
p399
a(lp400
(lp401
g16
ag17
aS'0.92'
p402
aa(lp403
g20
ag21
aS'0.5'
p404
aa(lp405
g183
ag184
aS'0.39'
p406
aaaa(lp407
VE2ADT8_CAMFO
p408
aVE2ADT8
p409
aVCamponotus floridanus
p410
aI104421
aS'560'
p411
aS'0.00e+00'
p412
aS'61'
p413
aS'84'
p414
a(lp415
(lp416
g16
ag17
aS'0.92'
p417
aa(lp418
g20
ag21
aS'0.5'
p419
aa(lp420
g183
ag184
aS'0.39'
p421
aaaa(lp422
VE2BN18_HARSA
p423
aVE2BN18
p424
aVHarpegnathos saltator
p425
aI610380
aS'555'
p426
aS'0.00e+00'
p427
aS'65'
p428
aS'74'
p429
a(lp430
(lp431
g16
ag17
aS'0.92'
p432
aa(lp433
g20
ag21
aS'0.5'
p434
aa(lp435
g183
ag184
aS'0.39'
p436
aaaa(lp437
VF4WP97_ACREC
p438
aVF4WP97
p439
aVAcromyrmex echinatior
p440
aI103372
aS'553'
p441
aS'0.00e+00'
p442
aS'65'
p443
aS'74'
p444
a(lp445
(lp446
g16
ag17
aS'0.92'
p447
aa(lp448
g20
ag21
aS'0.5'
p449
aa(lp450
g183
ag184
aS'0.4'
p451
aaaa(lp452
VA7UR98_ANOGA
p453
aVA7UR98
p454
aVAnopheles gambiae
p455
aI7165
aS'543'
p456
aS'0.00e+00'
p457
aS'67'
p458
aS'78'
p459
a(lp460
(lp461
g16
ag17
aS'0.92'
p462
aa(lp463
g20
ag21
aS'0.69'
p464
aa(lp465
g24
ag25
aS'0.57'
p466
aa(lp467
g28
ag29
aS'0.57'
p468
aa(lp469
g32
ag33
aS'0.56'
p470
aa(lp471
g36
ag37
aS'0.55'
p472
aa(lp473
g40
ag41
aS'0.52'
p474
aaaa(lp475
VE9H747_DAPPU
p476
aVE9H747
p477
aVDaphnia pulex
p478
aI6669
aS'539'
p479
aS'0.00e+00'
p480
aS'60'
p481
aS'80'
p482
a(lp483
(lp484
g16
ag17
aS'0.92'
p485
aa(lp486
g20
ag21
aS'0.47'
p487
aa(lp488
g183
ag184
aS'0.38'
p489
aaaa(lp490
VG6DRS5_DANPL
p491
aVG6DRS5
p492
aVDanaus plexippus
p493
aI13037
aS'540'
p494
aS'0.00e+00'
p495
aS'61'
p496
aS'82'
p497
a(lp498
(lp499
g16
ag17
aS'0.92'
p500
aa(lp501
g20
ag21
aS'0.51'
p502
aaaa(lp503
VQ7QJL2_ANOGA
p504
aVQ7QJL2
p505
ag455
aI7165
aS'538'
p506
aS'0.00e+00'
p507
aS'68'
p508
aS'77'
p509
a(lp510
(lp511
g16
ag17
aS'0.92'
p512
aa(lp513
g20
ag21
aS'0.57'
p514
aaaa(lp515
VE0VXY1_PEDHC
p516
aVE0VXY1
p517
aVPediculus humanus corporis
p518
aI121224
aS'528'
p519
aS'0.00e+00'
p520
aS'64'
p521
aS'75'
p522
a(lp523
(lp524
g16
ag17
aS'0.92'
p525
aa(lp526
g20
ag21
aS'0.5'
p527
aa(lp528
g183
ag184
aS'0.38'
p529
aaaa(lp530
VH6VTQ4_BOMMO
p531
aVH6VTQ4
p532
aVBombyx mori
p533
aI7091
aS'518'
p534
aS'1.25e-175'
p535
aS'65'
p536
aS'77'
p537
a(lp538
(lp539
g16
ag17
aS'0.92'
p540
aa(lp541
g20
ag21
aS'0.57'
p542
aaaa(lp543
VD1ZZJ9_TRICA
p544
aVD1ZZJ9
p545
aVTribolium castaneum
p546
aI7070
aS'504'
p547
aS'2.42e-171'
p548
aS'62'
p549
aS'79'
p550
a(lp551
(lp552
g16
ag17
aS'0.92'
p553
aa(lp554
g20
ag21
aS'0.5'
p555
aa(lp556
g183
ag184
aS'0.38'
p557
aaaa(lp558
VB0WJM4_CULQU
p559
aVB0WJM4
p560
aVCulex quinquefasciatus
p561
aI7176
aS'470'
p562
aS'1.26e-158'
p563
aS'74'
p564
aS'55'
p565
a(lp566
(lp567
g16
ag17
aS'0.95'
p568
aa(lp569
g20
ag21
aS'0.59'
p570
aa(lp571
g24
ag25
aS'0.59'
p572
aa(lp573
g28
ag29
aS'0.58'
p574
aa(lp575
g36
ag37
aS'0.57'
p576
aa(lp577
g32
ag33
aS'0.57'
p578
aa(lp579
g40
ag41
aS'0.54'
p580
aaaa(lp581
VA1A4J9_BOVIN
p582
aVA1A4J9
p583
aVBos taurus
p584
aI9913
aS'427'
p585
aS'3.07e-141'
p586
aS'53'
p587
aS'75'
p588
a(lp589
(lp590
g16
ag17
aS'0.9'
p591
aa(lp592
VGO:0030544
p593
aVHsp70 protein binding
p594
aS'0.69'
p595
aaaa(lp596
VD2HQ81_AILME
p597
aVD2HQ81
p598
aVAiluropoda melanoleuca
p599
aI9646
aS'424'
p600
aS'8.16e-140'
p601
aS'52'
p602
aS'77'
p603
a(lp604
(lp605
g16
ag17
aS'0.9'
p606
aa(lp607
g593
ag594
aS'0.69'
p608
aaaaaa(lp609
Vseq1
p610
a(lp611
(lp612
g7
ag8
ag9
aI7227
aS'1076'
p613
aS'0.00e+00'
p614
aS'100'
p615
aS'100'
p616
a(lp617
(lp618
g16
ag17
aS'0.92'
p619
aa(lp620
g20
ag21
aS'0.8'
p621
aa(lp622
g24
ag25
aS'0.74'
p623
aa(lp624
g28
ag29
aS'0.74'
p625
aa(lp626
g32
ag33
aS'0.73'
p627
aa(lp628
g36
ag37
aS'0.73'
p629
aa(lp630
g40
ag41
aS'0.72'
p631
aaaa(lp632
g44
ag8
ag9
aI7227
aS'1073'
p633
aS'0.00e+00'
p634
aS'100'
p635
aS'100'
p636
a(lp637
(lp638
g16
ag17
aS'0.92'
p639
aa(lp640
g20
ag21
aS'0.8'
p641
aa(lp642
g24
ag25
aS'0.74'
p643
aa(lp644
g28
ag29
aS'0.74'
p645
aa(lp646
g32
ag33
aS'0.73'
p647
aa(lp648
g36
ag37
aS'0.73'
p649
aa(lp650
g40
ag41
aS'0.72'
p651
aaaa(lp652
g65
ag8
ag9
aI7227
aS'1063'
p653
aS'0.00e+00'
p654
aS'99'
p655
aS'100'
p656
a(lp657
(lp658
g16
ag17
aS'0.92'
p659
aa(lp660
g20
ag21
aS'0.8'
p661
aa(lp662
g24
ag25
aS'0.74'
p663
aa(lp664
g28
ag29
aS'0.74'
p665
aa(lp666
g32
ag33
aS'0.73'
p667
aa(lp668
g36
ag37
aS'0.73'
p669
aa(lp670
g40
ag41
aS'0.72'
p671
aaaa(lp672
g86
ag8
ag9
aI7227
aS'1059'
p673
aS'0.00e+00'
p674
aS'99'
p675
aS'100'
p676
a(lp677
(lp678
g16
ag17
aS'0.92'
p679
aa(lp680
g20
ag21
aS'0.8'
p681
aa(lp682
g24
ag25
aS'0.74'
p683
aa(lp684
g28
ag29
aS'0.74'
p685
aa(lp686
g32
ag33
aS'0.73'
p687
aa(lp688
g36
ag37
aS'0.73'
p689
aa(lp690
g40
ag41
aS'0.72'
p691
aaaa(lp692
g107
ag8
ag9
aI7227
aS'932'
p693
aS'0.00e+00'
p694
aS'100'
p695
aS'86'
p696
a(lp697
(lp698
g16
ag17
aS'0.92'
p699
aa(lp700
g20
ag21
aS'0.8'
p701
aa(lp702
g24
ag25
aS'0.74'
p703
aa(lp704
g28
ag29
aS'0.74'
p705
aa(lp706
g32
ag33
aS'0.73'
p707
aa(lp708
g36
ag37
aS'0.73'
p709
aa(lp710
g40
ag41
aS'0.72'
p711
aaaa(lp712
g128
ag8
ag9
aI7227
aS'929'
p713
aS'0.00e+00'
p714
aS'99'
p715
aS'86'
p716
a(lp717
(lp718
g16
ag17
aS'0.92'
p719
aa(lp720
g20
ag21
aS'0.8'
p721
aa(lp722
g24
ag25
aS'0.74'
p723
aa(lp724
g28
ag29
aS'0.74'
p725
aa(lp726
g32
ag33
aS'0.73'
p727
aa(lp728
g36
ag37
aS'0.73'
p729
aa(lp730
g40
ag41
aS'0.72'
p731
aaaa(lp732
g149
ag150
ag9
aI7227
aS'860'
p733
aS'0.00e+00'
p734
aS'99'
p735
aS'85'
p736
a(lp737
(lp738
g16
ag17
aS'0.91'
p739
aa(lp740
g20
ag21
aS'0.81'
p741
aa(lp742
g24
ag25
aS'0.75'
p743
aa(lp744
g28
ag29
aS'0.75'
p745
aa(lp746
g32
ag33
aS'0.74'
p747
aa(lp748
g36
ag37
aS'0.74'
p749
aa(lp750
g40
ag41
aS'0.73'
p751
aaaa(lp752
g171
ag172
ag9
aI7227
aS'855'
p753
aS'0.00e+00'
p754
aS'99'
p755
aS'85'
p756
a(lp757
(lp758
g16
ag17
aS'0.92'
p759
aa(lp760
g20
ag21
aS'0.5'
p761
aa(lp762
g183
ag184
aS'0.41'
p763
aaaa(lp764
g187
ag188
ag189
aI7240
aS'850'
p765
aS'0.00e+00'
p766
aS'97'
p767
aS'87'
p768
a(lp769
(lp770
g16
ag17
aS'0.91'
p771
aa(lp772
g20
ag21
aS'0.84'
p773
aa(lp774
g24
ag25
aS'0.8'
p775
aa(lp776
g32
ag33
aS'0.8'
p777
aa(lp778
g28
ag29
aS'0.8'
p779
aa(lp780
g36
ag37
aS'0.8'
p781
aa(lp782
g40
ag41
aS'0.79'
p783
aaaa(lp784
g210
ag211
ag212
aI7245
aS'845'
p785
aS'0.00e+00'
p786
aS'96'
p787
aS'87'
p788
a(lp789
(lp790
g16
ag17
aS'0.92'
p791
aa(lp792
g20
ag21
aS'0.59'
p793
aaaa(lp794
g223
ag224
ag225
aI7220
aS'837'
p795
aS'0.00e+00'
p796
aS'95'
p797
aS'87'
p798
a(lp799
(lp800
g16
ag17
aS'0.92'
p801
aa(lp802
g20
ag21
aS'0.59'
p803
aaaa(lp804
g236
ag237
ag238
aI7238
aS'770'
p805
aS'0.00e+00'
p806
aS'86'
p807
aS'87'
p808
a(lp809
(lp810
g16
ag17
aS'0.91'
p811
aa(lp812
g20
ag21
aS'0.81'
p813
aa(lp814
g28
ag29
aS'0.75'
p815
aa(lp816
g24
ag25
aS'0.75'
p817
aa(lp818
g36
ag37
aS'0.75'
p819
aa(lp820
g32
ag33
aS'0.75'
p821
aa(lp822
g40
ag41
aS'0.73'
p823
aaaa(lp824
g259
ag260
ag261
aI7217
aS'748'
p825
aS'0.00e+00'
p826
aS'85'
p827
aS'85'
p828
a(lp829
(lp830
g16
ag17
aS'0.92'
p831
aa(lp832
g20
ag21
aS'0.55'
p833
aaaa(lp834
g272
ag273
ag274
aI7244
aS'717'
p835
aS'0.00e+00'
p836
aS'72'
p837
aS'100'
p838
a(lp839
(lp840
g16
ag17
aS'0.92'
p841
aa(lp842
g20
ag21
aS'0.64'
p843
aa(lp844
g24
ag25
aS'0.49'
p845
aa(lp846
g28
ag29
aS'0.49'
p847
aaaa(lp848
g289
ag290
ag291
aI7234
aS'714'
p849
aS'0.00e+00'
p850
aS'73'
p851
aS'100'
p852
a(lp853
(lp854
g16
ag17
aS'0.92'
p855
aa(lp856
g20
ag21
aS'0.59'
p857
aaaa(lp858
g302
ag303
ag304
aI46245
aS'712'
p859
aS'0.00e+00'
p860
aS'73'
p861
aS'100'
p862
a(lp863
(lp864
g16
ag17
aS'0.92'
p865
aa(lp866
g20
ag21
aS'0.59'
p867
aaaa(lp868
g315
ag316
ag317
aI7222
aS'701'
p869
aS'0.00e+00'
p870
aS'77'
p871
aS'85'
p872
a(lp873
(lp874
g16
ag17
aS'0.92'
p875
aa(lp876
g20
ag21
aS'0.56'
p877
aaaa(lp878
g328
ag329
ag330
aI7230
aS'699'
p879
aS'0.00e+00'
p880
aS'75'
p881
aS'85'
p882
a(lp883
(lp884
g16
ag17
aS'0.92'
p885
aa(lp886
g20
ag21
aS'0.56'
p887
aaaa(lp888
g341
ag342
ag343
aI7260
aS'696'
p889
aS'0.00e+00'
p890
aS'78'
p891
aS'85'
p892
a(lp893
(lp894
g16
ag17
aS'0.92'
p895
aa(lp896
g20
ag21
aS'0.51'
p897
aa(lp898
g183
ag184
aS'0.39'
p899
aaaa(lp900
g356
ag357
ag274
aI7244
aS'687'
p901
aS'0.00e+00'
p902
aS'77'
p903
aS'85'
p904
a(lp905
(lp906
g16
ag17
aS'0.92'
p907
aa(lp908
g20
ag21
aS'0.64'
p909
aa(lp910
g24
ag25
aS'0.49'
p911
aa(lp912
g28
ag29
aS'0.49'
p913
aaaa(lp914
g372
ag373
ag374
aI7159
aS'615'
p915
aS'0.00e+00'
p916
aS'73'
p917
aS'75'
p918
a(lp919
(lp920
g16
ag17
aS'0.92'
p921
aa(lp922
g20
ag21
aS'0.65'
p923
aa(lp924
g24
ag25
aS'0.5'
p925
aa(lp926
g28
ag29
aS'0.5'
p927
aa(lp928
g32
ag33
aS'0.49'
p929
aa(lp930
g36
ag37
aS'0.49'
p931
aaaa(lp932
g393
ag394
ag395
aI13686
aS'565'
p933
aS'0.00e+00'
p934
aS'63'
p935
aS'83'
p936
a(lp937
(lp938
g16
ag17
aS'0.92'
p939
aa(lp940
g20
ag21
aS'0.5'
p941
aa(lp942
g183
ag184
aS'0.39'
p943
aaaa(lp944
g408
ag409
ag410
aI104421
aS'560'
p945
aS'0.00e+00'
p946
aS'61'
p947
aS'84'
p948
a(lp949
(lp950
g16
ag17
aS'0.92'
p951
aa(lp952
g20
ag21
aS'0.5'
p953
aa(lp954
g183
ag184
aS'0.39'
p955
aaaa(lp956
g423
ag424
ag425
aI610380
aS'555'
p957
aS'0.00e+00'
p958
aS'65'
p959
aS'74'
p960
a(lp961
(lp962
g16
ag17
aS'0.92'
p963
aa(lp964
g20
ag21
aS'0.5'
p965
aa(lp966
g183
ag184
aS'0.39'
p967
aaaa(lp968
g438
ag439
ag440
aI103372
aS'553'
p969
aS'0.00e+00'
p970
aS'65'
p971
aS'74'
p972
a(lp973
(lp974
g16
ag17
aS'0.92'
p975
aa(lp976
g20
ag21
aS'0.5'
p977
aa(lp978
g183
ag184
aS'0.4'
p979
aaaa(lp980
g453
ag454
ag455
aI7165
aS'543'
p981
aS'0.00e+00'
p982
aS'67'
p983
aS'78'
p984
a(lp985
(lp986
g16
ag17
aS'0.92'
p987
aa(lp988
g20
ag21
aS'0.69'
p989
aa(lp990
g24
ag25
aS'0.57'
p991
aa(lp992
g28
ag29
aS'0.57'
p993
aa(lp994
g32
ag33
aS'0.56'
p995
aa(lp996
g36
ag37
aS'0.55'
p997
aa(lp998
g40
ag41
aS'0.52'
p999
aaaa(lp1000
g476
ag477
ag478
aI6669
aS'539'
p1001
aS'0.00e+00'
p1002
aS'60'
p1003
aS'80'
p1004
a(lp1005
(lp1006
g16
ag17
aS'0.92'
p1007
aa(lp1008
g20
ag21
aS'0.47'
p1009
aa(lp1010
g183
ag184
aS'0.38'
p1011
aaaa(lp1012
g491
ag492
ag493
aI13037
aS'540'
p1013
aS'0.00e+00'
p1014
aS'61'
p1015
aS'82'
p1016
a(lp1017
(lp1018
g16
ag17
aS'0.92'
p1019
aa(lp1020
g20
ag21
aS'0.51'
p1021
aaaa(lp1022
g504
ag505
ag455
aI7165
aS'538'
p1023
aS'0.00e+00'
p1024
aS'68'
p1025
aS'77'
p1026
a(lp1027
(lp1028
g16
ag17
aS'0.92'
p1029
aa(lp1030
g20
ag21
aS'0.57'
p1031
aaaa(lp1032
g516
ag517
ag518
aI121224
aS'528'
p1033
aS'0.00e+00'
p1034
aS'64'
p1035
aS'75'
p1036
a(lp1037
(lp1038
g16
ag17
aS'0.92'
p1039
aa(lp1040
g20
ag21
aS'0.5'
p1041
aa(lp1042
g183
ag184
aS'0.38'
p1043
aaaa(lp1044
g531
ag532
ag533
aI7091
aS'518'
p1045
aS'1.25e-175'
p1046
aS'65'
p1047
aS'77'
p1048
a(lp1049
(lp1050
g16
ag17
aS'0.92'
p1051
aa(lp1052
g20
ag21
aS'0.57'
p1053
aaaa(lp1054
g544
ag545
ag546
aI7070
aS'504'
p1055
aS'2.42e-171'
p1056
aS'62'
p1057
aS'79'
p1058
a(lp1059
(lp1060
g16
ag17
aS'0.92'
p1061
aa(lp1062
g20
ag21
aS'0.5'
p1063
aa(lp1064
g183
ag184
aS'0.38'
p1065
aaaa(lp1066
g559
ag560
ag561
aI7176
aS'470'
p1067
aS'1.26e-158'
p1068
aS'74'
p1069
aS'55'
p1070
a(lp1071
(lp1072
g16
ag17
aS'0.95'
p1073
aa(lp1074
g20
ag21
aS'0.59'
p1075
aa(lp1076
g24
ag25
aS'0.59'
p1077
aa(lp1078
g28
ag29
aS'0.58'
p1079
aa(lp1080
g36
ag37
aS'0.57'
p1081
aa(lp1082
g32
ag33
aS'0.57'
p1083
aa(lp1084
g40
ag41
aS'0.54'
p1085
aaaa(lp1086
g582
ag583
ag584
aI9913
aS'427'
p1087
aS'3.07e-141'
p1088
aS'53'
p1089
aS'75'
p1090
a(lp1091
(lp1092
g16
ag17
aS'0.9'
p1093
aa(lp1094
g593
ag594
aS'0.69'
p1095
aaaa(lp1096
g597
ag598
ag599
aI9646
aS'424'
p1097
aS'8.16e-140'
p1098
aS'52'
p1099
aS'77'
p1100
a(lp1101
(lp1102
g16
ag17
aS'0.9'
p1103
aa(lp1104
g593
ag594
aS'0.69'
p1105
aaaaaas.