(lp0
(dp1
VF1RN62_PIG
p2
(dp3
I3200
F0.05
sI3297
F0.76
sI1858
F0.01
sI443
F0.01
sI8644
F0.01
sI4871
F0.01
sI2151
F0.01
sI3101
F0.74
sI4814
F0.01
sI3165
F0.05
sI2160
F0.01
sI2161
F0.01
sI9970
F0.01
sI3094
F0.05
sI6551
F0.01
sI5112
F0.01
sI7055
F0.01
sI7037
F0.01
sI1808
F0.01
sI3295
F0.05
ssVA8WRK7_CAEBR
p4
(dp5
I3200
F0.13
sI3297
F0.8
sI3101
F0.15
sI3094
F0.13
sI3165
F0.13
sI3295
F0.13
ssVH3J4I4_STRPU
p6
(dp7
I3200
F0.2
sI3297
F0.78
sI1092
F0.04
sI3101
F0.29
sI2008
F0.04
sI2197
F0.04
sI3094
F0.2
sI2168
F0.04
sI475
F0.04
sI3165
F0.2
sI1790
F0.04
sI3295
F0.2
ssVQ8K4K9_RAT
p8
(dp9
I3200
F0.02
sI3297
F0.74
sI3295
F0.06
sI7019
F0.01
sI3101
F0.7
sI9934
F0.01
sI1999
F0.03
sI5650
F0.01
sI4147
F0.01
sI436
F0.01
sI2222
F0.01
sI3094
F0.06
sI4852
F0.01
sI1503
F0.01
sI3165
F0.02
sI9877
F0.01
ssVH3IQD9_STRPU
p10
(dp11
I3200
F0.18
sI4613
F0.09
sI6927
F0.01
sI1808
F0.04
sI2068
F0.01
sI2197
F0.03
sI3094
F0.18
sI6551
F0.04
sI8644
F0.04
sI3101
F0.57
sI1669
F0.01
sI7055
F0.04
sI935
F0.01
sI1846
F0.01
sI443
F0.04
sI445
F0.01
sI4799
F0.01
sI1092
F0.02
sI4805
F0.01
sI5832
F0.01
sI1997
F0.01
sI2130
F0.01
sI467
F0.01
sI2004
F0.01
sI982
F0.01
sI2008
F0.02
sI475
F0.02
sI3165
F0.18
sI3295
F0.18
sI3297
F0.82
sI9446
F0.01
sI2151
F0.04
sI1512
F0.01
sI1514
F0.01
sI2161
F0.04
sI5112
F0.04
sI2172
F0.01
sI7037
F0.04
sI1790
F0.02
ssVG1TI46_RABIT
p12
(dp13
I3200
F0.08
sI3297
F0.8
sI3101
F0.18
sI1999
F0.01
sI5650
F0.01
sI436
F0.01
sI3094
F0.08
sI3165
F0.08
sI5118
F0.01
sI3295
F0.08
ssVSO4A1_MOUSE
p14
(dp15
I3200
F0.12
sI4613
F0.07
sI7055
F0.03
sI1808
F0.03
sI3094
F0.19
sI6551
F0.03
sI3101
F0.68
sI1846
F0.01
sI443
F0.03
sI445
F0.01
sI4799
F0.01
sI8644
F0.03
sI4805
F0.01
sI1997
F0.01
sI467
F0.01
sI982
F0.01
sI6927
F0.01
sI3165
F0.12
sI3295
F0.13
sI3297
F0.72
sI2151
F0.03
sI1512
F0.01
sI1514
F0.01
sI2161
F0.03
sI5112
F0.03
sI7037
F0.03
ssVG3UKL3_LOXAF
p16
(dp17
I3200
F0.13
sI4613
F0.01
sI6927
F0.01
sI1808
F0.06
sI5650
F0.01
sI2068
F0.01
sI2197
F0.01
sI3094
F0.13
sI6551
F0.06
sI3101
F0.21
sI1669
F0.01
sI935
F0.01
sI4147
F0.01
sI436
F0.01
sI1846
F0.01
sI443
F0.06
sI445
F0.01
sI4799
F0.01
sI8644
F0.06
sI4805
F0.01
sI5832
F0.01
sI1997
F0.02
sI2130
F0.01
sI467
F0.02
sI2004
F0.01
sI982
F0.02
sI7055
F0.06
sI3165
F0.13
sI3295
F0.13
sI3297
F0.88
sI9446
F0.01
sI2151
F0.06
sI1512
F0.02
sI1514
F0.01
sI2161
F0.06
sI5112
F0.06
sI2172
F0.01
sI7037
F0.06
ssVB7P3S5_IXOSC
p18
(dp19
I3200
F0.44
sI6927
F0.01
sI1808
F0.03
sI2197
F0.06
sI3094
F0.83
sI6551
F0.03
sI8644
F0.03
sI3101
F0.65
sI475
F0.06
sI1846
F0.01
sI443
F0.03
sI445
F0.01
sI4799
F0.01
sI1092
F0.06
sI4805
F0.01
sI1997
F0.01
sI467
F0.01
sI982
F0.01
sI2008
F0.06
sI7055
F0.03
sI3165
F0.44
sI3295
F0.47
sI3297
F0.87
sI2151
F0.03
sI1512
F0.01
sI1514
F0.01
sI2161
F0.03
sI5112
F0.03
sI7037
F0.03
sI1790
F0.06
ssVG2HJC6_PANTR
p20
(dp21
I3200
F0.05
sI7055
F0.05
sI1808
F0.05
sI3094
F0.12
sI6551
F0.05
sI3101
F0.9
sI1846
F0.01
sI443
F0.05
sI445
F0.01
sI4799
F0.01
sI8644
F0.05
sI4805
F0.01
sI1997
F0.01
sI467
F0.01
sI982
F0.01
sI6927
F0.01
sI3165
F0.05
sI3295
F0.05
sI3297
F0.05
sI2151
F0.05
sI1512
F0.01
sI1514
F0.01
sI2161
F0.05
sI5112
F0.05
sI7037
F0.05
ssVF1SLA4_PIG
p22
(dp23
I3200
F0.01
sI3297
F0.01
sI3101
F0.8
sI3094
F0.08
sI3165
F0.01
sI3295
F0.01
ssVC9JHU9_HUMAN
p24
(dp25
I3200
F0.01
sI3297
F0.03
sI3101
F0.01
sI3094
F0.8
sI3165
F0.01
sI3295
F0.08
ssVH2Q5K4_PANTR
p26
(dp27
I3200
F0.05
sI4613
F0.01
sI6927
F0.01
sI1808
F0.04
sI2068
F0.01
sI2197
F0.01
sI3094
F0.9
sI6551
F0.04
sI3101
F0.05
sI1669
F0.01
sI935
F0.01
sI1846
F0.01
sI443
F0.04
sI445
F0.01
sI4799
F0.01
sI8644
F0.04
sI4805
F0.01
sI5832
F0.01
sI1997
F0.02
sI2130
F0.01
sI467
F0.02
sI2004
F0.01
sI982
F0.02
sI7055
F0.04
sI3165
F0.05
sI3295
F0.5
sI3297
F0.05
sI9446
F0.01
sI2151
F0.04
sI1512
F0.02
sI1514
F0.01
sI2161
F0.04
sI5112
F0.04
sI2172
F0.01
sI7037
F0.04
ssVG3QGZ3_GORGO
p28
(dp29
I3200
F0.13
sI4613
F0.01
sI6927
F0.01
sI1808
F0.06
sI5650
F0.01
sI2068
F0.01
sI2197
F0.01
sI3094
F0.13
sI6551
F0.06
sI3101
F0.66
sI1669
F0.01
sI935
F0.01
sI4147
F0.01
sI436
F0.01
sI1846
F0.01
sI443
F0.06
sI445
F0.01
sI4799
F0.01
sI8644
F0.06
sI4805
F0.01
sI5832
F0.01
sI1997
F0.02
sI2130
F0.01
sI467
F0.02
sI2004
F0.01
sI982
F0.02
sI7055
F0.06
sI3165
F0.13
sI3295
F0.13
sI3297
F0.77
sI9446
F0.01
sI2151
F0.06
sI1512
F0.02
sI1514
F0.01
sI2161
F0.06
sI5112
F0.06
sI2172
F0.01
sI7037
F0.06
ssVB4KXF0_DROMO
p30
(dp31
I3200
F0.14
sI4871
F0.01
sI7055
F0.02
sI1808
F0.02
sI913
F0.01
sI3094
F0.14
sI6551
F0.02
sI3101
F0.66
sI7585
F0.01
sI1847
F0.01
sI443
F0.02
sI1858
F0.01
sI8644
F0.02
sI4814
F0.01
sI3165
F0.14
sI3295
F0.14
sI3297
F0.79
sI2151
F0.02
sI2160
F0.01
sI2161
F0.02
sI5112
F0.02
sI2171
F0.01
sI7037
F0.02
ssVH3INQ6_STRPU
p32
(dp33
I3200
F0.24
sI1669
F0.02
sI4801
F0.03
sI5005
F0.02
sI7055
F0.05
sI1808
F0.03
sI2197
F0.04
sI3734
F0.01
sI6551
F0.07
sI1092
F0.04
sI3101
F0.4
sI4001
F0.07
sI5032
F0.06
sI3896
F0.01
sI445
F0.08
sI8641
F0.02
sI4802
F0.04
sI8644
F0.11
sI4805
F0.02
sI5832
F0.02
sI1995
F0.02
sI1997
F0.12
sI2000
F0.02
sI2002
F0.12
sI467
F0.03
sI854
F0.03
sI2008
F0.04
sI475
F0.04
sI3165
F0.24
sI3295
F0.24
sI3297
F0.86
sI2788
F0.02
sI1512
F0.65
sI1515
F0.11
sI496
F0.01
sI2161
F0.04
sI5112
F0.03
sI3094
F0.25
sI2172
F0.02
sI7037
F0.05
sI1790
F0.04
ssVD3YXA8_MOUSE
p34
(dp35
I3200
F0.11
sI7055
F0.04
sI1808
F0.04
sI3094
F0.12
sI6551
F0.04
sI3101
F0.69
sI1846
F0.01
sI443
F0.04
sI445
F0.01
sI4799
F0.01
sI8644
F0.04
sI4805
F0.01
sI1997
F0.01
sI467
F0.01
sI982
F0.01
sI6927
F0.01
sI3165
F0.11
sI3295
F0.11
sI3297
F0.77
sI2151
F0.04
sI1512
F0.01
sI1514
F0.01
sI2161
F0.04
sI5112
F0.04
sI7037
F0.04
ssVH0YGD2_HUMAN
p36
(dp37
I3200
F0.02
sI3297
F0.02
sI3101
F0.02
sI1999
F0.01
sI5650
F0.01
sI436
F0.01
sI3094
F0.66
sI3165
F0.02
sI5118
F0.01
sI3295
F0.62
ssVE1FV67_LOALO
p38
(dp39
I3200
F0.16
sI3297
F0.79
sI3939
F0.01
sI7018
F0.01
sI5646
F0.01
sI3101
F0.3
sI436
F0.01
sI1717
F0.01
sI3094
F0.17
sI5652
F0.01
sI3165
F0.16
sI5118
F0.01
sI3295
F0.16
ssVG7PC00_MACFA
p40
(dp41
I2048
F0.01
sI3200
F0.18
sI4613
F0.01
sI6927
F0.01
sI1808
F0.06
sI2068
F0.01
sI2197
F0.12
sI3094
F0.18
sI6551
F0.06
sI1944
F0.01
sI1092
F0.02
sI3997
F0.02
sI9374
F0.01
sI1669
F0.01
sI935
F0.01
sI808
F0.01
sI7087
F0.06
sI1846
F0.01
sI1466
F0.01
sI443
F0.06
sI445
F0.01
sI4799
F0.01
sI8644
F0.06
sI4805
F0.01
sI5832
F0.01
sI3101
F0.25
sI1997
F0.02
sI2130
F0.01
sI467
F0.02
sI2004
F0.01
sI2133
F0.01
sI982
F0.02
sI2008
F0.02
sI7055
F0.06
sI3165
F0.18
sI3295
F0.18
sI3297
F0.85
sI3940
F0.01
sI2151
F0.06
sI1512
F0.02
sI9449
F0.01
sI1514
F0.01
sI2161
F0.06
sI4094
F0.01
sI3958
F0.01
sI5112
F0.06
sI4985
F0.01
sI2172
F0.01
sI7037
F0.06
sI1790
F0.01
sI6143
F0.01
ssVG5BJ45_HETGA
p42
(dp43
I3200
F0.04
sI9860
F0.01
sI6927
F0.01
sI1808
F0.01
sI2197
F0.01
sI3094
F0.69
sI6551
F0.01
sI5656
F0.01
sI3101
F0.04
sI1717
F0.01
sI1846
F0.01
sI443
F0.01
sI445
F0.01
sI4799
F0.01
sI8644
F0.02
sI4805
F0.01
sI1997
F0.01
sI467
F0.01
sI982
F0.01
sI7055
F0.02
sI3165
F0.05
sI5647
F0.01
sI3295
F0.88
sI3297
F0.04
sI2151
F0.01
sI1512
F0.01
sI1514
F0.01
sI1516
F0.01
sI2161
F0.01
sI5112
F0.01
sI7037
F0.02
ssVH2LI10_ORYLA
p44
(dp45
I3200
F0.06
sI7055
F0.02
sI1808
F0.02
sI5650
F0.01
sI3094
F0.9
sI6551
F0.02
sI3101
F0.06
sI436
F0.01
sI1846
F0.01
sI443
F0.02
sI445
F0.01
sI4799
F0.01
sI8644
F0.02
sI4805
F0.01
sI1997
F0.01
sI467
F0.01
sI982
F0.01
sI6927
F0.01
sI3165
F0.06
sI3295
F0.5
sI3297
F0.06
sI2151
F0.02
sI1512
F0.01
sI1514
F0.01
sI1516
F0.01
sI2161
F0.02
sI5112
F0.02
sI7037
F0.02
sI5118
F0.01
ssVG1KDM6_ANOCA
p46
(dp47
I3200
F0.03
sI7055
F0.02
sI1808
F0.02
sI5650
F0.01
sI3094
F0.04
sI6551
F0.02
sI3101
F0.39
sI436
F0.01
sI1846
F0.01
sI443
F0.02
sI445
F0.01
sI4799
F0.01
sI8644
F0.02
sI4805
F0.01
sI1997
F0.01
sI467
F0.01
sI982
F0.01
sI6927
F0.01
sI3165
F0.03
sI3295
F0.03
sI3297
F0.9
sI2151
F0.02
sI1512
F0.01
sI1514
F0.01
sI1516
F0.01
sI2161
F0.02
sI5112
F0.02
sI7037
F0.02
sI5118
F0.01
ssVB4KJ36_DROMO
p48
(dp49
I3200
F0.2
sI3297
F0.79
sI3101
F0.22
sI1999
F0.01
sI5650
F0.01
sI4147
F0.01
sI436
F0.01
sI3094
F0.2
sI3165
F0.2
sI3295
F0.2
ssVE3WL16_ANODA
p50
(dp51
I3200
F0.1
sI3297
F0.79
sI3101
F0.26
sI1999
F0.01
sI5650
F0.01
sI4147
F0.01
sI436
F0.01
sI3094
F0.1
sI3165
F0.1
sI3295
F0.1
ssVC3Y4F8_BRAFL
p52
(dp53
I3200
F0.36
sI7055
F0.03
sI1808
F0.03
sI2197
F0.03
sI3094
F0.36
sI6551
F0.03
sI8644
F0.03
sI3101
F0.78
sI475
F0.03
sI1846
F0.01
sI443
F0.03
sI445
F0.01
sI4799
F0.01
sI1092
F0.03
sI4805
F0.01
sI1997
F0.01
sI467
F0.01
sI982
F0.01
sI2008
F0.03
sI6927
F0.01
sI3165
F0.36
sI3295
F0.36
sI3297
F0.88
sI2151
F0.03
sI1512
F0.01
sI1514
F0.01
sI2161
F0.03
sI5112
F0.03
sI7037
F0.03
sI1790
F0.03
ssVSO1A6_RAT
p54
(dp55
I3200
F0.02
sI7055
F0.01
sI1808
F0.01
sI3094
F0.9
sI6551
F0.01
sI3101
F0.03
sI1846
F0.01
sI443
F0.01
sI445
F0.01
sI4799
F0.01
sI8644
F0.01
sI4805
F0.01
sI1997
F0.01
sI467
F0.01
sI982
F0.01
sI6927
F0.01
sI3165
F0.02
sI3295
F0.33
sI3297
F0.06
sI2151
F0.01
sI1512
F0.01
sI1514
F0.01
sI2161
F0.01
sI5112
F0.01
sI7037
F0.01
ssVH0VF80_CAVPO
p56
(dp57
I3200
F0.01
sI4871
F0.01
sI7055
F0.01
sI1808
F0.01
sI5650
F0.01
sI3094
F0.9
sI6551
F0.01
sI3101
F0.02
sI436
F0.01
sI443
F0.01
sI1857
F0.01
sI8644
F0.01
sI1997
F0.01
sI4814
F0.01
sI467
F0.01
sI982
F0.01
sI3165
F0.01
sI3295
F0.37
sI3297
F0.05
sI2151
F0.01
sI1512
F0.01
sI2160
F0.01
sI2161
F0.01
sI5112
F0.01
sI7037
F0.01
sI5118
F0.01
sI10239
F0.01
ssVH2TWS2_TAKRU
p58
(dp59
I3200
F0.15
sI4613
F0.01
sI6927
F0.01
sI1808
F0.05
sI5650
F0.01
sI2068
F0.01
sI2197
F0.01
sI3094
F0.15
sI6551
F0.05
sI3101
F0.25
sI1669
F0.01
sI935
F0.01
sI436
F0.01
sI1846
F0.01
sI443
F0.05
sI445
F0.01
sI4799
F0.01
sI8644
F0.05
sI4805
F0.01
sI5832
F0.01
sI1997
F0.02
sI2130
F0.01
sI467
F0.02
sI2004
F0.01
sI982
F0.02
sI7055
F0.05
sI3165
F0.15
sI3295
F0.15
sI3297
F0.9
sI9446
F0.01
sI2151
F0.05
sI1512
F0.02
sI1514
F0.01
sI2161
F0.05
sI5112
F0.05
sI2172
F0.01
sI7037
F0.05
sI5118
F0.01
ssVH3IYT3_STRPU
p60
(dp61
I3200
F0.36
sI4613
F0.09
sI7055
F0.03
sI1808
F0.03
sI2197
F0.07
sI3094
F0.37
sI6551
F0.03
sI8644
F0.03
sI3101
F0.71
sI475
F0.07
sI1846
F0.01
sI443
F0.03
sI445
F0.01
sI4799
F0.01
sI1092
F0.07
sI4805
F0.01
sI1997
F0.01
sI467
F0.01
sI982
F0.01
sI2008
F0.07
sI6927
F0.01
sI3165
F0.36
sI3295
F0.36
sI3297
F0.9
sI2151
F0.03
sI1512
F0.01
sI1514
F0.01
sI7037
F0.03
sI2161
F0.03
sI5112
F0.03
sI1530
F0.01
sI9450
F0.01
sI1790
F0.07
ssVH2XWZ2_CIOIN
p62
(dp63
I3200
F0.12
sI3297
F0.79
sI1092
F0.03
sI3101
F0.34
sI2008
F0.03
sI2197
F0.03
sI3094
F0.15
sI2168
F0.03
sI475
F0.03
sI3165
F0.12
sI1790
F0.03
sI3295
F0.12
ssVH0ZDV3_TAEGU
p64
(dp65
I3200
F0.09
sI4871
F0.01
sI7055
F0.02
sI1808
F0.02
sI913
F0.01
sI5650
F0.01
sI3094
F0.09
sI6551
F0.02
sI3101
F0.75
sI7585
F0.01
sI4147
F0.01
sI436
F0.01
sI443
F0.02
sI1858
F0.01
sI8644
F0.02
sI4814
F0.01
sI3165
F0.09
sI3295
F0.09
sI3297
F0.77
sI2151
F0.02
sI2160
F0.01
sI2161
F0.02
sI5112
F0.02
sI2171
F0.01
sI7037
F0.02
ssVB7Q7F9_IXOSC
p66
(dp67
I3200
F0.22
sI3297
F0.79
sI3101
F0.23
sI1999
F0.01
sI5650
F0.01
sI4147
F0.01
sI436
F0.01
sI3094
F0.22
sI3165
F0.22
sI3295
F0.22
ssVF7FQD4_CALJA
p68
(dp69
I3200
F0.13
sI3297
F0.13
sI1092
F0.03
sI3101
F0.23
sI2008
F0.03
sI2197
F0.03
sI3094
F0.27
sI2168
F0.03
sI475
F0.03
sI3165
F0.13
sI1790
F0.03
sI3295
F0.78
ssVC3Y4U1_BRAFL
p70
(dp71
I3200
F0.25
sI6927
F0.01
sI1808
F0.03
sI2197
F0.02
sI3094
F0.25
sI6551
F0.03
sI8644
F0.03
sI3101
F0.39
sI475
F0.02
sI1846
F0.01
sI443
F0.03
sI445
F0.01
sI4799
F0.01
sI1092
F0.02
sI4805
F0.01
sI1997
F0.01
sI467
F0.01
sI982
F0.01
sI2008
F0.02
sI7055
F0.03
sI3165
F0.25
sI3295
F0.25
sI3297
F0.91
sI2151
F0.03
sI1512
F0.01
sI1514
F0.01
sI2161
F0.03
sI5112
F0.03
sI7037
F0.03
sI1790
F0.02
ssVH2TWS4_TAKRU
p72
(dp73
I3200
F0.13
sI7055
F0.03
sI1808
F0.03
sI5650
F0.01
sI2197
F0.01
sI3094
F0.14
sI6551
F0.03
sI3101
F0.29
sI436
F0.01
sI1846
F0.01
sI443
F0.03
sI445
F0.01
sI4799
F0.01
sI8644
F0.03
sI4805
F0.01
sI1997
F0.01
sI467
F0.01
sI982
F0.01
sI6927
F0.01
sI3165
F0.13
sI3295
F0.13
sI3297
F0.9
sI2151
F0.03
sI1512
F0.01
sI1514
F0.01
sI1515
F0.01
sI1516
F0.01
sI2161
F0.03
sI5112
F0.03
sI7037
F0.03
sI5118
F0.01
ssVH3B9U6_LATCH
p74
(dp75
I3200
F0.1
sI4871
F0.01
sI7055
F0.01
sI1808
F0.01
sI913
F0.01
sI5650
F0.01
sI3094
F0.11
sI6551
F0.01
sI3101
F0.24
sI7585
F0.01
sI4147
F0.01
sI436
F0.01
sI443
F0.01
sI1857
F0.01
sI8644
F0.01
sI4814
F0.01
sI3165
F0.1
sI3295
F0.1
sI3297
F0.91
sI2151
F0.01
sI2160
F0.01
sI2161
F0.01
sI5112
F0.01
sI7037
F0.01
sI10239
F0.01
ssVH0WWR0_OTOGA
p76
(dp77
I3200
F0.12
sI4613
F0.01
sI6927
F0.01
sI1808
F0.05
sI2068
F0.01
sI2197
F0.01
sI3094
F0.12
sI6551
F0.05
sI3101
F0.71
sI1669
F0.01
sI935
F0.01
sI1846
F0.01
sI443
F0.05
sI445
F0.01
sI4799
F0.01
sI8644
F0.05
sI4805
F0.01
sI5832
F0.01
sI1997
F0.01
sI2130
F0.01
sI467
F0.01
sI2004
F0.01
sI982
F0.01
sI7055
F0.05
sI3165
F0.12
sI3295
F0.12
sI3297
F0.77
sI9446
F0.01
sI2151
F0.05
sI1512
F0.01
sI1514
F0.01
sI2161
F0.05
sI5112
F0.05
sI2172
F0.01
sI7037
F0.05
ssVE4YN72_OIKDI
p78
(dp79
I3200
F0.08
sI3297
F0.76
sI3101
F0.18
sI1999
F0.01
sI5650
F0.01
sI4147
F0.01
sI436
F0.01
sI3094
F0.09
sI3165
F0.08
sI3295
F0.08
ssVQ3B7Q4_DANRE
p80
(dp81
I3200
F0.03
sI3297
F0.03
sI3101
F0.29
sI1999
F0.01
sI5650
F0.01
sI4147
F0.01
sI436
F0.01
sI3094
F0.07
sI3165
F0.03
sI3295
F0.75
ssVG3R1F3_GORGO
p82
(dp83
I3200
F0.27
sI4613
F0.01
sI6927
F0.01
sI1808
F0.05
sI2068
F0.01
sI2197
F0.03
sI3094
F0.28
sI6551
F0.05
sI8644
F0.05
sI3101
F0.39
sI1669
F0.01
sI7055
F0.05
sI935
F0.01
sI1846
F0.01
sI443
F0.05
sI445
F0.01
sI4799
F0.01
sI1092
F0.03
sI4805
F0.01
sI5832
F0.01
sI1997
F0.02
sI2130
F0.01
sI467
F0.02
sI2004
F0.01
sI982
F0.02
sI2008
F0.03
sI475
F0.03
sI3165
F0.27
sI3295
F0.27
sI3297
F0.91
sI9446
F0.01
sI2151
F0.05
sI1512
F0.02
sI1514
F0.01
sI2161
F0.05
sI5112
F0.05
sI2172
F0.01
sI7037
F0.05
sI1790
F0.03
ssVI1FF21_AMPQE
p84
(dp85
I3200
F0.17
sI9860
F0.01
sI6927
F0.01
sI1808
F0.02
sI2197
F0.03
sI3094
F0.75
sI6551
F0.02
sI8644
F0.02
sI3101
F0.33
sI475
F0.03
sI1846
F0.01
sI443
F0.02
sI445
F0.01
sI4799
F0.01
sI1092
F0.03
sI4805
F0.01
sI1997
F0.01
sI467
F0.01
sI982
F0.01
sI2008
F0.03
sI7055
F0.02
sI3165
F0.17
sI3295
F0.18
sI3297
F0.75
sI2151
F0.02
sI1512
F0.01
sI1514
F0.01
sI1516
F0.01
sI2161
F0.02
sI5112
F0.02
sI7037
F0.02
sI1790
F0.03
ssVB7ZAD4_HUMAN
p86
(dp87
I3297
F0.02
sI1999
F0.02
sI3094
F0.91
sI10427
F0.01
sI3101
F0.01
sI3295
F0.06
ssVD3YY31_MOUSE
p88
(dp89
I3200
F0.26
sI3297
F0.73
sI1092
F0.01
sI3101
F0.33
sI2008
F0.01
sI2197
F0.01
sI3094
F0.27
sI2168
F0.01
sI475
F0.01
sI3165
F0.26
sI1790
F0.01
sI3295
F0.26
ssVF6SNS4_XENTR
p90
(dp91
I3200
F0.05
sI3297
F0.8
sI1092
F0.01
sI3101
F0.33
sI2008
F0.01
sI2197
F0.01
sI3094
F0.06
sI2168
F0.01
sI475
F0.01
sI3165
F0.05
sI1790
F0.01
sI3295
F0.06
ssVH2ME23_ORYLA
p92
(dp93
I3200
F0.11
sI4613
F0.01
sI6927
F0.01
sI1808
F0.05
sI2068
F0.01
sI2197
F0.02
sI3094
F0.15
sI6551
F0.05
sI8644
F0.05
sI3101
F0.79
sI1669
F0.01
sI7055
F0.05
sI935
F0.01
sI1846
F0.01
sI443
F0.05
sI445
F0.01
sI4799
F0.01
sI1092
F0.01
sI4805
F0.01
sI5832
F0.01
sI1997
F0.02
sI2130
F0.01
sI467
F0.02
sI2004
F0.01
sI982
F0.02
sI2008
F0.01
sI475
F0.01
sI3165
F0.11
sI3295
F0.76
sI3297
F0.12
sI9446
F0.01
sI2151
F0.05
sI1512
F0.02
sI1514
F0.01
sI2161
F0.05
sI5112
F0.05
sI2172
F0.01
sI7037
F0.05
sI1790
F0.01
ssVH2LWA1_ORYLA
p94
(dp95
I3200
F0.06
sI3297
F0.06
sI3939
F0.01
sI7018
F0.01
sI5646
F0.01
sI3101
F0.06
sI436
F0.01
sI1717
F0.01
sI3094
F0.78
sI5652
F0.01
sI3165
F0.06
sI5118
F0.01
sI3295
F0.52
ssVH9GK46_ANOCA
p96
(dp97
I3200
F0.09
sI4613
F0.01
sI6927
F0.01
sI1808
F0.05
sI2068
F0.01
sI2197
F0.02
sI3094
F0.12
sI6551
F0.05
sI8644
F0.05
sI3101
F0.84
sI1669
F0.01
sI7055
F0.05
sI935
F0.01
sI1846
F0.01
sI443
F0.05
sI445
F0.01
sI4799
F0.01
sI1092
F0.01
sI4805
F0.01
sI5832
F0.01
sI1997
F0.02
sI2130
F0.01
sI467
F0.02
sI2004
F0.01
sI982
F0.02
sI2008
F0.01
sI475
F0.01
sI3165
F0.09
sI3295
F0.53
sI3297
F0.11
sI9446
F0.01
sI2151
F0.05
sI1512
F0.02
sI1514
F0.01
sI2161
F0.05
sI5112
F0.05
sI2172
F0.01
sI7037
F0.05
sI1790
F0.01
ssVH2WEQ3_CAEJA
p98
(dp99
I3200
F0.28
sI3297
F0.91
sI1092
F0.01
sI3101
F0.31
sI2008
F0.01
sI2197
F0.01
sI3094
F0.28
sI2168
F0.01
sI475
F0.01
sI3165
F0.28
sI1790
F0.01
sI3295
F0.28
ssVF1PII7_CANFA
p100
(dp101
I3200
F0.09
sI3297
F0.8
sI3101
F0.11
sI3094
F0.09
sI3165
F0.09
sI3295
F0.09
ssVE1BC23_BOVIN
p102
(dp103
I3200
F0.02
sI4867
F0.01
sI7055
F0.01
sI1808
F0.01
sI5650
F0.01
sI3094
F0.9
sI6551
F0.01
sI3101
F0.02
sI436
F0.01
sI1847
F0.01
sI443
F0.01
sI3390
F0.01
sI1858
F0.01
sI8644
F0.01
sI1997
F0.01
sI4814
F0.01
sI467
F0.01
sI982
F0.01
sI3165
F0.02
sI3295
F0.49
sI3297
F0.02
sI2151
F0.01
sI1512
F0.01
sI1516
F0.01
sI2160
F0.01
sI2161
F0.01
sI5112
F0.01
sI7037
F0.01
sI5118
F0.01
ssVF6X5N8_CIOIN
p104
(dp105
I3200
F0.22
sI3297
F0.22
sI1092
F0.01
sI3101
F0.6
sI2008
F0.01
sI2197
F0.01
sI3094
F0.24
sI2168
F0.01
sI475
F0.01
sI3165
F0.22
sI1790
F0.01
sI3295
F0.3
ssVQ5JAR4_HUMAN
p106
(dp107
I3200
F0.07
sI7055
F0.04
sI1808
F0.04
sI5650
F0.01
sI3094
F0.8
sI6551
F0.04
sI3101
F0.08
sI4147
F0.01
sI436
F0.01
sI1846
F0.01
sI443
F0.04
sI445
F0.01
sI4799
F0.01
sI8644
F0.04
sI4805
F0.01
sI1997
F0.01
sI467
F0.01
sI982
F0.01
sI6927
F0.01
sI3165
F0.07
sI3295
F0.83
sI3297
F0.07
sI2151
F0.04
sI1512
F0.01
sI1514
F0.01
sI2161
F0.04
sI5112
F0.04
sI7037
F0.04
ssVA7SWE4_NEMVE
p108
(dp109
I3200
F0.16
sI7055
F0.02
sI1808
F0.02
sI3094
F0.67
sI6551
F0.02
sI3101
F0.27
sI1846
F0.01
sI443
F0.02
sI445
F0.01
sI4799
F0.01
sI8644
F0.02
sI4805
F0.01
sI1997
F0.01
sI467
F0.01
sI982
F0.01
sI6927
F0.01
sI3165
F0.16
sI3295
F0.16
sI3297
F0.75
sI2151
F0.02
sI1512
F0.01
sI1514
F0.01
sI2161
F0.02
sI5112
F0.02
sI7037
F0.02
ssVF6X587_XENTR
p110
(dp111
I3200
F0.11
sI7055
F0.02
sI1808
F0.02
sI5650
F0.01
sI3094
F0.11
sI6551
F0.02
sI3101
F0.23
sI436
F0.01
sI1846
F0.01
sI443
F0.02
sI445
F0.01
sI4799
F0.01
sI8644
F0.02
sI4805
F0.01
sI1997
F0.01
sI467
F0.01
sI982
F0.01
sI6927
F0.01
sI3165
F0.11
sI3295
F0.11
sI3297
F0.9
sI2151
F0.02
sI1512
F0.01
sI1514
F0.01
sI1516
F0.01
sI2161
F0.02
sI5112
F0.02
sI7037
F0.02
sI5118
F0.01
ssVD2HW96_AILME
p112
(dp113
I3200
F0.1
sI7055
F0.04
sI1808
F0.04
sI5650
F0.01
sI3094
F0.12
sI6551
F0.04
sI3101
F0.73
sI4147
F0.01
sI436
F0.01
sI1846
F0.01
sI443
F0.04
sI445
F0.01
sI4799
F0.01
sI8644
F0.04
sI4805
F0.01
sI1997
F0.01
sI467
F0.01
sI982
F0.01
sI6927
F0.01
sI3165
F0.1
sI3295
F0.12
sI3297
F0.77
sI2151
F0.04
sI1512
F0.01
sI1514
F0.01
sI2161
F0.04
sI5112
F0.04
sI7037
F0.04
ssVH2T322_TAKRU
p114
(dp115
I3200
F0.1
sI3297
F0.8
sI3939
F0.01
sI7018
F0.01
sI3101
F0.12
sI1999
F0.02
sI5650
F0.01
sI436
F0.01
sI3094
F0.1
sI3165
F0.1
sI5118
F0.01
sI3295
F0.1
ssVE0W488_PEDHC
p116
(dp117
I3200
F0.1
sI7055
F0.02
sI1808
F0.02
sI5650
F0.01
sI3094
F0.72
sI6551
F0.02
sI3101
F0.23
sI4147
F0.01
sI436
F0.01
sI1846
F0.01
sI443
F0.02
sI445
F0.01
sI4799
F0.01
sI8644
F0.02
sI4805
F0.01
sI1997
F0.01
sI467
F0.01
sI982
F0.01
sI6927
F0.01
sI3165
F0.1
sI3295
F0.1
sI3297
F0.76
sI2151
F0.02
sI1512
F0.01
sI1514
F0.01
sI2161
F0.02
sI5112
F0.02
sI7037
F0.02
ssVH2YEL7_CIOSA
p118
(dp119
I3200
F0.12
sI7055
F0.05
sI1808
F0.05
sI2197
F0.02
sI3094
F0.13
sI6551
F0.05
sI8644
F0.05
sI3101
F0.75
sI475
F0.01
sI1846
F0.01
sI443
F0.05
sI445
F0.01
sI4799
F0.01
sI1092
F0.01
sI4805
F0.01
sI1997
F0.01
sI467
F0.01
sI982
F0.01
sI2008
F0.01
sI6927
F0.01
sI3165
F0.12
sI3295
F0.12
sI3297
F0.77
sI2151
F0.05
sI1512
F0.01
sI1514
F0.01
sI1515
F0.01
sI1516
F0.01
sI2161
F0.05
sI5112
F0.05
sI7037
F0.05
sI1790
F0.01
ssVG3NKK4_GASAC
p120
(dp121
I3200
F0.04
sI7055
F0.02
sI1808
F0.02
sI5650
F0.01
sI3094
F0.05
sI6551
F0.02
sI3101
F0.37
sI436
F0.01
sI1846
F0.01
sI443
F0.02
sI445
F0.01
sI4799
F0.01
sI8644
F0.02
sI4805
F0.01
sI1997
F0.01
sI467
F0.01
sI982
F0.01
sI6927
F0.01
sI3165
F0.04
sI3295
F0.04
sI3297
F0.9
sI2151
F0.02
sI1512
F0.01
sI1514
F0.01
sI1516
F0.01
sI2161
F0.02
sI5112
F0.02
sI7037
F0.02
sI5118
F0.01
ssVF4WZT5_ACREC
p122
(dp123
I3200
F0.11
sI7055
F0.04
sI1808
F0.04
sI5650
F0.01
sI3094
F0.7
sI6551
F0.04
sI3101
F0.22
sI4147
F0.01
sI436
F0.01
sI1846
F0.01
sI443
F0.04
sI445
F0.01
sI4799
F0.01
sI8644
F0.04
sI4805
F0.01
sI1997
F0.01
sI4815
F0.6
sI467
F0.01
sI982
F0.01
sI730
F0.32
sI6927
F0.01
sI3165
F0.11
sI3295
F0.11
sI3297
F0.75
sI2274
F0.59
sI2151
F0.04
sI1512
F0.01
sI1514
F0.01
sI2161
F0.04
sI5112
F0.04
sI7037
F0.04
ssVF7C2I8_MACMU
p124
(dp125
I3200
F0.07
sI4613
F0.01
sI6927
F0.01
sI1808
F0.05
sI5650
F0.01
sI2068
F0.01
sI2197
F0.01
sI3094
F0.08
sI6551
F0.05
sI3101
F0.41
sI1669
F0.01
sI935
F0.01
sI436
F0.01
sI1846
F0.01
sI443
F0.05
sI445
F0.01
sI4799
F0.01
sI8644
F0.05
sI4805
F0.01
sI5832
F0.01
sI1997
F0.02
sI2130
F0.01
sI467
F0.02
sI2004
F0.01
sI982
F0.02
sI7055
F0.05
sI3165
F0.07
sI3295
F0.08
sI3297
F0.9
sI9446
F0.01
sI2151
F0.05
sI1512
F0.02
sI1514
F0.01
sI2161
F0.05
sI5112
F0.05
sI2172
F0.01
sI7037
F0.05
sI5118
F0.01
ssVSO1A4_MOUSE
p126
(dp127
I3297
F0.02
sI3101
F0.01
sI3094
F0.87
sI3295
F0.3
ssVF1NEX3_CHICK
p128
(dp129
I3200
F0.05
sI7055
F0.04
sI1808
F0.04
sI3094
F0.06
sI6551
F0.04
sI3101
F0.38
sI1846
F0.01
sI443
F0.04
sI445
F0.01
sI4799
F0.01
sI8644
F0.04
sI4805
F0.01
sI1997
F0.01
sI467
F0.01
sI982
F0.01
sI6927
F0.01
sI3165
F0.05
sI3295
F0.05
sI3297
F0.9
sI2151
F0.04
sI1512
F0.01
sI1514
F0.01
sI2161
F0.04
sI5112
F0.04
sI7037
F0.04
ssVF6SFJ8_ORNAN
p130
(dp131
I3200
F0.06
sI9860
F0.01
sI6927
F0.01
sI1808
F0.02
sI2197
F0.01
sI3094
F0.86
sI6551
F0.02
sI8644
F0.02
sI3101
F0.06
sI475
F0.01
sI1846
F0.01
sI443
F0.02
sI445
F0.01
sI4799
F0.01
sI1092
F0.01
sI4805
F0.01
sI1997
F0.01
sI467
F0.01
sI982
F0.01
sI2008
F0.01
sI7055
F0.02
sI3165
F0.06
sI3295
F0.73
sI3297
F0.06
sI2151
F0.02
sI1512
F0.01
sI1514
F0.01
sI1516
F0.01
sI2161
F0.02
sI5112
F0.02
sI7037
F0.02
sI1790
F0.01
ssVH3DF25_TETNG
p132
(dp133
I3200
F0.09
sI4613
F0.01
sI6927
F0.01
sI1808
F0.05
sI5650
F0.01
sI2068
F0.01
sI2197
F0.01
sI3094
F0.9
sI6551
F0.05
sI3101
F0.09
sI1669
F0.01
sI935
F0.01
sI4147
F0.01
sI436
F0.01
sI1846
F0.01
sI443
F0.05
sI445
F0.01
sI4799
F0.01
sI8644
F0.05
sI4805
F0.01
sI5832
F0.01
sI1997
F0.02
sI2130
F0.01
sI467
F0.02
sI2004
F0.01
sI982
F0.02
sI7055
F0.05
sI3165
F0.09
sI3295
F0.52
sI3297
F0.09
sI9446
F0.01
sI2151
F0.05
sI1512
F0.02
sI1514
F0.01
sI2161
F0.05
sI5112
F0.05
sI2172
F0.01
sI7037
F0.05
ssVQ7PI57_ANOGA
p134
(dp135
I3200
F0.21
sI7055
F0.02
sI1808
F0.02
sI3094
F0.21
sI6551
F0.02
sI3101
F0.67
sI1846
F0.01
sI443
F0.02
sI445
F0.01
sI4799
F0.01
sI8644
F0.02
sI4805
F0.01
sI1997
F0.01
sI467
F0.01
sI982
F0.01
sI6927
F0.01
sI3165
F0.21
sI3295
F0.21
sI3297
F0.79
sI2151
F0.02
sI1512
F0.01
sI1514
F0.01
sI2161
F0.02
sI5112
F0.02
sI7037
F0.02
ssVA8WJB0_CAEBR
p136
(dp137
I3200
F0.13
sI3297
F0.8
sI3101
F0.24
sI3094
F0.13
sI3165
F0.13
sI3295
F0.13
ssVH2YTS1_CIOSA
p138
(dp139
I3200
F0.16
sI4613
F0.01
sI6927
F0.01
sI1808
F0.05
sI2068
F0.01
sI2197
F0.02
sI3094
F0.54
sI6551
F0.05
sI8644
F0.05
sI3101
F0.7
sI1669
F0.01
sI7055
F0.05
sI935
F0.01
sI1846
F0.01
sI443
F0.05
sI445
F0.01
sI4799
F0.01
sI1092
F0.02
sI4805
F0.01
sI5832
F0.01
sI1997
F0.02
sI2130
F0.01
sI467
F0.02
sI2004
F0.01
sI982
F0.02
sI2008
F0.02
sI475
F0.02
sI3165
F0.16
sI3295
F0.26
sI3297
F0.16
sI9446
F0.01
sI2151
F0.05
sI1512
F0.02
sI1514
F0.01
sI2161
F0.05
sI5112
F0.05
sI2172
F0.01
sI7037
F0.05
sI1790
F0.02
ssVG1QU38_NOMLE
p140
(dp141
I3200
F0.05
sI4613
F0.01
sI6927
F0.01
sI1808
F0.05
sI2068
F0.01
sI2197
F0.01
sI3094
F0.13
sI6551
F0.05
sI3101
F0.9
sI1669
F0.01
sI935
F0.01
sI1846
F0.01
sI443
F0.05
sI445
F0.01
sI4799
F0.01
sI8644
F0.05
sI4805
F0.01
sI5832
F0.01
sI1997
F0.01
sI2130
F0.01
sI467
F0.01
sI2004
F0.01
sI982
F0.01
sI7055
F0.05
sI3165
F0.05
sI3295
F0.05
sI3297
F0.05
sI9446
F0.01
sI2151
F0.05
sI1512
F0.01
sI1514
F0.01
sI2161
F0.05
sI5112
F0.05
sI2172
F0.01
sI7037
F0.05
ssVC3YC54_BRAFL
p142
(dp143
I3200
F0.38
sI6927
F0.01
sI1808
F0.03
sI2197
F0.05
sI3094
F0.4
sI6551
F0.03
sI8644
F0.03
sI3101
F0.75
sI475
F0.05
sI1846
F0.01
sI443
F0.03
sI445
F0.01
sI4799
F0.01
sI1092
F0.05
sI4805
F0.01
sI1997
F0.01
sI467
F0.01
sI982
F0.01
sI2008
F0.05
sI7055
F0.03
sI3165
F0.38
sI3295
F0.39
sI3297
F0.89
sI2151
F0.03
sI1512
F0.01
sI1514
F0.01
sI2161
F0.03
sI5112
F0.03
sI7037
F0.03
sI1790
F0.05
ssVB4GHI4_DROPE
p144
(dp145
I3200
F0.23
sI3297
F0.79
sI3101
F0.25
sI3094
F0.23
sI3165
F0.23
sI3295
F0.23
ssVF7I0Q4_CALJA
p146
(dp147
I3200
F0.04
sI4871
F0.01
sI7055
F0.01
sI1808
F0.01
sI913
F0.01
sI5650
F0.01
sI3094
F0.05
sI6551
F0.01
sI3101
F0.75
sI7585
F0.01
sI436
F0.01
sI443
F0.01
sI1858
F0.01
sI8644
F0.01
sI4814
F0.01
sI3165
F0.04
sI3295
F0.05
sI3297
F0.76
sI2151
F0.01
sI2160
F0.01
sI2161
F0.01
sI5112
F0.01
sI2171
F0.01
sI7037
F0.01
sI5118
F0.01
ssVB0W4W5_CULQU
p148
(dp149
I3200
F0.2
sI4613
F0.08
sI7055
F0.02
sI1808
F0.02
sI3094
F0.2
sI6551
F0.02
sI5656
F0.01
sI3101
F0.49
sI1717
F0.01
sI1846
F0.01
sI443
F0.02
sI445
F0.01
sI4799
F0.01
sI8644
F0.02
sI4805
F0.01
sI1997
F0.01
sI467
F0.01
sI982
F0.01
sI6927
F0.01
sI3165
F0.2
sI5647
F0.01
sI3295
F0.2
sI3297
F0.91
sI2151
F0.02
sI1512
F0.01
sI1514
F0.01
sI2161
F0.02
sI5112
F0.02
sI7037
F0.02
ssVB3RLK6_TRIAD
p150
(dp151
I3200
F0.12
sI7055
F0.03
sI1808
F0.03
sI5650
F0.01
sI3094
F0.53
sI6551
F0.03
sI3101
F0.42
sI4147
F0.01
sI436
F0.01
sI1846
F0.01
sI443
F0.03
sI445
F0.01
sI4799
F0.01
sI8644
F0.03
sI4805
F0.01
sI1997
F0.01
sI467
F0.01
sI982
F0.01
sI6927
F0.01
sI3165
F0.12
sI3295
F0.12
sI3297
F0.75
sI2151
F0.03
sI1512
F0.01
sI1514
F0.01
sI2161
F0.03
sI5112
F0.03
sI7037
F0.03
ssVA2ACT3_MOUSE
p152
(dp153
I3200
F0.13
sI4613
F0.09
sI7055
F0.03
sI1808
F0.03
sI5650
F0.01
sI3094
F0.23
sI6551
F0.03
sI3101
F0.71
sI4147
F0.01
sI436
F0.01
sI1846
F0.01
sI443
F0.03
sI445
F0.01
sI4799
F0.01
sI8644
F0.03
sI4805
F0.01
sI1997
F0.01
sI467
F0.01
sI982
F0.01
sI6927
F0.01
sI3165
F0.13
sI3295
F0.13
sI3297
F0.76
sI2151
F0.03
sI1512
F0.01
sI1514
F0.01
sI2161
F0.03
sI5112
F0.03
sI7037
F0.03
ssVQ148W1_MOUSE
p154
(dp155
I3200
F0.08
sI3297
F0.8
sI3101
F0.18
sI3094
F0.08
sI3165
F0.08
sI3295
F0.08
ssVE2BWD4_HARSA
p156
(dp157
I3200
F0.1
sI4613
F0.09
sI4871
F0.01
sI7055
F0.02
sI1808
F0.02
sI913
F0.01
sI3094
F0.1
sI6551
F0.02
sI3101
F0.34
sI7585
F0.01
sI1847
F0.01
sI443
F0.02
sI3390
F0.01
sI1858
F0.01
sI8644
F0.02
sI4814
F0.01
sI3165
F0.1
sI3295
F0.1
sI3297
F0.88
sI2151
F0.02
sI2160
F0.01
sI2161
F0.02
sI5112
F0.02
sI2171
F0.01
sI7037
F0.02
ssVB3KUC7_HUMAN
p158
(dp159
I3200
F0.08
sI3297
F0.8
sI3101
F0.17
sI3094
F0.08
sI3165
F0.08
sI3295
F0.08
ssVB4HYY3_DROSE
p160
(dp161
I3200
F0.23
sI7055
F0.03
sI1808
F0.03
sI3094
F0.76
sI6551
F0.03
sI3101
F0.33
sI1846
F0.01
sI443
F0.03
sI445
F0.01
sI4799
F0.01
sI8644
F0.03
sI4805
F0.01
sI1997
F0.01
sI467
F0.01
sI982
F0.01
sI6927
F0.01
sI3165
F0.23
sI3295
F0.23
sI3297
F0.75
sI2151
F0.03
sI1512
F0.01
sI1514
F0.01
sI2161
F0.03
sI5112
F0.03
sI7037
F0.03
ssVG8F3I8_MACFA
p162
(dp163
I3200
F0.01
sI3297
F0.01
sI3101
F0.18
sI1999
F0.01
sI5650
F0.01
sI4147
F0.01
sI436
F0.01
sI3094
F0.26
sI3165
F0.01
sI3295
F0.8
ssVB4N049_DROWI
p164
(dp165
I3200
F0.11
sI4613
F0.08
sI7055
F0.02
sI1808
F0.02
sI5650
F0.01
sI3094
F0.11
sI6551
F0.02
sI3101
F0.33
sI4147
F0.01
sI436
F0.01
sI1846
F0.01
sI443
F0.02
sI445
F0.01
sI4799
F0.01
sI8644
F0.02
sI4805
F0.01
sI1997
F0.01
sI467
F0.01
sI982
F0.01
sI6927
F0.01
sI3165
F0.11
sI3295
F0.11
sI3297
F0.88
sI2151
F0.02
sI1512
F0.01
sI1514
F0.01
sI2161
F0.02
sI5112
F0.02
sI7037
F0.02
ssVG3WUN1_SARHA
p166
(dp167
I3200
F0.23
sI4613
F0.01
sI6927
F0.01
sI1808
F0.05
sI2068
F0.01
sI2197
F0.03
sI3094
F0.23
sI6551
F0.05
sI8644
F0.05
sI3101
F0.31
sI1669
F0.01
sI7055
F0.05
sI935
F0.01
sI1846
F0.01
sI443
F0.05
sI445
F0.01
sI4799
F0.01
sI1092
F0.03
sI4805
F0.01
sI5832
F0.01
sI1997
F0.02
sI2130
F0.01
sI467
F0.02
sI2004
F0.01
sI982
F0.02
sI2008
F0.03
sI475
F0.03
sI3165
F0.23
sI3295
F0.23
sI3297
F0.9
sI9446
F0.01
sI2151
F0.05
sI1512
F0.02
sI1514
F0.01
sI2161
F0.05
sI5112
F0.05
sI2172
F0.01
sI7037
F0.05
sI1790
F0.03
ssVG3TF40_LOXAF
p168
(dp169
I3200
F0.08
sI3297
F0.8
sI3101
F0.18
sI1999
F0.01
sI5650
F0.01
sI436
F0.01
sI3094
F0.08
sI3165
F0.08
sI5118
F0.01
sI3295
F0.08
ssVA7T5W1_NEMVE
p170
(dp171
I3200
F0.19
sI3297
F0.91
sI3101
F0.36
sI1999
F0.01
sI5650
F0.01
sI4147
F0.01
sI436
F0.01
sI3094
F0.19
sI3165
F0.19
sI3295
F0.19
ssa(dp172
g2
I9823
sg4
I6238
sg6
I7668
sg8
I10116
sg10
I7668
sg12
I9986
sg14
I10090
sg16
I9785
sg18
I6945
sg20
I9598
sg22
I9823
sg24
I9606
sg26
I9598
sg28
I9595
sg30
I7230
sg32
I7668
sg34
I10090
sg36
I0
sg38
I0
sg40
I9541
sg42
I10181
sg44
I8090
sg46
I28377
sg48
I7230
sg50
I43151
sg52
I7739
sg54
I10116
sg56
I10141
sg58
I31033
sg60
I7668
sg62
I7719
sg64
I59729
sg66
I6945
sg68
I9483
sg70
I7739
sg72
I31033
sg74
I7897
sg76
I30611
sg78
I34765
sg80
I7955
sg82
I9595
sg84
I400682
sg86
I9606
sg88
I10090
sg90
I8364
sg92
I8090
sg94
I8090
sg96
I28377
sg98
I281687
sg100
I0
sg102
I9913
sg104
I7719
sg106
I9606
sg108
I45351
sg110
I8364
sg112
I9646
sg114
I31033
sg116
I121224
sg118
I51511
sg120
I69293
sg122
I103372
sg124
I9544
sg126
I10090
sg128
I9031
sg130
I9258
sg132
I99883
sg134
I7165
sg136
I6238
sg138
I51511
sg140
I61853
sg142
I7739
sg144
I7234
sg146
I9483
sg148
I7176
sg150
I10228
sg152
I0
sg154
I10090
sg156
I610380
sg158
I9606
sg160
I7238
sg162
I9541
sg164
I7260
sg166
I9305
sg168
I9785
sg170
I45351
sa(dp173
g2
VF1RN62
p174
sg4
VA8WRK7
p175
sg6
VH3J4I4
p176
sg8
VQ8K4K9
p177
sg10
VH3IQD9
p178
sg12
VG1TI46
p179
sg14
VQ8K078
p180
sg16
VG3UKL3
p181
sg18
VB7P3S5
p182
sg20
VG2HJC6
p183
sg22
VF1SLA4
p184
sg24
VC9JHU9
p185
sg26
VH2Q5K4
p186
sg28
VG3QGZ3
p187
sg30
VB4KXF0
p188
sg32
VH3INQ6
p189
sg34
VD3YXA8
p190
sg36
V
p191
sg38
g191
sg40
VG7PC00
p192
sg42
VG5BJ45
p193
sg44
VH2LI10
p194
sg46
VG1KDM6
p195
sg48
VB4KJ36
p196
sg50
VE3WL16
p197
sg52
VC3Y4F8
p198
sg54
VQ9QYE2
p199
sg56
VH0VF80
p200
sg58
VH2TWS2
p201
sg60
VH3IYT3
p202
sg62
VH2XWZ2
p203
sg64
VH0ZDV3
p204
sg66
VB7Q7F9
p205
sg68
VF7FQD4
p206
sg70
VC3Y4U1
p207
sg72
VH2TWS4
p208
sg74
VH3B9U6
p209
sg76
VH0WWR0
p210
sg78
VE4YN72
p211
sg80
VQ3B7Q4
p212
sg82
VG3R1F3
p213
sg84
VI1FF21
p214
sg86
VB7ZAD4
p215
sg88
VD3YY31
p216
sg90
VF6SNS4
p217
sg92
VH2ME23
p218
sg94
VH2LWA1
p219
sg96
VH9GK46
p220
sg98
VH2WEQ3
p221
sg100
g191
sg102
VE1BC23
p222
sg104
VF6X5N8
p223
sg106
VQ5JAR4
p224
sg108
VA7SWE4
p225
sg110
VF6X587
p226
sg112
VD2HW96
p227
sg114
VH2T322
p228
sg116
VE0W488
p229
sg118
VH2YEL7
p230
sg120
VG3NKK4
p231
sg122
VF4WZT5
p232
sg124
VF7C2I8
p233
sg126
VQ9EP96
p234
sg128
VF1NEX3
p235
sg130
VF6SFJ8
p236
sg132
VH3DF25
p237
sg134
VQ7PI57
p238
sg136
VA8WJB0
p239
sg138
VH2YTS1
p240
sg140
VG1QU38
p241
sg142
VC3YC54
p242
sg144
VB4GHI4
p243
sg146
VF7I0Q4
p244
sg148
VB0W4W5
p245
sg150
VB3RLK6
p246
sg152
g191
sg154
VQ148W1
p247
sg156
VE2BWD4
p248
sg158
VB3KUC7
p249
sg160
VB4HYY3
p250
sg162
VG8F3I8
p251
sg164
VB4N049
p252
sg166
VG3WUN1
p253
sg168
VG3TF40
p254
sg170
VA7T5W1
p255
sa.