(lp0
(dp1
VF1SU64_PIG
p2
(dp3
I6849
F0.02
sI4827
F0.02
sI3748
F0.02
sI8118
F0.02
sI3048
F0.02
sI1997
F0.02
sI6927
F0.02
sI5617
F0.02
sI4146
F0.02
sI2101
F0.05
sI4822
F0.82
sI3414
F0.02
sI3227
F0.02
ssVF1RMG9_PIG
p4
(dp5
I6849
F0.18
sI4827
F0.18
sI3748
F0.18
sI8118
F0.18
sI3048
F0.18
sI1997
F0.18
sI6927
F0.18
sI5617
F0.18
sI4146
F0.18
sI2101
F0.21
sI4822
F0.78
sI3414
F0.18
sI3227
F0.18
ssVF1SKR1_PIG
p6
(dp7
I6849
F0.18
sI4827
F0.18
sI3748
F0.18
sI8118
F0.18
sI3048
F0.18
sI1997
F0.18
sI6927
F0.18
sI5617
F0.18
sI4146
F0.18
sI2101
F0.21
sI4822
F0.78
sI3414
F0.18
sI3227
F0.18
ssVF1RF33_PIG
p8
(dp9
I6849
F0.08
sI4827
F0.08
sI3748
F0.08
sI8118
F0.08
sI3048
F0.08
sI1997
F0.08
sI6927
F0.08
sI5617
F0.08
sI4146
F0.08
sI2101
F0.15
sI4822
F0.82
sI3414
F0.08
sI3227
F0.08
ssVF1SKR4_PIG
p10
(dp11
I6849
F0.21
sI4827
F0.21
sI3748
F0.21
sI8118
F0.21
sI3048
F0.21
sI1997
F0.21
sI6927
F0.21
sI5617
F0.21
sI4146
F0.21
sI2101
F0.27
sI4822
F0.91
sI3414
F0.21
sI3227
F0.21
ssVF1RNK3_PIG
p12
(dp13
I6849
F0.17
sI4827
F0.17
sI3748
F0.17
sI8118
F0.17
sI3048
F0.17
sI1997
F0.17
sI6927
F0.17
sI5617
F0.17
sI4146
F0.17
sI2101
F0.23
sI4822
F0.91
sI3414
F0.17
sI3227
F0.17
ssVF1SKR2_PIG
p14
(dp15
I6849
F0.2
sI4827
F0.2
sI3748
F0.2
sI8118
F0.2
sI3048
F0.2
sI1997
F0.2
sI6927
F0.2
sI5617
F0.2
sI4146
F0.2
sI2101
F0.26
sI4822
F0.91
sI3414
F0.2
sI3227
F0.2
ssVF1S8X5_PIG
p16
(dp17
I6849
F0.08
sI4827
F0.08
sI3748
F0.08
sI8118
F0.08
sI3048
F0.08
sI1997
F0.08
sI6927
F0.08
sI5617
F0.08
sI4146
F0.08
sI2101
F0.14
sI4822
F0.81
sI3414
F0.08
sI3227
F0.08
ssVF1SKR8_PIG
p18
(dp19
I6849
F0.17
sI4827
F0.17
sI3748
F0.17
sI8118
F0.17
sI3048
F0.17
sI1997
F0.17
sI6927
F0.17
sI5617
F0.17
sI4146
F0.17
sI2101
F0.27
sI4822
F0.78
sI3414
F0.17
sI3227
F0.17
ssVF1S3D3_PIG
p20
(dp21
I6849
F0.08
sI4827
F0.08
sI3748
F0.08
sI8118
F0.08
sI3048
F0.08
sI1997
F0.08
sI6927
F0.08
sI5617
F0.08
sI4146
F0.08
sI2101
F0.3
sI4822
F0.79
sI3414
F0.08
sI3227
F0.08
ssVC3UP60_PIG
p22
(dp23
I6849
F0.05
sI4827
F0.05
sI3748
F0.02
sI8118
F0.04
sI3048
F0.02
sI1997
F0.02
sI6927
F0.04
sI5617
F0.04
sI4146
F0.04
sI2101
F0.02
sI4822
F0.83
sI3414
F0.02
sI3227
F0.02
ssa(dp24
g2
I9823
sg4
I9823
sg6
I9823
sg8
I9823
sg10
I9823
sg12
I9823
sg14
I9823
sg16
I9823
sg18
I9823
sg20
I9823
sg22
I9823
sa(dp25
g2
VF1SU64
p26
sg4
VF1RMG9
p27
sg6
VF1SKR1
p28
sg8
VF1RF33
p29
sg10
VF1SKR4
p30
sg12
VF1RNK3
p31
sg14
VF1SKR2
p32
sg16
VF1S8X5
p33
sg18
VF1SKR8
p34
sg20
VF1S3D3
p35
sg22
VC3UP60
p36
sa.