(dp0
S'result'
p1
(lp2
(lp3
Vseq2
p4
a(lp5
(lp6
VTID_DROME
p7
aVQ27237
p8
aVDrosophila melanogaster
p9
aI7227
aS'1076'
p10
aF0.0
aS'100'
p11
aS'100'
p12
a(lp13
(lp14
VGO:0050750
p15
aVlow-density lipoprotein particle receptor binding
p16
aS'0.92'
p17
aa(lp18
VGO:0019901
p19
aVprotein kinase binding
p20
aS'0.8'
p21
aa(lp22
VGO:0051059
p23
aVNF-kappaB binding
p24
aS'0.74'
p25
aa(lp26
VGO:0005133
p27
aVinterferon-gamma receptor binding
p28
aS'0.74'
p29
aa(lp30
VGO:0051082
p31
aVunfolded protein binding
p32
aS'0.73'
p33
aa(lp34
VGO:0008270
p35
aVzinc ion binding
p36
aS'0.73'
p37
aa(lp38
VGO:0003756
p39
aVprotein disulfide isomerase activity
p40
aS'0.72'
p41
aaaa(lp42
VTID_DROME
p43
ag8
ag9
aI7227
aS'1073'
p44
aF0.0
aS'100'
p45
aS'100'
p46
a(lp47
(lp48
g15
ag16
aS'0.92'
p49
aa(lp50
g19
ag20
aS'0.8'
p51
aa(lp52
g23
ag24
aS'0.74'
p53
aa(lp54
g27
ag28
aS'0.74'
p55
aa(lp56
g31
ag32
aS'0.73'
p57
aa(lp58
g35
ag36
aS'0.73'
p59
aa(lp60
g39
ag40
aS'0.72'
p61
aaaa(lp62
VTID_DROME
p63
ag8
ag9
aI7227
aS'1063'
p64
aF0.0
aS'99'
p65
aS'100'
p66
a(lp67
(lp68
g15
ag16
aS'0.92'
p69
aa(lp70
g19
ag20
aS'0.8'
p71
aa(lp72
g23
ag24
aS'0.74'
p73
aa(lp74
g27
ag28
aS'0.74'
p75
aa(lp76
g31
ag32
aS'0.73'
p77
aa(lp78
g35
ag36
aS'0.73'
p79
aa(lp80
g39
ag40
aS'0.72'
p81
aaaa(lp82
VTID_DROME
p83
ag8
ag9
aI7227
aS'1059'
p84
aF0.0
aS'99'
p85
aS'100'
p86
a(lp87
(lp88
g15
ag16
aS'0.92'
p89
aa(lp90
g19
ag20
aS'0.8'
p91
aa(lp92
g23
ag24
aS'0.74'
p93
aa(lp94
g27
ag28
aS'0.74'
p95
aa(lp96
g31
ag32
aS'0.73'
p97
aa(lp98
g35
ag36
aS'0.73'
p99
aa(lp100
g39
ag40
aS'0.72'
p101
aaaa(lp102
VTID_DROME
p103
ag8
ag9
aI7227
aS'932'
p104
aF0.0
aS'100'
p105
aS'86'
p106
a(lp107
(lp108
g15
ag16
aS'0.92'
p109
aa(lp110
g19
ag20
aS'0.8'
p111
aa(lp112
g23
ag24
aS'0.74'
p113
aa(lp114
g27
ag28
aS'0.74'
p115
aa(lp116
g31
ag32
aS'0.73'
p117
aa(lp118
g35
ag36
aS'0.73'
p119
aa(lp120
g39
ag40
aS'0.72'
p121
aaaa(lp122
VTID_DROME
p123
ag8
ag9
aI7227
aS'929'
p124
aF0.0
aS'99'
p125
aS'86'
p126
a(lp127
(lp128
g15
ag16
aS'0.92'
p129
aa(lp130
g19
ag20
aS'0.8'
p131
aa(lp132
g23
ag24
aS'0.74'
p133
aa(lp134
g27
ag28
aS'0.74'
p135
aa(lp136
g31
ag32
aS'0.73'
p137
aa(lp138
g35
ag36
aS'0.73'
p139
aa(lp140
g39
ag40
aS'0.72'
p141
aaaa(lp142
VQ7KVH7_DROME
p143
aVQ7KVH7
p144
ag9
aI7227
aS'860'
p145
aF0.0
aS'99'
p146
aS'85'
p147
a(lp148
(lp149
g15
ag16
aS'0.91'
p150
aa(lp151
g19
ag20
aS'0.81'
p152
aa(lp153
g23
ag24
aS'0.75'
p154
aa(lp155
g27
ag28
aS'0.75'
p156
aa(lp157
g31
ag32
aS'0.74'
p158
aa(lp159
g35
ag36
aS'0.74'
p160
aa(lp161
g39
ag40
aS'0.73'
p162
aaaa(lp163
VD6W4V2_DROME
p164
aVD6W4V2
p165
ag9
aI7227
aS'855'
p166
aF0.0
aS'99'
p167
aS'85'
p168
a(lp169
(lp170
g15
ag16
aS'0.92'
p171
aa(lp172
g19
ag20
aS'0.5'
p173
aa(lp174
VGO:0042393
p175
aVhistone binding
p176
aS'0.41'
p177
aaaa(lp178
VB4QAY0_DROSI
p179
aVB4QAY0
p180
aVDrosophila simulans
p181
aI7240
aS'850'
p182
aF0.0
aS'97'
p183
aS'87'
p184
a(lp185
(lp186
g15
ag16
aS'0.91'
p187
aa(lp188
g19
ag20
aS'0.84'
p189
aa(lp190
g23
ag24
aS'0.8'
p191
aa(lp192
g31
ag32
aS'0.8'
p193
aa(lp194
g27
ag28
aS'0.8'
p195
aa(lp196
g35
ag36
aS'0.8'
p197
aa(lp198
g39
ag40
aS'0.79'
p199
aaaa(lp200
VB4P9R9_DROYA
p201
aVB4P9R9
p202
aVDrosophila yakuba
p203
aI7245
aS'845'
p204
aF0.0
aS'96'
p205
aS'87'
p206
a(lp207
(lp208
g15
ag16
aS'0.92'
p209
aa(lp210
g19
ag20
aS'0.59'
p211
aaaa(lp212
VB3NPR2_DROER
p213
aVB3NPR2
p214
aVDrosophila erecta
p215
aI7220
aS'837'
p216
aF0.0
aS'95'
p217
aS'87'
p218
a(lp219
(lp220
g15
ag16
aS'0.92'
p221
aa(lp222
g19
ag20
aS'0.59'
p223
aaaa(lp224
VB4I8S2_DROSE
p225
aVB4I8S2
p226
aVDrosophila sechellia
p227
aI7238
aS'770'
p228
aF0.0
aS'86'
p229
aS'87'
p230
a(lp231
(lp232
g15
ag16
aS'0.91'
p233
aa(lp234
g19
ag20
aS'0.81'
p235
aa(lp236
g27
ag28
aS'0.75'
p237
aa(lp238
g23
ag24
aS'0.75'
p239
aa(lp240
g35
ag36
aS'0.75'
p241
aa(lp242
g31
ag32
aS'0.75'
p243
aa(lp244
g39
ag40
aS'0.73'
p245
aaaa(lp246
VB3MFJ4_DROAN
p247
aVB3MFJ4
p248
aVDrosophila ananassae
p249
aI7217
aS'748'
p250
aF0.0
aS'85'
p251
aS'85'
p252
a(lp253
(lp254
g15
ag16
aS'0.92'
p255
aa(lp256
g19
ag20
aS'0.55'
p257
aaaa(lp258
VTID_DROVI
p259
aVQ24331
p260
aVDrosophila virilis
p261
aI7244
aS'717'
p262
aF0.0
aS'72'
p263
aS'100'
p264
a(lp265
(lp266
g15
ag16
aS'0.92'
p267
aa(lp268
g19
ag20
aS'0.64'
p269
aa(lp270
g23
ag24
aS'0.49'
p271
aa(lp272
g27
ag28
aS'0.49'
p273
aaaa(lp274
VB4GHT7_DROPE
p275
aVB4GHT7
p276
aVDrosophila persimilis
p277
aI7234
aS'714'
p278
aF0.0
aS'73'
p279
aS'100'
p280
a(lp281
(lp282
g15
ag16
aS'0.92'
p283
aa(lp284
g19
ag20
aS'0.59'
p285
aaaa(lp286
VB5E1J0_DROPS
p287
aVB5E1J0
p288
aVDrosophila pseudoobscura pseudoobscura
p289
aI46245
aS'712'
p290
aF0.0
aS'73'
p291
aS'100'
p292
a(lp293
(lp294
g15
ag16
aS'0.92'
p295
aa(lp296
g19
ag20
aS'0.59'
p297
aaaa(lp298
VB4J871_DROGR
p299
aVB4J871
p300
aVDrosophila grimshawi
p301
aI7222
aS'701'
p302
aF0.0
aS'77'
p303
aS'85'
p304
a(lp305
(lp306
g15
ag16
aS'0.92'
p307
aa(lp308
g19
ag20
aS'0.56'
p309
aaaa(lp310
VB4KQ15_DROMO
p311
aVB4KQ15
p312
aVDrosophila mojavensis
p313
aI7230
aS'699'
p314
aF0.0
aS'75'
p315
aS'85'
p316
a(lp317
(lp318
g15
ag16
aS'0.92'
p319
aa(lp320
g19
ag20
aS'0.56'
p321
aaaa(lp322
VB4NML0_DROWI
p323
aVB4NML0
p324
aVDrosophila willistoni
p325
aI7260
aS'696'
p326
aF0.0
aS'78'
p327
aS'85'
p328
a(lp329
(lp330
g15
ag16
aS'0.92'
p331
aa(lp332
g19
ag20
aS'0.51'
p333
aa(lp334
g175
ag176
aS'0.39'
p335
aaaa(lp336
VB4MDV9_DROVI
p337
aVB4MDV9
p338
ag261
aI7244
aS'687'
p339
aF0.0
aS'77'
p340
aS'85'
p341
a(lp342
(lp343
g15
ag16
aS'0.92'
p344
aa(lp345
g19
ag20
aS'0.64'
p346
aa(lp347
g23
ag24
aS'0.49'
p348
aa(lp349
g27
ag28
aS'0.49'
p350
aaaa(lp351
VQ16R72_AEDAE
p352
aVQ16R72
p353
aVAedes aegypti
p354
aI7159
aS'615'
p355
aF0.0
aS'73'
p356
aS'75'
p357
a(lp358
(lp359
g15
ag16
aS'0.92'
p360
aa(lp361
g19
ag20
aS'0.65'
p362
aa(lp363
g23
ag24
aS'0.5'
p364
aa(lp365
g27
ag28
aS'0.5'
p366
aa(lp367
g31
ag32
aS'0.49'
p368
aa(lp369
g35
ag36
aS'0.49'
p370
aaaa(lp371
VE9J573_SOLIN
p372
aVE9J573
p373
aVSolenopsis invicta
p374
aI13686
aS'565'
p375
aF0.0
aS'63'
p376
aS'83'
p377
a(lp378
(lp379
g15
ag16
aS'0.92'
p380
aa(lp381
g19
ag20
aS'0.5'
p382
aa(lp383
g175
ag176
aS'0.39'
p384
aaaa(lp385
VE2ADT8_CAMFO
p386
aVE2ADT8
p387
aVCamponotus floridanus
p388
aI104421
aS'560'
p389
aF0.0
aS'61'
p390
aS'84'
p391
a(lp392
(lp393
g15
ag16
aS'0.92'
p394
aa(lp395
g19
ag20
aS'0.5'
p396
aa(lp397
g175
ag176
aS'0.39'
p398
aaaa(lp399
VE2BN18_HARSA
p400
aVE2BN18
p401
aVHarpegnathos saltator
p402
aI610380
aS'555'
p403
aF0.0
aS'65'
p404
aS'74'
p405
a(lp406
(lp407
g15
ag16
aS'0.92'
p408
aa(lp409
g19
ag20
aS'0.5'
p410
aa(lp411
g175
ag176
aS'0.39'
p412
aaaa(lp413
VF4WP97_ACREC
p414
aVF4WP97
p415
aVAcromyrmex echinatior
p416
aI103372
aS'553'
p417
aF0.0
aS'65'
p418
aS'74'
p419
a(lp420
(lp421
g15
ag16
aS'0.92'
p422
aa(lp423
g19
ag20
aS'0.5'
p424
aa(lp425
g175
ag176
aS'0.4'
p426
aaaa(lp427
VA7UR98_ANOGA
p428
aVA7UR98
p429
aVAnopheles gambiae
p430
aI7165
aS'543'
p431
aF0.0
aS'67'
p432
aS'78'
p433
a(lp434
(lp435
g15
ag16
aS'0.92'
p436
aa(lp437
g19
ag20
aS'0.69'
p438
aa(lp439
g23
ag24
aS'0.57'
p440
aa(lp441
g27
ag28
aS'0.57'
p442
aa(lp443
g31
ag32
aS'0.56'
p444
aa(lp445
g35
ag36
aS'0.55'
p446
aa(lp447
g39
ag40
aS'0.52'
p448
aaaa(lp449
VE9H747_DAPPU
p450
aVE9H747
p451
aVDaphnia pulex
p452
aI6669
aS'539'
p453
aF0.0
aS'60'
p454
aS'80'
p455
a(lp456
(lp457
g15
ag16
aS'0.92'
p458
aa(lp459
g19
ag20
aS'0.47'
p460
aa(lp461
g175
ag176
aS'0.38'
p462
aaaa(lp463
VG6DRS5_DANPL
p464
aVG6DRS5
p465
aVDanaus plexippus
p466
aI13037
aS'540'
p467
aF0.0
aS'61'
p468
aS'82'
p469
a(lp470
(lp471
g15
ag16
aS'0.92'
p472
aa(lp473
g19
ag20
aS'0.51'
p474
aaaa(lp475
VQ7QJL2_ANOGA
p476
aVQ7QJL2
p477
ag430
aI7165
aS'538'
p478
aF0.0
aS'68'
p479
aS'77'
p480
a(lp481
(lp482
g15
ag16
aS'0.92'
p483
aa(lp484
g19
ag20
aS'0.57'
p485
aaaa(lp486
VE0VXY1_PEDHC
p487
aVE0VXY1
p488
aVPediculus humanus corporis
p489
aI121224
aS'528'
p490
aF0.0
aS'64'
p491
aS'75'
p492
a(lp493
(lp494
g15
ag16
aS'0.92'
p495
aa(lp496
g19
ag20
aS'0.5'
p497
aa(lp498
g175
ag176
aS'0.38'
p499
aaaa(lp500
VH6VTQ4_BOMMO
p501
aVH6VTQ4
p502
aVBombyx mori
p503
aI7091
aS'518'
p504
aF1.25193e-175
aS'65'
p505
aS'77'
p506
a(lp507
(lp508
g15
ag16
aS'0.92'
p509
aa(lp510
g19
ag20
aS'0.57'
p511
aaaa(lp512
VD1ZZJ9_TRICA
p513
aVD1ZZJ9
p514
aVTribolium castaneum
p515
aI7070
aS'504'
p516
aF2.42195e-171
aS'62'
p517
aS'79'
p518
a(lp519
(lp520
g15
ag16
aS'0.92'
p521
aa(lp522
g19
ag20
aS'0.5'
p523
aa(lp524
g175
ag176
aS'0.38'
p525
aaaa(lp526
VB0WJM4_CULQU
p527
aVB0WJM4
p528
aVCulex quinquefasciatus
p529
aI7176
aS'470'
p530
aF1.26284e-158
aS'74'
p531
aS'55'
p532
a(lp533
(lp534
g15
ag16
aS'0.95'
p535
aa(lp536
g19
ag20
aS'0.59'
p537
aa(lp538
g23
ag24
aS'0.59'
p539
aa(lp540
g27
ag28
aS'0.58'
p541
aa(lp542
g35
ag36
aS'0.57'
p543
aa(lp544
g31
ag32
aS'0.57'
p545
aa(lp546
g39
ag40
aS'0.54'
p547
aaaa(lp548
VA1A4J9_BOVIN
p549
aVA1A4J9
p550
aVBos taurus
p551
aI9913
aS'427'
p552
aF3.07163e-141
aS'53'
p553
aS'75'
p554
a(lp555
(lp556
g15
ag16
aS'0.9'
p557
aa(lp558
VGO:0030544
p559
aVHsp70 protein binding
p560
aS'0.69'
p561
aaaa(lp562
VD2HQ81_AILME
p563
aVD2HQ81
p564
aVAiluropoda melanoleuca
p565
aI9646
aS'424'
p566
aF8.16036e-140
aS'52'
p567
aS'77'
p568
a(lp569
(lp570
g15
ag16
aS'0.9'
p571
aa(lp572
g559
ag560
aS'0.69'
p573
aaaaaa(lp574
Vseq1
p575
a(lp576
(lp577
g7
ag8
ag9
aI7227
aS'1076'
p578
aF0.0
aS'100'
p579
aS'100'
p580
a(lp581
(lp582
g15
ag16
aS'0.92'
p583
aa(lp584
g19
ag20
aS'0.8'
p585
aa(lp586
g23
ag24
aS'0.74'
p587
aa(lp588
g27
ag28
aS'0.74'
p589
aa(lp590
g31
ag32
aS'0.73'
p591
aa(lp592
g35
ag36
aS'0.73'
p593
aa(lp594
g39
ag40
aS'0.72'
p595
aaaa(lp596
g43
ag8
ag9
aI7227
aS'1073'
p597
aF0.0
aS'100'
p598
aS'100'
p599
a(lp600
(lp601
g15
ag16
aS'0.92'
p602
aa(lp603
g19
ag20
aS'0.8'
p604
aa(lp605
g23
ag24
aS'0.74'
p606
aa(lp607
g27
ag28
aS'0.74'
p608
aa(lp609
g31
ag32
aS'0.73'
p610
aa(lp611
g35
ag36
aS'0.73'
p612
aa(lp613
g39
ag40
aS'0.72'
p614
aaaa(lp615
g63
ag8
ag9
aI7227
aS'1063'
p616
aF0.0
aS'99'
p617
aS'100'
p618
a(lp619
(lp620
g15
ag16
aS'0.92'
p621
aa(lp622
g19
ag20
aS'0.8'
p623
aa(lp624
g23
ag24
aS'0.74'
p625
aa(lp626
g27
ag28
aS'0.74'
p627
aa(lp628
g31
ag32
aS'0.73'
p629
aa(lp630
g35
ag36
aS'0.73'
p631
aa(lp632
g39
ag40
aS'0.72'
p633
aaaa(lp634
g83
ag8
ag9
aI7227
aS'1059'
p635
aF0.0
aS'99'
p636
aS'100'
p637
a(lp638
(lp639
g15
ag16
aS'0.92'
p640
aa(lp641
g19
ag20
aS'0.8'
p642
aa(lp643
g23
ag24
aS'0.74'
p644
aa(lp645
g27
ag28
aS'0.74'
p646
aa(lp647
g31
ag32
aS'0.73'
p648
aa(lp649
g35
ag36
aS'0.73'
p650
aa(lp651
g39
ag40
aS'0.72'
p652
aaaa(lp653
g103
ag8
ag9
aI7227
aS'932'
p654
aF0.0
aS'100'
p655
aS'86'
p656
a(lp657
(lp658
g15
ag16
aS'0.92'
p659
aa(lp660
g19
ag20
aS'0.8'
p661
aa(lp662
g23
ag24
aS'0.74'
p663
aa(lp664
g27
ag28
aS'0.74'
p665
aa(lp666
g31
ag32
aS'0.73'
p667
aa(lp668
g35
ag36
aS'0.73'
p669
aa(lp670
g39
ag40
aS'0.72'
p671
aaaa(lp672
g123
ag8
ag9
aI7227
aS'929'
p673
aF0.0
aS'99'
p674
aS'86'
p675
a(lp676
(lp677
g15
ag16
aS'0.92'
p678
aa(lp679
g19
ag20
aS'0.8'
p680
aa(lp681
g23
ag24
aS'0.74'
p682
aa(lp683
g27
ag28
aS'0.74'
p684
aa(lp685
g31
ag32
aS'0.73'
p686
aa(lp687
g35
ag36
aS'0.73'
p688
aa(lp689
g39
ag40
aS'0.72'
p690
aaaa(lp691
g143
ag144
ag9
aI7227
aS'860'
p692
aF0.0
aS'99'
p693
aS'85'
p694
a(lp695
(lp696
g15
ag16
aS'0.91'
p697
aa(lp698
g19
ag20
aS'0.81'
p699
aa(lp700
g23
ag24
aS'0.75'
p701
aa(lp702
g27
ag28
aS'0.75'
p703
aa(lp704
g31
ag32
aS'0.74'
p705
aa(lp706
g35
ag36
aS'0.74'
p707
aa(lp708
g39
ag40
aS'0.73'
p709
aaaa(lp710
g164
ag165
ag9
aI7227
aS'855'
p711
aF0.0
aS'99'
p712
aS'85'
p713
a(lp714
(lp715
g15
ag16
aS'0.92'
p716
aa(lp717
g19
ag20
aS'0.5'
p718
aa(lp719
g175
ag176
aS'0.41'
p720
aaaa(lp721
g179
ag180
ag181
aI7240
aS'850'
p722
aF0.0
aS'97'
p723
aS'87'
p724
a(lp725
(lp726
g15
ag16
aS'0.91'
p727
aa(lp728
g19
ag20
aS'0.84'
p729
aa(lp730
g23
ag24
aS'0.8'
p731
aa(lp732
g31
ag32
aS'0.8'
p733
aa(lp734
g27
ag28
aS'0.8'
p735
aa(lp736
g35
ag36
aS'0.8'
p737
aa(lp738
g39
ag40
aS'0.79'
p739
aaaa(lp740
g201
ag202
ag203
aI7245
aS'845'
p741
aF0.0
aS'96'
p742
aS'87'
p743
a(lp744
(lp745
g15
ag16
aS'0.92'
p746
aa(lp747
g19
ag20
aS'0.59'
p748
aaaa(lp749
g213
ag214
ag215
aI7220
aS'837'
p750
aF0.0
aS'95'
p751
aS'87'
p752
a(lp753
(lp754
g15
ag16
aS'0.92'
p755
aa(lp756
g19
ag20
aS'0.59'
p757
aaaa(lp758
g225
ag226
ag227
aI7238
aS'770'
p759
aF0.0
aS'86'
p760
aS'87'
p761
a(lp762
(lp763
g15
ag16
aS'0.91'
p764
aa(lp765
g19
ag20
aS'0.81'
p766
aa(lp767
g27
ag28
aS'0.75'
p768
aa(lp769
g23
ag24
aS'0.75'
p770
aa(lp771
g35
ag36
aS'0.75'
p772
aa(lp773
g31
ag32
aS'0.75'
p774
aa(lp775
g39
ag40
aS'0.73'
p776
aaaa(lp777
g247
ag248
ag249
aI7217
aS'748'
p778
aF0.0
aS'85'
p779
aS'85'
p780
a(lp781
(lp782
g15
ag16
aS'0.92'
p783
aa(lp784
g19
ag20
aS'0.55'
p785
aaaa(lp786
g259
ag260
ag261
aI7244
aS'717'
p787
aF0.0
aS'72'
p788
aS'100'
p789
a(lp790
(lp791
g15
ag16
aS'0.92'
p792
aa(lp793
g19
ag20
aS'0.64'
p794
aa(lp795
g23
ag24
aS'0.49'
p796
aa(lp797
g27
ag28
aS'0.49'
p798
aaaa(lp799
g275
ag276
ag277
aI7234
aS'714'
p800
aF0.0
aS'73'
p801
aS'100'
p802
a(lp803
(lp804
g15
ag16
aS'0.92'
p805
aa(lp806
g19
ag20
aS'0.59'
p807
aaaa(lp808
g287
ag288
ag289
aI46245
aS'712'
p809
aF0.0
aS'73'
p810
aS'100'
p811
a(lp812
(lp813
g15
ag16
aS'0.92'
p814
aa(lp815
g19
ag20
aS'0.59'
p816
aaaa(lp817
g299
ag300
ag301
aI7222
aS'701'
p818
aF0.0
aS'77'
p819
aS'85'
p820
a(lp821
(lp822
g15
ag16
aS'0.92'
p823
aa(lp824
g19
ag20
aS'0.56'
p825
aaaa(lp826
g311
ag312
ag313
aI7230
aS'699'
p827
aF0.0
aS'75'
p828
aS'85'
p829
a(lp830
(lp831
g15
ag16
aS'0.92'
p832
aa(lp833
g19
ag20
aS'0.56'
p834
aaaa(lp835
g323
ag324
ag325
aI7260
aS'696'
p836
aF0.0
aS'78'
p837
aS'85'
p838
a(lp839
(lp840
g15
ag16
aS'0.92'
p841
aa(lp842
g19
ag20
aS'0.51'
p843
aa(lp844
g175
ag176
aS'0.39'
p845
aaaa(lp846
g337
ag338
ag261
aI7244
aS'687'
p847
aF0.0
aS'77'
p848
aS'85'
p849
a(lp850
(lp851
g15
ag16
aS'0.92'
p852
aa(lp853
g19
ag20
aS'0.64'
p854
aa(lp855
g23
ag24
aS'0.49'
p856
aa(lp857
g27
ag28
aS'0.49'
p858
aaaa(lp859
g352
ag353
ag354
aI7159
aS'615'
p860
aF0.0
aS'73'
p861
aS'75'
p862
a(lp863
(lp864
g15
ag16
aS'0.92'
p865
aa(lp866
g19
ag20
aS'0.65'
p867
aa(lp868
g23
ag24
aS'0.5'
p869
aa(lp870
g27
ag28
aS'0.5'
p871
aa(lp872
g31
ag32
aS'0.49'
p873
aa(lp874
g35
ag36
aS'0.49'
p875
aaaa(lp876
g372
ag373
ag374
aI13686
aS'565'
p877
aF0.0
aS'63'
p878
aS'83'
p879
a(lp880
(lp881
g15
ag16
aS'0.92'
p882
aa(lp883
g19
ag20
aS'0.5'
p884
aa(lp885
g175
ag176
aS'0.39'
p886
aaaa(lp887
g386
ag387
ag388
aI104421
aS'560'
p888
aF0.0
aS'61'
p889
aS'84'
p890
a(lp891
(lp892
g15
ag16
aS'0.92'
p893
aa(lp894
g19
ag20
aS'0.5'
p895
aa(lp896
g175
ag176
aS'0.39'
p897
aaaa(lp898
g400
ag401
ag402
aI610380
aS'555'
p899
aF0.0
aS'65'
p900
aS'74'
p901
a(lp902
(lp903
g15
ag16
aS'0.92'
p904
aa(lp905
g19
ag20
aS'0.5'
p906
aa(lp907
g175
ag176
aS'0.39'
p908
aaaa(lp909
g414
ag415
ag416
aI103372
aS'553'
p910
aF0.0
aS'65'
p911
aS'74'
p912
a(lp913
(lp914
g15
ag16
aS'0.92'
p915
aa(lp916
g19
ag20
aS'0.5'
p917
aa(lp918
g175
ag176
aS'0.4'
p919
aaaa(lp920
g428
ag429
ag430
aI7165
aS'543'
p921
aF0.0
aS'67'
p922
aS'78'
p923
a(lp924
(lp925
g15
ag16
aS'0.92'
p926
aa(lp927
g19
ag20
aS'0.69'
p928
aa(lp929
g23
ag24
aS'0.57'
p930
aa(lp931
g27
ag28
aS'0.57'
p932
aa(lp933
g31
ag32
aS'0.56'
p934
aa(lp935
g35
ag36
aS'0.55'
p936
aa(lp937
g39
ag40
aS'0.52'
p938
aaaa(lp939
g450
ag451
ag452
aI6669
aS'539'
p940
aF0.0
aS'60'
p941
aS'80'
p942
a(lp943
(lp944
g15
ag16
aS'0.92'
p945
aa(lp946
g19
ag20
aS'0.47'
p947
aa(lp948
g175
ag176
aS'0.38'
p949
aaaa(lp950
g464
ag465
ag466
aI13037
aS'540'
p951
aF0.0
aS'61'
p952
aS'82'
p953
a(lp954
(lp955
g15
ag16
aS'0.92'
p956
aa(lp957
g19
ag20
aS'0.51'
p958
aaaa(lp959
g476
ag477
ag430
aI7165
aS'538'
p960
aF0.0
aS'68'
p961
aS'77'
p962
a(lp963
(lp964
g15
ag16
aS'0.92'
p965
aa(lp966
g19
ag20
aS'0.57'
p967
aaaa(lp968
g487
ag488
ag489
aI121224
aS'528'
p969
aF0.0
aS'64'
p970
aS'75'
p971
a(lp972
(lp973
g15
ag16
aS'0.92'
p974
aa(lp975
g19
ag20
aS'0.5'
p976
aa(lp977
g175
ag176
aS'0.38'
p978
aaaa(lp979
g501
ag502
ag503
aI7091
aS'518'
p980
aF1.25193e-175
aS'65'
p981
aS'77'
p982
a(lp983
(lp984
g15
ag16
aS'0.92'
p985
aa(lp986
g19
ag20
aS'0.57'
p987
aaaa(lp988
g513
ag514
ag515
aI7070
aS'504'
p989
aF2.42195e-171
aS'62'
p990
aS'79'
p991
a(lp992
(lp993
g15
ag16
aS'0.92'
p994
aa(lp995
g19
ag20
aS'0.5'
p996
aa(lp997
g175
ag176
aS'0.38'
p998
aaaa(lp999
g527
ag528
ag529
aI7176
aS'470'
p1000
aF1.26284e-158
aS'74'
p1001
aS'55'
p1002
a(lp1003
(lp1004
g15
ag16
aS'0.95'
p1005
aa(lp1006
g19
ag20
aS'0.59'
p1007
aa(lp1008
g23
ag24
aS'0.59'
p1009
aa(lp1010
g27
ag28
aS'0.58'
p1011
aa(lp1012
g35
ag36
aS'0.57'
p1013
aa(lp1014
g31
ag32
aS'0.57'
p1015
aa(lp1016
g39
ag40
aS'0.54'
p1017
aaaa(lp1018
g549
ag550
ag551
aI9913
aS'427'
p1019
aF3.07163e-141
aS'53'
p1020
aS'75'
p1021
a(lp1022
(lp1023
g15
ag16
aS'0.9'
p1024
aa(lp1025
g559
ag560
aS'0.69'
p1026
aaaa(lp1027
g563
ag564
ag565
aI9646
aS'424'
p1028
aF8.16036e-140
aS'52'
p1029
aS'77'
p1030
a(lp1031
(lp1032
g15
ag16
aS'0.9'
p1033
aa(lp1034
g559
ag560
aS'0.69'
p1035
aaaaaas.