(dp0
S'result'
p1
(lp2
(lp3
VF1SU64_PIG
p4
aVF1SU64
p5
aVSus scrofa
p6
aI9823
a(lp7
(lp8
VGO:0019911
p9
aVstructural constituent of myelin sheath
p10
aS'0.82'
p11
aa(lp12
VGO:0008119
p13
aVthiopurine S-methyltransferase activity
p14
aS'0.05'
p15
aaaa(lp16
VF1RMG9_PIG
p17
aVF1RMG9
p18
aVSus scrofa
p19
aI9823
a(lp20
(lp21
g9
ag10
aS'0.78'
p22
aa(lp23
g13
ag14
aS'0.21'
p24
aa(lp25
VGO:0042169
p26
aVSH2 domain binding
p27
aS'0.18'
p28
aa(lp29
VGO:0015267
p30
aVchannel activity
p31
aS'0.18'
p32
aa(lp33
VGO:0016505
p34
aVpeptidase activator activity involved in apoptotic process
p35
aS'0.18'
p36
aa(lp37
VGO:0015075
p38
aVion transmembrane transporter activity
p39
aS'0.18'
p40
aa(lp41
VGO:0005509
p42
aVcalcium ion binding
p43
aS'0.18'
p44
aa(lp45
VGO:0042802
p46
aVidentical protein binding
p47
aS'0.18'
p48
aa(lp49
VGO:0032403
p50
aVprotein complex binding
p51
aS'0.18'
p52
aa(lp53
VGO:0017075
p54
aVsyntaxin-1 binding
p55
aS'0.18'
p56
aa(lp57
VGO:0047485
p58
aVprotein N-terminus binding
p59
aS'0.18'
p60
aa(lp61
VGO:0015485
p62
aVcholesterol binding
p63
aS'0.18'
p64
aa(lp65
VGO:0019956
p66
aVchemokine binding
p67
aS'0.18'
p68
aaaa(lp69
VF1SKR1_PIG
p70
aVF1SKR1
p71
aVSus scrofa
p72
aI9823
a(lp73
(lp74
g9
ag10
aS'0.78'
p75
aa(lp76
g13
ag14
aS'0.21'
p77
aa(lp78
g26
ag27
aS'0.18'
p79
aa(lp80
g30
ag31
aS'0.18'
p81
aa(lp82
g34
ag35
aS'0.18'
p83
aa(lp84
g38
ag39
aS'0.18'
p85
aa(lp86
g42
ag43
aS'0.18'
p87
aa(lp88
g46
ag47
aS'0.18'
p89
aa(lp90
g50
ag51
aS'0.18'
p91
aa(lp92
g54
ag55
aS'0.18'
p93
aa(lp94
g58
ag59
aS'0.18'
p95
aa(lp96
g62
ag63
aS'0.18'
p97
aa(lp98
g66
ag67
aS'0.18'
p99
aaaa(lp100
VF1RF33_PIG
p101
aVF1RF33
p102
aVSus scrofa
p103
aI9823
a(lp104
(lp105
g9
ag10
aS'0.82'
p106
aa(lp107
g13
ag14
aS'0.15'
p108
aaaa(lp109
VF1SKR4_PIG
p110
aVF1SKR4
p111
aVSus scrofa
p112
aI9823
a(lp113
(lp114
g9
ag10
aS'0.91'
p115
aa(lp116
g13
ag14
aS'0.27'
p117
aa(lp118
g26
ag27
aS'0.21'
p119
aa(lp120
g30
ag31
aS'0.21'
p121
aa(lp122
g34
ag35
aS'0.21'
p123
aa(lp124
g38
ag39
aS'0.21'
p125
aa(lp126
g42
ag43
aS'0.21'
p127
aa(lp128
g46
ag47
aS'0.21'
p129
aa(lp130
g50
ag51
aS'0.21'
p131
aa(lp132
g54
ag55
aS'0.21'
p133
aa(lp134
g58
ag59
aS'0.21'
p135
aa(lp136
g62
ag63
aS'0.21'
p137
aa(lp138
g66
ag67
aS'0.21'
p139
aaaa(lp140
VF1RNK3_PIG
p141
aVF1RNK3
p142
aVSus scrofa
p143
aI9823
a(lp144
(lp145
g9
ag10
aS'0.91'
p146
aa(lp147
g13
ag14
aS'0.23'
p148
aaaa(lp149
VF1SKR2_PIG
p150
aVF1SKR2
p151
aVSus scrofa
p152
aI9823
a(lp153
(lp154
g9
ag10
aS'0.91'
p155
aa(lp156
g13
ag14
aS'0.26'
p157
aa(lp158
g26
ag27
aS'0.2'
p159
aa(lp160
g30
ag31
aS'0.2'
p161
aa(lp162
g34
ag35
aS'0.2'
p163
aa(lp164
g38
ag39
aS'0.2'
p165
aa(lp166
g42
ag43
aS'0.2'
p167
aa(lp168
g46
ag47
aS'0.2'
p169
aa(lp170
g50
ag51
aS'0.2'
p171
aa(lp172
g54
ag55
aS'0.2'
p173
aa(lp174
g58
ag59
aS'0.2'
p175
aa(lp176
g62
ag63
aS'0.2'
p177
aa(lp178
g66
ag67
aS'0.2'
p179
aaaa(lp180
VF1S8X5_PIG
p181
aVF1S8X5
p182
aVSus scrofa
p183
aI9823
a(lp184
(lp185
g9
ag10
aS'0.81'
p186
aa(lp187
g13
ag14
aS'0.14'
p188
aaaa(lp189
VF1SKR8_PIG
p190
aVF1SKR8
p191
aVSus scrofa
p192
aI9823
a(lp193
(lp194
g9
ag10
aS'0.78'
p195
aa(lp196
g13
ag14
aS'0.27'
p197
aaaa(lp198
VF1S3D3_PIG
p199
aVF1S3D3
p200
aVSus scrofa
p201
aI9823
a(lp202
(lp203
g9
ag10
aS'0.79'
p204
aa(lp205
g13
ag14
aS'0.3'
p206
aaaa(lp207
VC3UP60_PIG
p208
aVC3UP60
p209
aVSus scrofa
p210
aI9823
a(lp211
(lp212
g9
ag10
aS'0.83'
p213
aa(lp214
g26
ag27
aS'0.05'
p215
aa(lp216
g66
ag67
aS'0.05'
p217
aa(lp218
g46
ag47
aS'0.04'
p219
aa(lp220
g50
ag51
aS'0.04'
p221
aa(lp222
g54
ag55
aS'0.04'
p223
aa(lp224
g58
ag59
aS'0.04'
p225
aaaas.