(dp0
S'result'
p1
(lp2
(lp3
Vseq1
p4
a(lp5
(lp6
VE3MMF1_CAERE
p7
aVE3MMF1
p8
aVCaenorhabditis remanei
p9
aI31234
aF1258.82
aF0.0
aS'95'
p10
a(lp11
(lp12
VGO:0015349
p13
aVthyroid hormone transmembrane transporter activity
p14
aS'0.82'
p15
aa(lp16
VGO:0015132
p17
aVprostaglandin transmembrane transporter activity
p18
aS'0.22'
p19
aa(lp20
VGO:0015125
p21
aVbile acid transmembrane transporter activity
p22
aS'0.19'
p23
aa(lp24
VGO:0015238
p25
aVdrug transmembrane transporter activity
p26
aS'0.18'
p27
aa(lp28
VGO:0015198
p29
aVoligopeptide transporter activity
p30
aS'0.18'
p31
aa(lp32
VGO:0015347
p33
aVsodium-independent organic anion transmembrane transporter activity
p34
aS'0.18'
p35
aaaa(lp36
VG0MHZ3_CAEBE
p37
aVG0MHZ3
p38
aVCaenorhabditis brenneri
p39
aI135651
aF1237.25
aF0.0
aS'93'
p40
a(lp41
(lp42
g13
ag14
aS'0.82'
p43
aa(lp44
g17
ag18
aS'0.22'
p45
aa(lp46
g21
ag22
aS'0.19'
p47
aa(lp48
g25
ag26
aS'0.18'
p49
aa(lp50
g29
ag30
aS'0.18'
p51
aa(lp52
g33
ag34
aS'0.18'
p53
aaaa(lp54
VQ93550_CAEEL
p55
aVQ93550
p56
aVCaenorhabditis elegans
p57
aI6239
aF1230.7
aF0.0
aS'92'
p58
a(lp59
(lp60
g13
ag14
aS'0.82'
p61
aa(lp62
g17
ag18
aS'0.22'
p63
aa(lp64
g25
ag26
aS'0.18'
p65
aa(lp66
g21
ag22
aS'0.18'
p67
aa(lp68
g29
ag30
aS'0.18'
p69
aa(lp70
g33
ag34
aS'0.18'
p71
aaaa(lp72
VE1FKB9_LOALO
p73
aVE1FKB9
p74
aVLoa loa
p75
aI7209
aF561.607
aF0.0
aS'45'
p76
a(lp77
(lp78
g13
ag14
aS'0.82'
p79
aa(lp80
g17
ag18
aS'0.21'
p81
aa(lp82
g25
ag26
aS'0.18'
p83
aa(lp84
g21
ag22
aS'0.18'
p85
aa(lp86
g29
ag30
aS'0.18'
p87
aa(lp88
g33
ag34
aS'0.18'
p89
aaaa(lp90
VA8PR64_BRUMA
p91
aVA8PR64
p92
aVBrugia malayi
p93
aI6279
aF502.671
aF2.34118e-166
aS'43'
p94
a(lp95
(lp96
g13
ag14
aS'0.82'
p97
aa(lp98
g17
ag18
aS'0.22'
p99
aa(lp100
g21
ag22
aS'0.19'
p101
aa(lp102
g25
ag26
aS'0.18'
p103
aa(lp104
g29
ag30
aS'0.18'
p105
aa(lp106
g33
ag34
aS'0.18'
p107
aaaa(lp108
VE5SJE0_TRISP
p109
aVE5SJE0
p110
aVTrichinella spiralis
p111
aI6334
aF394.43
aF6.10975e-125
aS'40'
p112
a(lp113
(lp114
g13
ag14
aS'0.81'
p115
aa(lp116
g17
ag18
aS'0.22'
p117
aa(lp118
g21
ag22
aS'0.19'
p119
aa(lp120
g33
ag34
aS'0.19'
p121
aa(lp122
g25
ag26
aS'0.18'
p123
aa(lp124
g29
ag30
aS'0.18'
p125
aaaa(lp126
VE5SJD8_TRISP
p127
aVE5SJD8
p128
ag111
aI6334
aF366.311
aF6.47387e-114
aS'47'
p129
a(lp130
(lp131
g13
ag14
aS'0.81'
p132
aa(lp133
g17
ag18
aS'0.19'
p134
aa(lp135
g21
ag22
aS'0.16'
p136
aa(lp137
g25
ag26
aS'0.15'
p138
aa(lp139
g29
ag30
aS'0.15'
p140
aa(lp141
g33
ag34
aS'0.15'
p142
aaaa(lp143
VC3Y4T6_BRAFL
p144
aVC3Y4T6
p145
aVBranchiostoma floridae
p146
aI7739
aF274.248
aF3.2644e-79
aS'29'
p147
a(lp148
(lp149
g13
ag14
aS'0.81'
p150
aa(lp151
g17
ag18
aS'0.19'
p152
aaaa(lp153
VA4IIQ0_XENTR
p154
aVA4IIQ0
p155
aVXenopus (Silurana) tropicalis
p156
aI8364
aF267.7
aF4.53269e-76
aS'28'
p157
a(lp158
(lp159
g17
ag18
aS'0.91'
p160
aa(lp161
g33
ag34
aS'0.48'
p162
aaaa(lp163
VE1C5S3_CHICK
p164
aVE1C5S3
p165
aVGallus gallus
p166
aI9031
aF260.766
aF1.98969e-73
aS'28'
p167
a(lp168
(lp169
g17
ag18
aS'0.91'
p170
aa(lp171
g33
ag34
aS'0.45'
p172
aaaa(lp173
VA4IG10_DANRE
p174
aVA4IG10
p175
aVDanio rerio
p176
aI7955
aF259.996
aF3.72414e-73
aS'29'
p177
a(lp178
(lp179
g17
ag18
aS'0.84'
p180
aa(lp181
g33
ag34
aS'0.75'
p182
aaaa(lp183
VF1Q4Y9_DANRE
p184
aVF1Q4Y9
p185
ag176
aI7955
aF259.61
aF7.20339e-73
aS'29'
p186
a(lp187
(lp188
g17
ag18
aS'0.82'
p189
aa(lp190
g33
ag34
aS'0.75'
p191
aaaa(lp192
VG1SCG0_RABIT
p193
aVG1SCG0
p194
aVOryctolagus cuniculus
p195
aI9986
aF253.447
aF6.71522e-71
aS'29'
p196
a(lp197
(lp198
g17
ag18
aS'0.91'
p199
aa(lp200
g21
ag22
aS'0.15'
p201
aaaa(lp202
VQ5FX75_CANFA
p203
aVQ5FX75
p204
aVCanis lupus familiaris
p205
aI9615
aF251.906
aF2.20936e-70
aS'29'
p206
a(lp207
(lp208
g17
ag18
aS'0.91'
p209
aa(lp210
g21
ag22
aS'0.15'
p211
aaaa(lp212
VH9J2D0_BOMMO
p213
aVH9J2D0
p214
aVBombyx mori
p215
aI7091
aF256.144
aF5.09181e-70
aS'27'
p216
a(lp217
(lp218
g13
ag14
aS'0.79'
p219
aa(lp220
g21
ag22
aS'0.76'
p221
aaaa(lp222
VG5BQA6_HETGA
p223
aVG5BQA6
p224
aVHeterocephalus glaber
p225
aI10181
aF245.743
aF2.36485e-68
aS'29'
p226
a(lp227
(lp228
g17
ag18
aS'0.91'
p229
aa(lp230
g21
ag22
aS'0.16'
p231
aaaaaas.