(dp0
S'result'
p1
(lp2
(lp3
Vseq2
p4
a(lp5
(lp6
VTID_DROME
p7
aVQ27237
p8
aVDrosophila melanogaster
p9
aI7227
aF1076.23
aF0.0
aS'100'
p10
aS'100'
p11
a(lp12
(lp13
VGO:0050750
p14
aVlow-density lipoprotein particle receptor binding
p15
aS'0.92'
p16
aa(lp17
VGO:0019901
p18
aVprotein kinase binding
p19
aS'0.8'
p20
aa(lp21
VGO:0051059
p22
aVNF-kappaB binding
p23
aS'0.74'
p24
aa(lp25
VGO:0005133
p26
aVinterferon-gamma receptor binding
p27
aS'0.74'
p28
aa(lp29
VGO:0051082
p30
aVunfolded protein binding
p31
aS'0.73'
p32
aa(lp33
VGO:0008270
p34
aVzinc ion binding
p35
aS'0.73'
p36
aa(lp37
VGO:0003756
p38
aVprotein disulfide isomerase activity
p39
aS'0.72'
p40
aaaa(lp41
VTID_DROME
p42
ag8
ag9
aI7227
aF1073.15
aF0.0
aS'100'
p43
aS'100'
p44
a(lp45
(lp46
g14
ag15
aS'0.92'
p47
aa(lp48
g18
ag19
aS'0.8'
p49
aa(lp50
g22
ag23
aS'0.74'
p51
aa(lp52
g26
ag27
aS'0.74'
p53
aa(lp54
g30
ag31
aS'0.73'
p55
aa(lp56
g34
ag35
aS'0.73'
p57
aa(lp58
g38
ag39
aS'0.72'
p59
aaaa(lp60
VTID_DROME
p61
ag8
ag9
aI7227
aF1063.52
aF0.0
aS'99'
p62
aS'100'
p63
a(lp64
(lp65
g14
ag15
aS'0.92'
p66
aa(lp67
g18
ag19
aS'0.8'
p68
aa(lp69
g22
ag23
aS'0.74'
p70
aa(lp71
g26
ag27
aS'0.74'
p72
aa(lp73
g30
ag31
aS'0.73'
p74
aa(lp75
g34
ag35
aS'0.73'
p76
aa(lp77
g38
ag39
aS'0.72'
p78
aaaa(lp79
VTID_DROME
p80
ag8
ag9
aI7227
aF1059.28
aF0.0
aS'99'
p81
aS'100'
p82
a(lp83
(lp84
g14
ag15
aS'0.92'
p85
aa(lp86
g18
ag19
aS'0.8'
p87
aa(lp88
g22
ag23
aS'0.74'
p89
aa(lp90
g26
ag27
aS'0.74'
p91
aa(lp92
g30
ag31
aS'0.73'
p93
aa(lp94
g34
ag35
aS'0.73'
p95
aa(lp96
g38
ag39
aS'0.72'
p97
aaaa(lp98
VTID_DROME
p99
ag8
ag9
aI7227
aF932.939
aF0.0
aS'100'
p100
aS'86'
p101
a(lp102
(lp103
g14
ag15
aS'0.92'
p104
aa(lp105
g18
ag19
aS'0.8'
p106
aa(lp107
g22
ag23
aS'0.74'
p108
aa(lp109
g26
ag27
aS'0.74'
p110
aa(lp111
g30
ag31
aS'0.73'
p112
aa(lp113
g34
ag35
aS'0.73'
p114
aa(lp115
g38
ag39
aS'0.72'
p116
aaaa(lp117
VTID_DROME
p118
ag8
ag9
aI7227
aF929.087
aF0.0
aS'99'
p119
aS'86'
p120
a(lp121
(lp122
g14
ag15
aS'0.92'
p123
aa(lp124
g18
ag19
aS'0.8'
p125
aa(lp126
g22
ag23
aS'0.74'
p127
aa(lp128
g26
ag27
aS'0.74'
p129
aa(lp130
g30
ag31
aS'0.73'
p131
aa(lp132
g34
ag35
aS'0.73'
p133
aa(lp134
g38
ag39
aS'0.72'
p135
aaaa(lp136
VQ7KVH7_DROME
p137
aVQ7KVH7
p138
ag9
aI7227
aF860.136
aF0.0
aS'99'
p139
aS'85'
p140
a(lp141
(lp142
g14
ag15
aS'0.91'
p143
aa(lp144
g18
ag19
aS'0.81'
p145
aa(lp146
g22
ag23
aS'0.75'
p147
aa(lp148
g26
ag27
aS'0.75'
p149
aa(lp150
g30
ag31
aS'0.74'
p151
aa(lp152
g34
ag35
aS'0.74'
p153
aa(lp154
g38
ag39
aS'0.73'
p155
aaaa(lp156
VD6W4V2_DROME
p157
aVD6W4V2
p158
ag9
aI7227
aF855.129
aF0.0
aS'99'
p159
aS'85'
p160
a(lp161
(lp162
g14
ag15
aS'0.92'
p163
aa(lp164
g18
ag19
aS'0.5'
p165
aa(lp166
VGO:0042393
p167
aVhistone binding
p168
aS'0.41'
p169
aaaa(lp170
VB4QAY0_DROSI
p171
aVB4QAY0
p172
aVDrosophila simulans
p173
aI7240
aF850.121
aF0.0
aS'97'
p174
aS'87'
p175
a(lp176
(lp177
g14
ag15
aS'0.91'
p178
aa(lp179
g18
ag19
aS'0.84'
p180
aa(lp181
g22
ag23
aS'0.8'
p182
aa(lp183
g30
ag31
aS'0.8'
p184
aa(lp185
g26
ag27
aS'0.8'
p186
aa(lp187
g34
ag35
aS'0.8'
p188
aa(lp189
g38
ag39
aS'0.79'
p190
aaaa(lp191
VB4P9R9_DROYA
p192
aVB4P9R9
p193
aVDrosophila yakuba
p194
aI7245
aF845.114
aF0.0
aS'96'
p195
aS'87'
p196
a(lp197
(lp198
g14
ag15
aS'0.92'
p199
aa(lp200
g18
ag19
aS'0.59'
p201
aaaa(lp202
VB3NPR2_DROER
p203
aVB3NPR2
p204
aVDrosophila erecta
p205
aI7220
aF837.025
aF0.0
aS'95'
p206
aS'87'
p207
a(lp208
(lp209
g14
ag15
aS'0.92'
p210
aa(lp211
g18
ag19
aS'0.59'
p212
aaaa(lp213
VB4I8S2_DROSE
p214
aVB4I8S2
p215
aVDrosophila sechellia
p216
aI7238
aF770.385
aF0.0
aS'86'
p217
aS'87'
p218
a(lp219
(lp220
g14
ag15
aS'0.91'
p221
aa(lp222
g18
ag19
aS'0.81'
p223
aa(lp224
g26
ag27
aS'0.75'
p225
aa(lp226
g22
ag23
aS'0.75'
p227
aa(lp228
g34
ag35
aS'0.75'
p229
aa(lp230
g30
ag31
aS'0.75'
p231
aa(lp232
g38
ag39
aS'0.73'
p233
aaaa(lp234
VB3MFJ4_DROAN
p235
aVB3MFJ4
p236
aVDrosophila ananassae
p237
aI7217
aF748.814
aF0.0
aS'85'
p238
aS'85'
p239
a(lp240
(lp241
g14
ag15
aS'0.92'
p242
aa(lp243
g18
ag19
aS'0.55'
p244
aaaa(lp245
VTID_DROVI
p246
aVQ24331
p247
aVDrosophila virilis
p248
aI7244
aF717.998
aF0.0
aS'72'
p249
aS'100'
p250
a(lp251
(lp252
g14
ag15
aS'0.92'
p253
aa(lp254
g18
ag19
aS'0.64'
p255
aa(lp256
g22
ag23
aS'0.49'
p257
aa(lp258
g26
ag27
aS'0.49'
p259
aaaa(lp260
VB4GHT7_DROPE
p261
aVB4GHT7
p262
aVDrosophila persimilis
p263
aI7234
aF714.916
aF0.0
aS'73'
p264
aS'100'
p265
a(lp266
(lp267
g14
ag15
aS'0.92'
p268
aa(lp269
g18
ag19
aS'0.59'
p270
aaaa(lp271
VB5E1J0_DROPS
p272
aVB5E1J0
p273
aVDrosophila pseudoobscura pseudoobscura
p274
aI46245
aF712.22
aF0.0
aS'73'
p275
aS'100'
p276
a(lp277
(lp278
g14
ag15
aS'0.92'
p279
aa(lp280
g18
ag19
aS'0.59'
p281
aaaa(lp282
VB4J871_DROGR
p283
aVB4J871
p284
aVDrosophila grimshawi
p285
aI7222
aF701.049
aF0.0
aS'77'
p286
aS'85'
p287
a(lp288
(lp289
g14
ag15
aS'0.92'
p290
aa(lp291
g18
ag19
aS'0.56'
p292
aaaa(lp293
VB4KQ15_DROMO
p294
aVB4KQ15
p295
aVDrosophila mojavensis
p296
aI7230
aF699.508
aF0.0
aS'75'
p297
aS'85'
p298
a(lp299
(lp300
g14
ag15
aS'0.92'
p301
aa(lp302
g18
ag19
aS'0.56'
p303
aaaa(lp304
VB4NML0_DROWI
p305
aVB4NML0
p306
aVDrosophila willistoni
p307
aI7260
aF696.041
aF0.0
aS'78'
p308
aS'85'
p309
a(lp310
(lp311
g14
ag15
aS'0.92'
p312
aa(lp313
g18
ag19
aS'0.51'
p314
aa(lp315
g167
ag168
aS'0.39'
p316
aaaa(lp317
VB4MDV9_DROVI
p318
aVB4MDV9
p319
ag248
aI7244
aF687.952
aF0.0
aS'77'
p320
aS'85'
p321
a(lp322
(lp323
g14
ag15
aS'0.92'
p324
aa(lp325
g18
ag19
aS'0.64'
p326
aa(lp327
g22
ag23
aS'0.49'
p328
aa(lp329
g26
ag27
aS'0.49'
p330
aaaa(lp331
VQ16R72_AEDAE
p332
aVQ16R72
p333
aVAedes aegypti
p334
aI7159
aF615.92
aF0.0
aS'73'
p335
aS'75'
p336
a(lp337
(lp338
g14
ag15
aS'0.92'
p339
aa(lp340
g18
ag19
aS'0.65'
p341
aa(lp342
g22
ag23
aS'0.5'
p343
aa(lp344
g26
ag27
aS'0.5'
p345
aa(lp346
g30
ag31
aS'0.49'
p347
aa(lp348
g34
ag35
aS'0.49'
p349
aaaa(lp350
VE9J573_SOLIN
p351
aVE9J573
p352
aVSolenopsis invicta
p353
aI13686
aF565.844
aF0.0
aS'63'
p354
aS'83'
p355
a(lp356
(lp357
g14
ag15
aS'0.92'
p358
aa(lp359
g18
ag19
aS'0.5'
p360
aa(lp361
g167
ag168
aS'0.39'
p362
aaaa(lp363
VE2ADT8_CAMFO
p364
aVE2ADT8
p365
aVCamponotus floridanus
p366
aI104421
aF560.451
aF0.0
aS'61'
p367
aS'84'
p368
a(lp369
(lp370
g14
ag15
aS'0.92'
p371
aa(lp372
g18
ag19
aS'0.5'
p373
aa(lp374
g167
ag168
aS'0.39'
p375
aaaa(lp376
VE2BN18_HARSA
p377
aVE2BN18
p378
aVHarpegnathos saltator
p379
aI610380
aF555.058
aF0.0
aS'65'
p380
aS'74'
p381
a(lp382
(lp383
g14
ag15
aS'0.92'
p384
aa(lp385
g18
ag19
aS'0.5'
p386
aa(lp387
g167
ag168
aS'0.39'
p388
aaaa(lp389
VF4WP97_ACREC
p390
aVF4WP97
p391
aVAcromyrmex echinatior
p392
aI103372
aF553.518
aF0.0
aS'65'
p393
aS'74'
p394
a(lp395
(lp396
g14
ag15
aS'0.92'
p397
aa(lp398
g18
ag19
aS'0.5'
p399
aa(lp400
g167
ag168
aS'0.4'
p401
aaaa(lp402
VA7UR98_ANOGA
p403
aVA7UR98
p404
aVAnopheles gambiae
p405
aI7165
aF543.888
aF0.0
aS'67'
p406
aS'78'
p407
a(lp408
(lp409
g14
ag15
aS'0.92'
p410
aa(lp411
g18
ag19
aS'0.69'
p412
aa(lp413
g22
ag23
aS'0.57'
p414
aa(lp415
g26
ag27
aS'0.57'
p416
aa(lp417
g30
ag31
aS'0.56'
p418
aa(lp419
g34
ag35
aS'0.55'
p420
aa(lp421
g38
ag39
aS'0.52'
p422
aaaa(lp423
VE9H747_DAPPU
p424
aVE9H747
p425
aVDaphnia pulex
p426
aI6669
aF539.65
aF0.0
aS'60'
p427
aS'80'
p428
a(lp429
(lp430
g14
ag15
aS'0.92'
p431
aa(lp432
g18
ag19
aS'0.47'
p433
aa(lp434
g167
ag168
aS'0.38'
p435
aaaa(lp436
VG6DRS5_DANPL
p437
aVG6DRS5
p438
aVDanaus plexippus
p439
aI13037
aF540.421
aF0.0
aS'61'
p440
aS'82'
p441
a(lp442
(lp443
g14
ag15
aS'0.92'
p444
aa(lp445
g18
ag19
aS'0.51'
p446
aaaa(lp447
VQ7QJL2_ANOGA
p448
aVQ7QJL2
p449
ag405
aI7165
aF538.88
aF0.0
aS'68'
p450
aS'77'
p451
a(lp452
(lp453
g14
ag15
aS'0.92'
p454
aa(lp455
g18
ag19
aS'0.57'
p456
aaaa(lp457
VE0VXY1_PEDHC
p458
aVE0VXY1
p459
aVPediculus humanus corporis
p460
aI121224
aF528.094
aF0.0
aS'64'
p461
aS'75'
p462
a(lp463
(lp464
g14
ag15
aS'0.92'
p465
aa(lp466
g18
ag19
aS'0.5'
p467
aa(lp468
g167
ag168
aS'0.38'
p469
aaaa(lp470
VH6VTQ4_BOMMO
p471
aVH6VTQ4
p472
aVBombyx mori
p473
aI7091
aF518.079
aF1.24855e-175
aS'65'
p474
aS'77'
p475
a(lp476
(lp477
g14
ag15
aS'0.92'
p478
aa(lp479
g18
ag19
aS'0.57'
p480
aaaa(lp481
VD1ZZJ9_TRICA
p482
aVD1ZZJ9
p483
aVTribolium castaneum
p484
aI7070
aF504.982
aF2.41541e-171
aS'62'
p485
aS'79'
p486
a(lp487
(lp488
g14
ag15
aS'0.92'
p489
aa(lp490
g18
ag19
aS'0.5'
p491
aa(lp492
g167
ag168
aS'0.38'
p493
aaaa(lp494
VB0WJM4_CULQU
p495
aVB0WJM4
p496
aVCulex quinquefasciatus
p497
aI7176
aF470.7
aF1.25943e-158
aS'74'
p498
aS'55'
p499
a(lp500
(lp501
g14
ag15
aS'0.95'
p502
aa(lp503
g18
ag19
aS'0.59'
p504
aa(lp505
g22
ag23
aS'0.59'
p506
aa(lp507
g26
ag27
aS'0.58'
p508
aa(lp509
g34
ag35
aS'0.57'
p510
aa(lp511
g30
ag31
aS'0.57'
p512
aa(lp513
g38
ag39
aS'0.54'
p514
aaaa(lp515
VA1A4J9_BOVIN
p516
aVA1A4J9
p517
aVBos taurus
p518
aI9913
aF427.172
aF3.06334e-141
aS'53'
p519
aS'75'
p520
a(lp521
(lp522
g14
ag15
aS'0.9'
p523
aa(lp524
VGO:0030544
p525
aVHsp70 protein binding
p526
aS'0.69'
p527
aaaa(lp528
VD2HQ81_AILME
p529
aVD2HQ81
p530
aVAiluropoda melanoleuca
p531
aI9646
aF424.476
aF8.13834e-140
aS'52'
p532
aS'77'
p533
a(lp534
(lp535
g14
ag15
aS'0.9'
p536
aa(lp537
g525
ag526
aS'0.69'
p538
aaaaaa(lp539
Vseq1
p540
a(lp541
(lp542
g7
ag8
ag9
aI7227
aF1076.23
aF0.0
aS'100'
p543
aS'100'
p544
a(lp545
(lp546
g14
ag15
aS'0.92'
p547
aa(lp548
g18
ag19
aS'0.8'
p549
aa(lp550
g22
ag23
aS'0.74'
p551
aa(lp552
g26
ag27
aS'0.74'
p553
aa(lp554
g30
ag31
aS'0.73'
p555
aa(lp556
g34
ag35
aS'0.73'
p557
aa(lp558
g38
ag39
aS'0.72'
p559
aaaa(lp560
g42
ag8
ag9
aI7227
aF1073.15
aF0.0
aS'100'
p561
aS'100'
p562
a(lp563
(lp564
g14
ag15
aS'0.92'
p565
aa(lp566
g18
ag19
aS'0.8'
p567
aa(lp568
g22
ag23
aS'0.74'
p569
aa(lp570
g26
ag27
aS'0.74'
p571
aa(lp572
g30
ag31
aS'0.73'
p573
aa(lp574
g34
ag35
aS'0.73'
p575
aa(lp576
g38
ag39
aS'0.72'
p577
aaaa(lp578
g61
ag8
ag9
aI7227
aF1063.52
aF0.0
aS'99'
p579
aS'100'
p580
a(lp581
(lp582
g14
ag15
aS'0.92'
p583
aa(lp584
g18
ag19
aS'0.8'
p585
aa(lp586
g22
ag23
aS'0.74'
p587
aa(lp588
g26
ag27
aS'0.74'
p589
aa(lp590
g30
ag31
aS'0.73'
p591
aa(lp592
g34
ag35
aS'0.73'
p593
aa(lp594
g38
ag39
aS'0.72'
p595
aaaa(lp596
g80
ag8
ag9
aI7227
aF1059.28
aF0.0
aS'99'
p597
aS'100'
p598
a(lp599
(lp600
g14
ag15
aS'0.92'
p601
aa(lp602
g18
ag19
aS'0.8'
p603
aa(lp604
g22
ag23
aS'0.74'
p605
aa(lp606
g26
ag27
aS'0.74'
p607
aa(lp608
g30
ag31
aS'0.73'
p609
aa(lp610
g34
ag35
aS'0.73'
p611
aa(lp612
g38
ag39
aS'0.72'
p613
aaaa(lp614
g99
ag8
ag9
aI7227
aF932.939
aF0.0
aS'100'
p615
aS'86'
p616
a(lp617
(lp618
g14
ag15
aS'0.92'
p619
aa(lp620
g18
ag19
aS'0.8'
p621
aa(lp622
g22
ag23
aS'0.74'
p623
aa(lp624
g26
ag27
aS'0.74'
p625
aa(lp626
g30
ag31
aS'0.73'
p627
aa(lp628
g34
ag35
aS'0.73'
p629
aa(lp630
g38
ag39
aS'0.72'
p631
aaaa(lp632
g118
ag8
ag9
aI7227
aF929.087
aF0.0
aS'99'
p633
aS'86'
p634
a(lp635
(lp636
g14
ag15
aS'0.92'
p637
aa(lp638
g18
ag19
aS'0.8'
p639
aa(lp640
g22
ag23
aS'0.74'
p641
aa(lp642
g26
ag27
aS'0.74'
p643
aa(lp644
g30
ag31
aS'0.73'
p645
aa(lp646
g34
ag35
aS'0.73'
p647
aa(lp648
g38
ag39
aS'0.72'
p649
aaaa(lp650
g137
ag138
ag9
aI7227
aF860.136
aF0.0
aS'99'
p651
aS'85'
p652
a(lp653
(lp654
g14
ag15
aS'0.91'
p655
aa(lp656
g18
ag19
aS'0.81'
p657
aa(lp658
g22
ag23
aS'0.75'
p659
aa(lp660
g26
ag27
aS'0.75'
p661
aa(lp662
g30
ag31
aS'0.74'
p663
aa(lp664
g34
ag35
aS'0.74'
p665
aa(lp666
g38
ag39
aS'0.73'
p667
aaaa(lp668
g157
ag158
ag9
aI7227
aF855.129
aF0.0
aS'99'
p669
aS'85'
p670
a(lp671
(lp672
g14
ag15
aS'0.92'
p673
aa(lp674
g18
ag19
aS'0.5'
p675
aa(lp676
g167
ag168
aS'0.41'
p677
aaaa(lp678
g171
ag172
ag173
aI7240
aF850.121
aF0.0
aS'97'
p679
aS'87'
p680
a(lp681
(lp682
g14
ag15
aS'0.91'
p683
aa(lp684
g18
ag19
aS'0.84'
p685
aa(lp686
g22
ag23
aS'0.8'
p687
aa(lp688
g30
ag31
aS'0.8'
p689
aa(lp690
g26
ag27
aS'0.8'
p691
aa(lp692
g34
ag35
aS'0.8'
p693
aa(lp694
g38
ag39
aS'0.79'
p695
aaaa(lp696
g192
ag193
ag194
aI7245
aF845.114
aF0.0
aS'96'
p697
aS'87'
p698
a(lp699
(lp700
g14
ag15
aS'0.92'
p701
aa(lp702
g18
ag19
aS'0.59'
p703
aaaa(lp704
g203
ag204
ag205
aI7220
aF837.025
aF0.0
aS'95'
p705
aS'87'
p706
a(lp707
(lp708
g14
ag15
aS'0.92'
p709
aa(lp710
g18
ag19
aS'0.59'
p711
aaaa(lp712
g214
ag215
ag216
aI7238
aF770.385
aF0.0
aS'86'
p713
aS'87'
p714
a(lp715
(lp716
g14
ag15
aS'0.91'
p717
aa(lp718
g18
ag19
aS'0.81'
p719
aa(lp720
g26
ag27
aS'0.75'
p721
aa(lp722
g22
ag23
aS'0.75'
p723
aa(lp724
g34
ag35
aS'0.75'
p725
aa(lp726
g30
ag31
aS'0.75'
p727
aa(lp728
g38
ag39
aS'0.73'
p729
aaaa(lp730
g235
ag236
ag237
aI7217
aF748.814
aF0.0
aS'85'
p731
aS'85'
p732
a(lp733
(lp734
g14
ag15
aS'0.92'
p735
aa(lp736
g18
ag19
aS'0.55'
p737
aaaa(lp738
g246
ag247
ag248
aI7244
aF717.998
aF0.0
aS'72'
p739
aS'100'
p740
a(lp741
(lp742
g14
ag15
aS'0.92'
p743
aa(lp744
g18
ag19
aS'0.64'
p745
aa(lp746
g22
ag23
aS'0.49'
p747
aa(lp748
g26
ag27
aS'0.49'
p749
aaaa(lp750
g261
ag262
ag263
aI7234
aF714.916
aF0.0
aS'73'
p751
aS'100'
p752
a(lp753
(lp754
g14
ag15
aS'0.92'
p755
aa(lp756
g18
ag19
aS'0.59'
p757
aaaa(lp758
g272
ag273
ag274
aI46245
aF712.22
aF0.0
aS'73'
p759
aS'100'
p760
a(lp761
(lp762
g14
ag15
aS'0.92'
p763
aa(lp764
g18
ag19
aS'0.59'
p765
aaaa(lp766
g283
ag284
ag285
aI7222
aF701.049
aF0.0
aS'77'
p767
aS'85'
p768
a(lp769
(lp770
g14
ag15
aS'0.92'
p771
aa(lp772
g18
ag19
aS'0.56'
p773
aaaa(lp774
g294
ag295
ag296
aI7230
aF699.508
aF0.0
aS'75'
p775
aS'85'
p776
a(lp777
(lp778
g14
ag15
aS'0.92'
p779
aa(lp780
g18
ag19
aS'0.56'
p781
aaaa(lp782
g305
ag306
ag307
aI7260
aF696.041
aF0.0
aS'78'
p783
aS'85'
p784
a(lp785
(lp786
g14
ag15
aS'0.92'
p787
aa(lp788
g18
ag19
aS'0.51'
p789
aa(lp790
g167
ag168
aS'0.39'
p791
aaaa(lp792
g318
ag319
ag248
aI7244
aF687.952
aF0.0
aS'77'
p793
aS'85'
p794
a(lp795
(lp796
g14
ag15
aS'0.92'
p797
aa(lp798
g18
ag19
aS'0.64'
p799
aa(lp800
g22
ag23
aS'0.49'
p801
aa(lp802
g26
ag27
aS'0.49'
p803
aaaa(lp804
g332
ag333
ag334
aI7159
aF615.92
aF0.0
aS'73'
p805
aS'75'
p806
a(lp807
(lp808
g14
ag15
aS'0.92'
p809
aa(lp810
g18
ag19
aS'0.65'
p811
aa(lp812
g22
ag23
aS'0.5'
p813
aa(lp814
g26
ag27
aS'0.5'
p815
aa(lp816
g30
ag31
aS'0.49'
p817
aa(lp818
g34
ag35
aS'0.49'
p819
aaaa(lp820
g351
ag352
ag353
aI13686
aF565.844
aF0.0
aS'63'
p821
aS'83'
p822
a(lp823
(lp824
g14
ag15
aS'0.92'
p825
aa(lp826
g18
ag19
aS'0.5'
p827
aa(lp828
g167
ag168
aS'0.39'
p829
aaaa(lp830
g364
ag365
ag366
aI104421
aF560.451
aF0.0
aS'61'
p831
aS'84'
p832
a(lp833
(lp834
g14
ag15
aS'0.92'
p835
aa(lp836
g18
ag19
aS'0.5'
p837
aa(lp838
g167
ag168
aS'0.39'
p839
aaaa(lp840
g377
ag378
ag379
aI610380
aF555.058
aF0.0
aS'65'
p841
aS'74'
p842
a(lp843
(lp844
g14
ag15
aS'0.92'
p845
aa(lp846
g18
ag19
aS'0.5'
p847
aa(lp848
g167
ag168
aS'0.39'
p849
aaaa(lp850
g390
ag391
ag392
aI103372
aF553.518
aF0.0
aS'65'
p851
aS'74'
p852
a(lp853
(lp854
g14
ag15
aS'0.92'
p855
aa(lp856
g18
ag19
aS'0.5'
p857
aa(lp858
g167
ag168
aS'0.4'
p859
aaaa(lp860
g403
ag404
ag405
aI7165
aF543.888
aF0.0
aS'67'
p861
aS'78'
p862
a(lp863
(lp864
g14
ag15
aS'0.92'
p865
aa(lp866
g18
ag19
aS'0.69'
p867
aa(lp868
g22
ag23
aS'0.57'
p869
aa(lp870
g26
ag27
aS'0.57'
p871
aa(lp872
g30
ag31
aS'0.56'
p873
aa(lp874
g34
ag35
aS'0.55'
p875
aa(lp876
g38
ag39
aS'0.52'
p877
aaaa(lp878
g424
ag425
ag426
aI6669
aF539.65
aF0.0
aS'60'
p879
aS'80'
p880
a(lp881
(lp882
g14
ag15
aS'0.92'
p883
aa(lp884
g18
ag19
aS'0.47'
p885
aa(lp886
g167
ag168
aS'0.38'
p887
aaaa(lp888
g437
ag438
ag439
aI13037
aF540.421
aF0.0
aS'61'
p889
aS'82'
p890
a(lp891
(lp892
g14
ag15
aS'0.92'
p893
aa(lp894
g18
ag19
aS'0.51'
p895
aaaa(lp896
g448
ag449
ag405
aI7165
aF538.88
aF0.0
aS'68'
p897
aS'77'
p898
a(lp899
(lp900
g14
ag15
aS'0.92'
p901
aa(lp902
g18
ag19
aS'0.57'
p903
aaaa(lp904
g458
ag459
ag460
aI121224
aF528.094
aF0.0
aS'64'
p905
aS'75'
p906
a(lp907
(lp908
g14
ag15
aS'0.92'
p909
aa(lp910
g18
ag19
aS'0.5'
p911
aa(lp912
g167
ag168
aS'0.38'
p913
aaaa(lp914
g471
ag472
ag473
aI7091
aF518.079
aF1.24855e-175
aS'65'
p915
aS'77'
p916
a(lp917
(lp918
g14
ag15
aS'0.92'
p919
aa(lp920
g18
ag19
aS'0.57'
p921
aaaa(lp922
g482
ag483
ag484
aI7070
aF504.982
aF2.41541e-171
aS'62'
p923
aS'79'
p924
a(lp925
(lp926
g14
ag15
aS'0.92'
p927
aa(lp928
g18
ag19
aS'0.5'
p929
aa(lp930
g167
ag168
aS'0.38'
p931
aaaa(lp932
g495
ag496
ag497
aI7176
aF470.7
aF1.25943e-158
aS'74'
p933
aS'55'
p934
a(lp935
(lp936
g14
ag15
aS'0.95'
p937
aa(lp938
g18
ag19
aS'0.59'
p939
aa(lp940
g22
ag23
aS'0.59'
p941
aa(lp942
g26
ag27
aS'0.58'
p943
aa(lp944
g34
ag35
aS'0.57'
p945
aa(lp946
g30
ag31
aS'0.57'
p947
aa(lp948
g38
ag39
aS'0.54'
p949
aaaa(lp950
g516
ag517
ag518
aI9913
aF427.172
aF3.06334e-141
aS'53'
p951
aS'75'
p952
a(lp953
(lp954
g14
ag15
aS'0.9'
p955
aa(lp956
g525
ag526
aS'0.69'
p957
aaaa(lp958
g529
ag530
ag531
aI9646
aF424.476
aF8.13834e-140
aS'52'
p959
aS'77'
p960
a(lp961
(lp962
g14
ag15
aS'0.9'
p963
aa(lp964
g525
ag526
aS'0.69'
p965
aaaaaas.