(dp0
S'result'
p1
(lp2
(lp3
VG3QGZ3_GORGO
p4
aVG3QGZ3
p5
aVGorilla gorilla gorilla
p6
aI9595
a(lp7
(lp8
VGO:0015349
p9
aVthyroid hormone transmembrane transporter activity
p10
aS'0.8'
p11
aa(lp12
VGO:0015132
p13
aVprostaglandin transmembrane transporter activity
p14
aS'0.67'
p15
aaaa(lp16
VH2LI10_ORYLA
p17
aVH2LI10
p18
aVOryzias latipes
p19
aI8090
a(lp20
(lp21
VGO:0015125
p22
aVbile acid transmembrane transporter activity
p23
aS'0.91'
p24
aa(lp25
VGO:0015347
p26
aVsodium-independent organic anion transmembrane transporter activity
p27
aS'0.7'
p28
aaaa(lp29
VH3INQ6_STRPU
p30
aVH3INQ6
p31
aVStrongylocentrotus purpuratus
p32
aI7668
a(lp33
(lp34
g9
ag10
aS'0.89'
p35
aa(lp36
VGO:0004867
p37
aVserine-type endopeptidase inhibitor activity
p38
aS'0.69'
p39
aaaa(lp40
VD3YXA8_MOUSE
p41
aVD3YXA8
p42
aVMus musculus
p43
aI10090
a(lp44
(lp45
g9
ag10
aS'0.8'
p46
aa(lp47
g13
ag14
aS'0.76'
p48
aaaa(lp49
VG8F3I8_MACFA
p50
aVG8F3I8
p51
aVMacaca fascicularis
p52
aI9541
a(lp53
(lp54
g26
ag27
aS'0.82'
p55
aa(lp56
g22
ag23
aS'0.36'
p57
aaaa(lp58
VH3J4I4
p59
aS'?'
p60
ag60
ag60
a(lp61
aa(lp62
VA8WRK7
p63
ag60
ag60
ag60
a(lp64
aa(lp65
VF1RN62
p66
ag60
ag60
ag60
a(lp67
aas.