(dp0
S'result'
p1
(lp2
(lp3
VQ9AIH7_DESDE
p4
aVQ9AIH7
p5
aVDesulfovibrio desulfuricans
p6
aI876
a(lp7
(lp8
VGO:0003677
p9
aVDNA binding
p10
aS'0.95'
p11
aa(lp12
VGO:0008942
p13
aVnitrite reductase [NAD(P)H] activity
p14
aS'0.89'
p15
aa(lp16
VGO:0051539
p17
aV4 iron, 4 sulfur cluster binding
p18
aS'0.87'
p19
aa(lp20
VGO:0005515
p21
aVprotein binding
p22
aS'0.87'
p23
aa(lp24
VGO:0020037
p25
aVheme binding
p26
aS'0.87'
p27
aa(lp28
VGO:0050311
p29
aVsulfite reductase (ferredoxin) activity
p30
aS'0.87'
p31
aa(lp32
VGO:0016002
p33
aVsulfite reductase activity
p34
aS'0.87'
p35
aa(lp36
VGO:0050660
p37
aVflavin adenine dinucleotide binding
p38
aS'0.87'
p39
aa(lp40
VGO:0050661
p41
aVNADP binding
p42
aS'0.87'
p43
aaaa(lp44
VQ9L869_DESDE
p45
aVQ9L869
p46
ag6
aI876
a(lp47
(lp48
g21
ag22
aS'0.91'
p49
aa(lp50
VGO:0008137
p51
aVNADH dehydrogenase (ubiquinone) activity
p52
aS'0.5'
p53
aaaa(lp54
VQ155F5_DESDE
p55
aVQ155F5
p56
ag6
aI876
a(lp57
(lp58
VGO:0009055
p59
aVelectron carrier activity
p60
aS'0.88'
p61
aa(lp62
VGO:0008177
p63
aVsuccinate dehydrogenase (ubiquinone) activity
p64
aS'0.82'
p65
aaaa(lp66
VQ6PQB8_DESDE
p67
aVQ6PQB8
p68
ag6
aI876
a(lp69
(lp70
g9
ag10
aS'0.88'
p71
aa(lp72
VGO:0042803
p73
aVprotein homodimerization activity
p74
aS'0.59'
p75
aa(lp76
VGO:0003700
p77
aVsequence-specific DNA binding transcription factor activity
p78
aS'0.59'
p79
aa(lp80
VGO:0097063
p81
aVcadmium ion sensor activity
p82
aS'0.59'
p83
aa(lp84
VGO:0032791
p85
aVlead ion binding
p86
aS'0.59'
p87
aaaa(lp88
VQ4FCT8_DESDE
p89
aVQ4FCT8
p90
ag6
aI876
a(lp91
(lp92
g9
ag10
aS'0.94'
p93
aa(lp94
g13
ag14
aS'0.89'
p95
aa(lp96
g17
ag18
aS'0.78'
p97
aa(lp98
g21
ag22
aS'0.78'
p99
aa(lp100
g25
ag26
aS'0.78'
p101
aa(lp102
g29
ag30
aS'0.78'
p103
aa(lp104
g33
ag34
aS'0.78'
p105
aa(lp106
g37
ag38
aS'0.78'
p107
aa(lp108
g41
ag42
aS'0.78'
p109
aaaa(lp110
VQ9AM35_DESDE
p111
aVQ9AM35
p112
ag6
aI876
a(lp113
(lp114
VGO:0050583
p115
aVhydrogen dehydrogenase (NADP+) activity
p116
aS'0.87'
p117
aa(lp118
VGO:0005521
p119
aVlamin binding
p120
aS'0.85'
p121
aaaa(lp122
VQ4FCT7_DESDE
p123
aVQ4FCT7
p124
ag6
aI876
a(lp125
(lp126
g9
ag10
aS'0.94'
p127
aa(lp128
g13
ag14
aS'0.87'
p129
aa(lp130
g17
ag18
aS'0.8'
p131
aa(lp132
g29
ag30
aS'0.8'
p133
aa(lp134
g33
ag34
aS'0.8'
p135
aa(lp136
g21
ag22
aS'0.79'
p137
aa(lp138
g25
ag26
aS'0.74'
p139
aa(lp140
g37
ag38
aS'0.74'
p141
aa(lp142
g41
ag42
aS'0.74'
p143
aaaa(lp144
VQ9XCT9_DESDE
p145
aVQ9XCT9
p146
ag6
aI876
a(lp147
(lp148
g17
ag18
aS'0.74'
p149
aa(lp150
VGO:0005506
p151
aViron ion binding
p152
aS'0.74'
p153
aaaa(lp154
VO51902_DESDE
p155
aVO51902
p156
ag6
aI876
a(lp157
(lp158
VGO:0016151
p159
aVnickel cation binding
p160
aS'0.92'
p161
aa(lp162
g21
ag22
aS'0.77'
p163
aaaa(lp164
VQ9AM32_DESDE
p165
aVQ9AM32
p166
ag6
aI876
a(lp167
(lp168
g159
ag160
aS'0.92'
p169
aa(lp170
g21
ag22
aS'0.77'
p171
aaaa(lp172
VQ8VNU3_DESDE
p173
aVQ8VNU3
p174
ag6
aI876
a(lp175
(lp176
VGO:0000104
p177
aVsuccinate dehydrogenase activity
p178
aS'0.79'
p179
aa(lp180
VGO:0008940
p181
aVnitrate reductase activity
p182
aS'0.79'
p183
aaaa(lp184
VQ6ZXS7_DESDE
p185
aVQ6ZXS7
p186
ag6
aI876
a(lp187
(lp188
VGO:0042279
p189
aVnitrite reductase (cytochrome, ammonia-forming) activity
p190
aS'0.76'
p191
aa(lp192
g25
ag26
aS'0.29'
p193
aaaa(lp194
VQ9AIH6_DESDE
p195
aVQ9AIH6
p196
ag6
aI876
a(lp197
(lp198
g9
ag10
aS'0.94'
p199
aa(lp200
g13
ag14
aS'0.87'
p201
aa(lp202
g17
ag18
aS'0.74'
p203
aa(lp204
g21
ag22
aS'0.74'
p205
aa(lp206
g29
ag30
aS'0.74'
p207
aa(lp208
g33
ag34
aS'0.74'
p209
aa(lp210
g25
ag26
aS'0.66'
p211
aa(lp212
g41
ag42
aS'0.66'
p213
aa(lp214
g37
ag38
aS'0.66'
p215
aaaa(lp216
VQ1KRL5_DESDE
p217
aVQ1KRL5
p218
ag6
aI876
a(lp219
(lp220
VGO:0008863
p221
aVformate dehydrogenase (NAD+) activity
p222
aS'0.91'
p223
aa(lp224
g189
ag190
aS'0.7'
p225
aaaa(lp226
VQ9AJ67_DESDE
p227
aVQ9AJ67
p228
ag6
aI876
a(lp229
(lp230
g221
ag222
aS'0.92'
p231
aa(lp232
g189
ag190
aS'0.73'
p233
aaaa(lp234
VQ9F4A2_DESDE
p235
aVQ9F4A2
p236
ag6
aI876
a(lp237
(lp238
g9
ag10
aS'0.94'
p239
aa(lp240
g13
ag14
aS'0.88'
p241
aa(lp242
g17
ag18
aS'0.83'
p243
aa(lp244
g21
ag22
aS'0.83'
p245
aa(lp246
g29
ag30
aS'0.83'
p247
aa(lp248
g33
ag34
aS'0.83'
p249
aa(lp250
g25
ag26
aS'0.76'
p251
aa(lp252
g37
ag38
aS'0.76'
p253
aa(lp254
g41
ag42
aS'0.76'
p255
aaaa(lp256
VFLAV_DESDE
p257
aVP26492
p258
ag6
aI876
a(lp259
(lp260
VGO:0010181
p261
aVFMN binding
p262
aS'0.56'
p263
aa(lp264
g59
ag60
aS'0.21'
p265
aaaa(lp266
VQ599G7_DESDE
p267
aVQ599G7
p268
ag6
aI876
a(lp269
(lp270
g21
ag22
aS'0.7'
p271
aa(lp272
VGO:0005048
p273
aVsignal sequence binding
p274
aS'0.35'
p275
aaaa(lp276
VQ6PQB5_DESDE
p277
aVQ6PQB5
p278
ag6
aI876
a(lp279
(lp280
VGO:0004008
p281
aVcopper-exporting ATPase activity
p282
aS'0.78'
p283
aa(lp284
VGO:0050897
p285
aVcobalt ion binding
p286
aS'0.03'
p287
aa(lp288
VGO:0030145
p289
aVmanganese ion binding
p290
aS'0.03'
p291
aa(lp292
VGO:0008801
p293
aVbeta-phosphoglucomutase activity
p294
aS'0.03'
p295
aa(lp296
VGO:0043136
p297
aVglycerol-3-phosphatase activity
p298
aS'0.03'
p299
aa(lp300
VGO:0032767
p301
aVcopper-dependent protein binding
p302
aS'0.03'
p303
aa(lp304
VGO:0000287
p305
aVmagnesium ion binding
p306
aS'0.03'
p307
aa(lp308
VGO:0008253
p309
aV5'-nucleotidase activity
p310
aS'0.03'
p311
aa(lp312
VGO:0003850
p313
aV2-deoxyglucose-6-phosphatase activity
p314
aS'0.03'
p315
aa(lp316
VGO:0005507
p317
aVcopper ion binding
p318
aS'0.03'
p319
aa(lp320
VGO:0008967
p321
aVphosphoglycolate phosphatase activity
p322
aS'0.03'
p323
aa(lp324
VGO:0005509
p325
aVcalcium ion binding
p326
aS'0.03'
p327
aa(lp328
g73
ag74
aS'0.03'
p329
aa(lp330
VGO:0015247
p331
aVaminophospholipid transporter activity
p332
aS'0.03'
p333
aa(lp334
VGO:0004012
p335
aVphospholipid-translocating ATPase activity
p336
aS'0.03'
p337
aa(lp338
VGO:0016773
p339
aVphosphotransferase activity, alcohol group as acceptor
p340
aS'0.03'
p341
aa(lp342
VGO:0033883
p343
aVpyridoxal phosphatase activity
p344
aS'0.03'
p345
aa(lp346
VGO:0004647
p347
aVphosphoserine phosphatase activity
p348
aS'0.03'
p349
aa(lp350
VGO:0031404
p351
aVchloride ion binding
p352
aS'0.03'
p353
aa(lp354
VGO:0004346
p355
aVglucose-6-phosphatase activity
p356
aS'0.03'
p357
aa(lp358
VGO:0005524
p359
aVATP binding
p360
aS'0.03'
p361
aaaa(lp362
VQ1KRL6_DESDE
p363
aVQ1KRL6
p364
ag6
aI876
a(lp365
(lp366
VGO:0043546
p367
aVmolybdopterin cofactor binding
p368
aS'0.91'
p369
aa(lp370
g59
ag60
aS'0.78'
p371
aaaa(lp372
VO51903_DESDE
p373
aVO51903
p374
ag6
aI876
a(lp375
(lp376
g159
ag160
aS'0.92'
p377
aa(lp378
g21
ag22
aS'0.77'
p379
aaaa(lp380
VQ9AM36_DESDE
p381
aVQ9AM36
p382
ag6
aI876
a(lp383
(lp384
g115
ag116
aS'0.75'
p385
aa(lp386
g151
ag152
aS'0.74'
p387
aa(lp388
g51
ag52
aS'0.72'
p389
aa(lp390
g119
ag120
aS'0.72'
p391
aaaa(lp392
VQ19TQ6_DESDE
p393
aVQ19TQ6
p394
ag6
aI876
a(lp395
(lp396
g9
ag10
aS'0.94'
p397
aa(lp398
g13
ag14
aS'0.88'
p399
aaaa(lp400
VQ9F4A3_DESDE
p401
aVQ9F4A3
p402
ag6
aI876
a(lp403
(lp404
g9
ag10
aS'0.95'
p405
aa(lp406
g13
ag14
aS'0.89'
p407
aa(lp408
g17
ag18
aS'0.87'
p409
aa(lp410
g21
ag22
aS'0.87'
p411
aa(lp412
g25
ag26
aS'0.87'
p413
aa(lp414
g29
ag30
aS'0.87'
p415
aa(lp416
g33
ag34
aS'0.87'
p417
aa(lp418
g37
ag38
aS'0.87'
p419
aa(lp420
g41
ag42
aS'0.87'
p421
aaaa(lp422
VQ8VNU2_DESDE
p423
aVQ8VNU2
p424
ag6
aI876
a(lp425
(lp426
g189
ag190
aS'0.78'
p427
aa(lp428
g25
ag26
aS'0.26'
p429
aaaa(lp430
VQ599G6_DESDE
p431
aVQ599G6
p432
ag6
aI876
a(lp433
(lp434
VGO:0051912
p435
aVCoB--CoM heterodisulfide reductase activity
p436
aS'0.91'
p437
aa(lp438
g115
ag116
aS'0.84'
p439
aa(lp440
g59
ag60
aS'0.79'
p441
aa(lp442
g51
ag52
aS'0.79'
p443
aa(lp444
VGO:0008428
p445
aVribonuclease inhibitor activity
p446
aS'0.68'
p447
aa(lp448
VGO:0047110
p449
aVphenylglyoxylate dehydrogenase (acylating) activity
p450
aS'0.68'
p451
aa(lp452
VGO:0051287
p453
aVNAD binding
p454
aS'0.68'
p455
aaaa(lp456
VQ599H0_DESDE
p457
aVQ599H0
p458
ag6
aI876
a(lp459
(lp460
g177
ag178
aS'0.75'
p461
aa(lp462
g181
ag182
aS'0.75'
p463
aaaa(lp464
VQ9L868_DESDE
p465
aVQ9L868
p466
ag6
aI876
a(lp467
(lp468
g159
ag160
aS'0.92'
p469
aa(lp470
g21
ag22
aS'0.78'
p471
aaaa(lp472
VQ8KVT3_DESDE
p473
aVQ8KVT3
p474
ag6
aI876
a(lp475
(lp476
g21
ag22
aS'0.91'
p477
aa(lp478
VGO:0033250
p479
aVpenicillinase activity
p480
aS'0.68'
p481
aaaa(lp482
VQ19TU1_DESDE
p483
aVQ19TU1
p484
ag6
aI876
a(lp485
(lp486
g21
ag22
aS'0.87'
p487
aa(lp488
g59
ag60
aS'0.21'
p489
aa(lp490
g37
ag38
aS'0.21'
p491
aa(lp492
g177
ag178
aS'0.2'
p493
aaaa(lp494
VQ9AM33_DESDE
p495
aVQ9AM33
p496
ag6
aI876
a(lp497
(lp498
g21
ag22
aS'0.93'
p499
aa(lp500
g51
ag52
aS'0.43'
p501
aaaa(lp502
VQ155F4_DESDE
p503
aVQ155F4
p504
ag6
aI876
a(lp505
(lp506
g21
ag22
aS'0.86'
p507
aa(lp508
VGO:0008446
p509
aVGDP-mannose 4,6-dehydratase activity
p510
aS'0.32'
p511
aaaa(lp512
VB6HY19_DESDE
p513
aVB6HY19
p514
ag6
aI876
a(lp515
(lp516
VGO:0004781
p517
aVsulfate adenylyltransferase (ATP) activity
p518
aS'0.94'
p519
aa(lp520
VGO:0004020
p521
aVadenylylsulfate kinase activity
p522
aS'0.49'
p523
aa(lp524
g359
ag360
aS'0.44'
p525
aaaa(lp526
VQ9REC4_DESDE
p527
aVQ9REC4
p528
ag6
aI876
a(lp529
(lp530
VGO:0050138
p531
aVnicotinate dehydrogenase activity
p532
aS'0.9'
p533
aa(lp534
VGO:0050302
p535
aVindole-3-acetaldehyde oxidase activity
p536
aS'0.88'
p537
aa(lp538
VGO:0004854
p539
aVxanthine dehydrogenase activity
p540
aS'0.79'
p541
aa(lp542
VGO:0071949
p543
aVFAD binding
p544
aS'0.72'
p545
aa(lp546
g367
ag368
aS'0.72'
p547
aa(lp548
VGO:0051537
p549
aV2 iron, 2 sulfur cluster binding
p550
aS'0.72'
p551
aa(lp552
VGO:0004855
p553
aVxanthine oxidase activity
p554
aS'0.72'
p555
aa(lp556
g73
ag74
aS'0.72'
p557
aaaa(lp558
VQ8GJ32_DESDE
p559
aVQ8GJ32
p560
ag6
aI876
a(lp561
(lp562
VGO:0004329
p563
aVformate-tetrahydrofolate ligase activity
p564
aS'0.78'
p565
aa(lp566
VGO:0004477
p567
aVmethenyltetrahydrofolate cyclohydrolase activity
p568
aS'0.08'
p569
aa(lp570
VGO:0004486
p571
aVmethylenetetrahydrofolate dehydrogenase [NAD(P)+] activity
p572
aS'0.08'
p573
aa(lp574
g73
ag74
aS'0.07'
p575
aa(lp576
g359
ag360
aS'0.07'
p577
aaaasS'downloadfile'
p578
S'/lab/64/app/python/python_mohammad/SIFTER_jobs/webserver/sample_webs/SIFTER_webserver/sifter_web/output/8928175_download.txt'
p579
s.