(lp0
(dp1
VF4WP97_ACREC
p2
(dp3
I389
F0.01
sI7313
F0.01
sI9364
F0.27
sI2158
F0.01
sI534
F0.17
sI9500
F0.01
sI9374
F0.25
sI9375
F0.01
sI9379
F0.01
sI3011
F0.01
sI4816
F0.5
sI1745
F0.27
sI5333
F0.01
sI479
F0.08
sI480
F0.24
sI1506
F0.01
sI6886
F0.4
sI10088
F0.01
sI1516
F0.01
sI9326
F0.92
sI5108
F0.32
sI2197
F0.25
ssVG6DRS5_DANPL
p4
(dp5
I389
F0.01
sI7313
F0.01
sI9364
F0.28
sI2158
F0.01
sI534
F0.18
sI9500
F0.01
sI9374
F0.26
sI9375
F0.01
sI9379
F0.01
sI3011
F0.01
sI4816
F0.51
sI1745
F0.28
sI5333
F0.01
sI479
F0.1
sI480
F0.19
sI1506
F0.01
sI6886
F0.38
sI10088
F0.01
sI1516
F0.01
sI9326
F0.92
sI5108
F0.3
sI2197
F0.26
ssVA7UR98_ANOGA
p6
(dp7
I389
F0.01
sI7313
F0.01
sI9364
F0.57
sI2158
F0.01
sI534
F0.52
sI9500
F0.01
sI9374
F0.56
sI9375
F0.02
sI9379
F0.01
sI3011
F0.01
sI4816
F0.69
sI1745
F0.57
sI5333
F0.01
sI479
F0.11
sI480
F0.26
sI1506
F0.01
sI6886
F0.4
sI10088
F0.01
sI1516
F0.01
sI9326
F0.92
sI5108
F0.34
sI2197
F0.55
ssVQ16R72_AEDAE
p8
(dp9
I389
F0.01
sI7313
F0.01
sI9364
F0.5
sI2158
F0.01
sI534
F0.45
sI9500
F0.01
sI9374
F0.49
sI9375
F0.01
sI9379
F0.01
sI3011
F0.01
sI4816
F0.65
sI1745
F0.5
sI5333
F0.01
sI479
F0.11
sI480
F0.2
sI1506
F0.01
sI6886
F0.39
sI10088
F0.01
sI1516
F0.01
sI9326
F0.92
sI5108
F0.31
sI2197
F0.49
ssVE9H747_DAPPU
p10
(dp11
I389
F0.01
sI7313
F0.01
sI9364
F0.22
sI2158
F0.01
sI534
F0.11
sI9500
F0.01
sI9374
F0.2
sI9375
F0.01
sI9379
F0.01
sI3011
F0.01
sI4816
F0.47
sI1745
F0.22
sI5333
F0.01
sI479
F0.05
sI480
F0.2
sI1506
F0.01
sI6886
F0.38
sI10088
F0.01
sI1516
F0.01
sI9326
F0.92
sI5108
F0.3
sI2197
F0.2
ssVA1A4J9_BOVIN
p12
(dp13
I389
F0.01
sI5261
F0.01
sI7313
F0.01
sI9364
F0.27
sI2158
F0.01
sI534
F0.03
sI9500
F0.01
sI9374
F0.28
sI9375
F0.19
sI9379
F0.01
sI3011
F0.01
sI4816
F0.28
sI1745
F0.26
sI5333
F0.01
sI479
F0.02
sI480
F0.33
sI1506
F0.01
sI6886
F0.39
sI10088
F0.01
sI1516
F0.01
sI9326
F0.9
sI5108
F0.69
sI2197
F0.15
ssVTID_DROME
p14
(dp15
I389
F0.01
sI7313
F0.01
sI9364
F0.74
sI2158
F0.01
sI534
F0.72
sI9500
F0.01
sI9374
F0.73
sI9375
F0.01
sI9379
F0.01
sI3011
F0.01
sI4816
F0.8
sI1745
F0.74
sI5333
F0.01
sI479
F0.59
sI480
F0.34
sI1506
F0.01
sI6886
F0.4
sI10088
F0.01
sI1516
F0.01
sI9326
F0.92
sI5108
F0.38
sI2197
F0.73
ssVB4QAY0_DROSI
p16
(dp17
I389
F0.01
sI7313
F0.01
sI9364
F0.8
sI2158
F0.01
sI534
F0.79
sI9500
F0.01
sI9374
F0.8
sI9375
F0.01
sI9379
F0.01
sI3011
F0.01
sI4816
F0.84
sI1745
F0.8
sI5333
F0.01
sI479
F0.59
sI480
F0.34
sI1506
F0.01
sI6886
F0.4
sI10088
F0.01
sI1516
F0.01
sI9326
F0.91
sI5108
F0.38
sI2197
F0.8
ssVE9J573_SOLIN
p18
(dp19
I389
F0.01
sI7313
F0.01
sI9364
F0.26
sI2158
F0.01
sI534
F0.16
sI9500
F0.01
sI9374
F0.24
sI9375
F0.01
sI9379
F0.01
sI3011
F0.01
sI4816
F0.5
sI1745
F0.26
sI5333
F0.01
sI479
F0.07
sI480
F0.2
sI1506
F0.01
sI6886
F0.39
sI10088
F0.01
sI1516
F0.01
sI9326
F0.92
sI5108
F0.3
sI2197
F0.24
ssVB4GHT7_DROPE
p20
(dp21
I389
F0.01
sI7313
F0.01
sI9364
F0.41
sI2158
F0.01
sI534
F0.34
sI9500
F0.01
sI9374
F0.39
sI9375
F0.01
sI9379
F0.01
sI3011
F0.01
sI4816
F0.59
sI1745
F0.41
sI5333
F0.01
sI479
F0.2
sI480
F0.25
sI1506
F0.01
sI6886
F0.4
sI10088
F0.01
sI1516
F0.01
sI9326
F0.92
sI5108
F0.33
sI2197
F0.4
ssVE2BN18_HARSA
p22
(dp23
I389
F0.01
sI7313
F0.01
sI9364
F0.26
sI2158
F0.01
sI534
F0.16
sI9500
F0.01
sI9374
F0.24
sI9375
F0.01
sI9379
F0.01
sI3011
F0.01
sI4816
F0.5
sI1745
F0.26
sI5333
F0.01
sI479
F0.06
sI480
F0.2
sI1506
F0.01
sI6886
F0.39
sI10088
F0.01
sI1516
F0.01
sI9326
F0.92
sI5108
F0.3
sI2197
F0.24
ssVE2ADT8_CAMFO
p24
(dp25
I389
F0.01
sI7313
F0.01
sI9364
F0.26
sI2158
F0.01
sI534
F0.16
sI9500
F0.01
sI9374
F0.24
sI9375
F0.01
sI9379
F0.01
sI3011
F0.01
sI4816
F0.5
sI1745
F0.26
sI5333
F0.01
sI479
F0.06
sI480
F0.2
sI1506
F0.01
sI6886
F0.39
sI10088
F0.01
sI1516
F0.01
sI9326
F0.92
sI5108
F0.3
sI2197
F0.24
ssVB4KQ15_DROMO
p26
(dp27
I389
F0.01
sI7313
F0.01
sI9364
F0.35
sI2158
F0.01
sI534
F0.27
sI9500
F0.01
sI9374
F0.33
sI9375
F0.01
sI9379
F0.01
sI3011
F0.01
sI4816
F0.56
sI1745
F0.35
sI5333
F0.01
sI479
F0.11
sI480
F0.21
sI1506
F0.01
sI6886
F0.39
sI10088
F0.01
sI1516
F0.01
sI9326
F0.92
sI5108
F0.31
sI2197
F0.33
ssVB4P9R9_DROYA
p28
(dp29
I389
F0.01
sI7313
F0.01
sI9364
F0.41
sI2158
F0.01
sI534
F0.34
sI9500
F0.01
sI9374
F0.39
sI9375
F0.01
sI9379
F0.01
sI3011
F0.01
sI4816
F0.59
sI1745
F0.41
sI5333
F0.01
sI479
F0.19
sI480
F0.25
sI1506
F0.01
sI6886
F0.4
sI10088
F0.01
sI1516
F0.01
sI9326
F0.92
sI5108
F0.33
sI2197
F0.4
ssVD1ZZJ9_TRICA
p30
(dp31
I389
F0.01
sI7313
F0.01
sI9364
F0.26
sI2158
F0.01
sI534
F0.16
sI9500
F0.01
sI9374
F0.24
sI9375
F0.02
sI9379
F0.01
sI3011
F0.01
sI4816
F0.5
sI1745
F0.26
sI5333
F0.01
sI479
F0.07
sI480
F0.19
sI1506
F0.01
sI6886
F0.38
sI10088
F0.01
sI1516
F0.01
sI9326
F0.92
sI5108
F0.3
sI2197
F0.24
ssVTID_DROVI
p32
(dp33
I389
F0.01
sI7313
F0.01
sI9364
F0.49
sI2158
F0.01
sI534
F0.43
sI9500
F0.01
sI9374
F0.48
sI9375
F0.01
sI9379
F0.01
sI3011
F0.01
sI4816
F0.64
sI1745
F0.49
sI5333
F0.01
sI479
F0.26
sI480
F0.26
sI1506
F0.01
sI6886
F0.4
sI10088
F0.01
sI1516
F0.01
sI9326
F0.92
sI5108
F0.34
sI2197
F0.48
ssVQ7KVH7_DROME
p34
(dp35
I389
F0.01
sI7313
F0.01
sI9364
F0.75
sI2158
F0.01
sI534
F0.73
sI9500
F0.01
sI9374
F0.74
sI9375
F0.01
sI9379
F0.01
sI3011
F0.01
sI4816
F0.81
sI1745
F0.75
sI5333
F0.01
sI479
F0.51
sI480
F0.27
sI1506
F0.01
sI6886
F0.4
sI10088
F0.01
sI1516
F0.01
sI9326
F0.91
sI5108
F0.34
sI2197
F0.74
ssVB5E1J0_DROPS
p36
(dp37
I389
F0.01
sI7313
F0.01
sI9364
F0.41
sI2158
F0.01
sI534
F0.34
sI9500
F0.01
sI9374
F0.39
sI9375
F0.01
sI9379
F0.01
sI3011
F0.01
sI4816
F0.59
sI1745
F0.41
sI5333
F0.01
sI479
F0.2
sI480
F0.25
sI1506
F0.01
sI6886
F0.4
sI10088
F0.01
sI1516
F0.01
sI9326
F0.92
sI5108
F0.33
sI2197
F0.4
ssVB4MDV9_DROVI
p38
(dp39
I389
F0.01
sI7313
F0.01
sI9364
F0.49
sI2158
F0.01
sI534
F0.43
sI9500
F0.01
sI9374
F0.48
sI9375
F0.01
sI9379
F0.01
sI3011
F0.01
sI4816
F0.64
sI1745
F0.49
sI5333
F0.01
sI479
F0.26
sI480
F0.26
sI1506
F0.01
sI6886
F0.4
sI10088
F0.01
sI1516
F0.01
sI9326
F0.92
sI5108
F0.34
sI2197
F0.48
ssVH6VTQ4_BOMMO
p40
(dp41
I389
F0.01
sI7313
F0.01
sI9364
F0.39
sI2158
F0.01
sI534
F0.31
sI9500
F0.01
sI9374
F0.37
sI9375
F0.02
sI9379
F0.01
sI3011
F0.01
sI4816
F0.57
sI1745
F0.39
sI5333
F0.01
sI479
F0.25
sI480
F0.25
sI1506
F0.01
sI6886
F0.4
sI10088
F0.01
sI1516
F0.01
sI9326
F0.92
sI5108
F0.33
sI2197
F0.38
ssVB0WJM4_CULQU
p42
(dp43
I9326
F0.95
sI4816
F0.59
sI1745
F0.58
sI9364
F0.59
sI2197
F0.57
sI534
F0.54
sI9374
F0.57
sI479
F0.11
ssVB4J871_DROGR
p44
(dp45
I389
F0.01
sI7313
F0.01
sI9364
F0.35
sI2158
F0.01
sI534
F0.27
sI9500
F0.01
sI9374
F0.33
sI9375
F0.01
sI9379
F0.01
sI3011
F0.01
sI4816
F0.56
sI1745
F0.35
sI5333
F0.01
sI479
F0.11
sI480
F0.21
sI1506
F0.01
sI6886
F0.39
sI10088
F0.01
sI1516
F0.01
sI9326
F0.92
sI5108
F0.31
sI2197
F0.33
ssVB4NML0_DROWI
p46
(dp47
I389
F0.01
sI7313
F0.01
sI9364
F0.28
sI2158
F0.01
sI534
F0.18
sI9500
F0.01
sI9374
F0.26
sI9375
F0.01
sI9379
F0.01
sI3011
F0.01
sI4816
F0.51
sI1745
F0.28
sI5333
F0.01
sI479
F0.1
sI480
F0.21
sI1506
F0.01
sI6886
F0.39
sI10088
F0.01
sI1516
F0.01
sI9326
F0.92
sI5108
F0.31
sI2197
F0.26
ssVB3MFJ4_DROAN
p48
(dp49
I389
F0.01
sI7313
F0.01
sI9364
F0.35
sI2158
F0.01
sI534
F0.26
sI9500
F0.01
sI9374
F0.33
sI9375
F0.01
sI9379
F0.01
sI3011
F0.01
sI4816
F0.55
sI1745
F0.35
sI5333
F0.01
sI479
F0.1
sI480
F0.21
sI1506
F0.01
sI6886
F0.39
sI10088
F0.01
sI1516
F0.01
sI9326
F0.92
sI5108
F0.31
sI2197
F0.33
ssVQ7QJL2_ANOGA
p50
(dp51
I389
F0.01
sI7313
F0.01
sI9364
F0.39
sI2158
F0.01
sI534
F0.31
sI9500
F0.01
sI9374
F0.37
sI9375
F0.02
sI9379
F0.01
sI3011
F0.01
sI4816
F0.57
sI1745
F0.39
sI5333
F0.01
sI479
F0.11
sI480
F0.26
sI1506
F0.01
sI6886
F0.4
sI10088
F0.01
sI1516
F0.01
sI9326
F0.92
sI5108
F0.34
sI2197
F0.37
ssVB3NPR2_DROER
p52
(dp53
I389
F0.01
sI7313
F0.01
sI9364
F0.41
sI2158
F0.01
sI534
F0.34
sI9500
F0.01
sI9374
F0.39
sI9375
F0.01
sI9379
F0.01
sI3011
F0.01
sI4816
F0.59
sI1745
F0.41
sI5333
F0.01
sI479
F0.19
sI480
F0.25
sI1506
F0.01
sI6886
F0.4
sI10088
F0.01
sI1516
F0.01
sI9326
F0.92
sI5108
F0.33
sI2197
F0.4
ssVB4I8S2_DROSE
p54
(dp55
I480
F0.21
sI7010
F0.39
sI3012
F0.01
sI6886
F0.39
sI2065
F0.01
sI4809
F0.01
sI1994
F0.01
sI9375
F0.01
sI9326
F0.91
sI9871
F0.01
sI4816
F0.81
sI1745
F0.75
sI5617
F0.01
sI9364
F0.75
sI2197
F0.75
sI534
F0.73
sI5108
F0.31
sI1503
F0.01
sI9374
F0.75
sI479
F0.35
ssVE0VXY1_PEDHC
p56
(dp57
I389
F0.01
sI7313
F0.01
sI9364
F0.26
sI2158
F0.01
sI534
F0.16
sI9500
F0.01
sI9374
F0.24
sI9375
F0.01
sI9379
F0.01
sI3011
F0.01
sI4816
F0.5
sI1745
F0.26
sI5333
F0.01
sI479
F0.09
sI480
F0.19
sI1506
F0.01
sI6886
F0.38
sI10088
F0.01
sI1516
F0.01
sI9326
F0.92
sI5108
F0.3
sI2197
F0.24
ssVD2HQ81_AILME
p58
(dp59
I389
F0.01
sI7313
F0.01
sI9364
F0.32
sI2158
F0.01
sI534
F0.11
sI9500
F0.01
sI9374
F0.34
sI9375
F0.21
sI9379
F0.01
sI3011
F0.01
sI4816
F0.33
sI1745
F0.32
sI5333
F0.01
sI479
F0.1
sI480
F0.31
sI1506
F0.01
sI6886
F0.39
sI10088
F0.01
sI1516
F0.01
sI9326
F0.9
sI5108
F0.69
sI2197
F0.23
ssVD6W4V2_DROME
p60
(dp61
I389
F0.02
sI7313
F0.02
sI9364
F0.29
sI2158
F0.02
sI534
F0.19
sI9500
F0.02
sI9374
F0.27
sI9375
F0.02
sI9379
F0.02
sI3011
F0.02
sI4816
F0.5
sI1745
F0.29
sI5333
F0.02
sI479
F0.11
sI480
F0.33
sI1506
F0.02
sI6886
F0.41
sI10088
F0.02
sI1516
F0.02
sI9326
F0.92
sI5108
F0.37
sI2197
F0.27
ssa(dp62
g2
I103372
sg4
I13037
sg6
I7165
sg8
I7159
sg10
I6669
sg12
I9913
sg14
I7227
sg16
I7240
sg18
I13686
sg20
I7234
sg22
I610380
sg24
I104421
sg26
I7230
sg28
I7245
sg30
I7070
sg32
I7244
sg34
I7227
sg36
I46245
sg38
I7244
sg40
I7091
sg42
I7176
sg44
I7222
sg46
I7260
sg48
I7217
sg50
I7165
sg52
I7220
sg54
I7238
sg56
I121224
sg58
I9646
sg60
I7227
sa(dp63
g2
VF4WP97
p64
sg4
VG6DRS5
p65
sg6
VA7UR98
p66
sg8
VQ16R72
p67
sg10
VE9H747
p68
sg12
VA1A4J9
p69
sg14
VQ27237
p70
sg16
VB4QAY0
p71
sg18
VE9J573
p72
sg20
VB4GHT7
p73
sg22
VE2BN18
p74
sg24
VE2ADT8
p75
sg26
VB4KQ15
p76
sg28
VB4P9R9
p77
sg30
VD1ZZJ9
p78
sg32
VQ24331
p79
sg34
VQ7KVH7
p80
sg36
VB5E1J0
p81
sg38
VB4MDV9
p82
sg40
VH6VTQ4
p83
sg42
VB0WJM4
p84
sg44
VB4J871
p85
sg46
VB4NML0
p86
sg48
VB3MFJ4
p87
sg50
VQ7QJL2
p88
sg52
VB3NPR2
p89
sg54
VB4I8S2
p90
sg56
VE0VXY1
p91
sg58
VD2HQ81
p92
sg60
VD6W4V2
p93
sa(dp94
Vseq2
p95
(lp96
(lp97
VTID_DROME
p98
aF1076.23
aF0.0
aF100.0
aa(lp99
VTID_DROME
p100
aF1073.15
aF0.0
aF100.0
aa(lp101
VTID_DROME
p102
aF1063.52
aF0.0
aF99.0
aa(lp103
VTID_DROME
p104
aF1059.28
aF0.0
aF99.0
aa(lp105
VTID_DROME
p106
aF932.939
aF0.0
aF100.0
aa(lp107
VTID_DROME
p108
aF929.087
aF0.0
aF99.0
aa(lp109
VQ7KVH7_DROME
p110
aF860.136
aF0.0
aF99.0
aa(lp111
VD6W4V2_DROME
p112
aF855.129
aF0.0
aF99.0
aa(lp113
VB4QAY0_DROSI
p114
aF850.121
aF0.0
aF97.0
aa(lp115
VB4P9R9_DROYA
p116
aF845.114
aF0.0
aF96.0
aa(lp117
VB3NPR2_DROER
p118
aF837.025
aF0.0
aF95.0
aa(lp119
VB4I8S2_DROSE
p120
aF770.385
aF0.0
aF86.0
aa(lp121
VB3MFJ4_DROAN
p122
aF748.814
aF0.0
aF85.0
aa(lp123
VTID_DROVI
p124
aF717.998
aF0.0
aF72.0
aa(lp125
VB4GHT7_DROPE
p126
aF714.916
aF0.0
aF73.0
aa(lp127
VB5E1J0_DROPS
p128
aF712.22
aF0.0
aF73.0
aa(lp129
VB4J871_DROGR
p130
aF701.049
aF0.0
aF77.0
aa(lp131
VB4KQ15_DROMO
p132
aF699.508
aF0.0
aF75.0
aa(lp133
VB4NML0_DROWI
p134
aF696.041
aF0.0
aF78.0
aa(lp135
VB4MDV9_DROVI
p136
aF687.952
aF0.0
aF77.0
aa(lp137
VQ16R72_AEDAE
p138
aF615.92
aF0.0
aF73.0
aa(lp139
VE9J573_SOLIN
p140
aF565.844
aF0.0
aF63.0
aa(lp141
VE2ADT8_CAMFO
p142
aF560.451
aF0.0
aF61.0
aa(lp143
VE2BN18_HARSA
p144
aF555.058
aF0.0
aF65.0
aa(lp145
VF4WP97_ACREC
p146
aF553.518
aF0.0
aF65.0
aa(lp147
VA7UR98_ANOGA
p148
aF543.888
aF0.0
aF67.0
aa(lp149
VE9H747_DAPPU
p150
aF539.65
aF0.0
aF60.0
aa(lp151
VG6DRS5_DANPL
p152
aF540.421
aF0.0
aF61.0
aa(lp153
VQ7QJL2_ANOGA
p154
aF538.88
aF0.0
aF68.0
aa(lp155
VE0VXY1_PEDHC
p156
aF528.094
aF0.0
aF64.0
aa(lp157
VN6UCG7_9CUCU
p158
aF522.316
aF1.27921e-177
aF55.0
aa(lp159
VN6UFE3_9CUCU
p160
aF516.924
aF3.43018e-176
aF59.0
aa(lp161
VJ3JWQ6_9CUCU
p162
aF516.153
aF1.04018e-175
aF57.0
aa(lp163
VH6VTQ4_BOMMO
p164
aF518.079
aF1.23841e-175
aF65.0
aa(lp165
VD1ZZJ9_TRICA
p166
aF504.982
aF2.39579e-171
aF62.0
aa(lp167
VN6UCG2_9CUCU
p168
aF491.115
aF3.19795e-166
aF57.0
aa(lp169
VJ9K2H1_ACYPI
p170
aF481.485
aF3.14259e-162
aF58.0
aa(lp171
VB0WJM4_CULQU
p172
aF470.7
aF1.2492e-158
aF74.0
aa(lp173
VR7TPK9_9ANNE
p174
aF463.381
aF1.5125e-154
aF58.0
aa(lp175
VA1A4J9_BOVIN
p176
aF427.172
aF3.03845e-141
aF53.0
aa(lp177
VD2HQ81_AILME
p178
aF424.476
aF8.07222e-140
aF52.0
aasVseq1
p179
(lp180
(lp181
g98
aF1076.23
aF0.0
aF100.0
aa(lp182
g100
aF1073.15
aF0.0
aF100.0
aa(lp183
g102
aF1063.52
aF0.0
aF99.0
aa(lp184
g104
aF1059.28
aF0.0
aF99.0
aa(lp185
g106
aF932.939
aF0.0
aF100.0
aa(lp186
g108
aF929.087
aF0.0
aF99.0
aa(lp187
g110
aF860.136
aF0.0
aF99.0
aa(lp188
g112
aF855.129
aF0.0
aF99.0
aa(lp189
g114
aF850.121
aF0.0
aF97.0
aa(lp190
g116
aF845.114
aF0.0
aF96.0
aa(lp191
g118
aF837.025
aF0.0
aF95.0
aa(lp192
g120
aF770.385
aF0.0
aF86.0
aa(lp193
g122
aF748.814
aF0.0
aF85.0
aa(lp194
g124
aF717.998
aF0.0
aF72.0
aa(lp195
g126
aF714.916
aF0.0
aF73.0
aa(lp196
g128
aF712.22
aF0.0
aF73.0
aa(lp197
g130
aF701.049
aF0.0
aF77.0
aa(lp198
g132
aF699.508
aF0.0
aF75.0
aa(lp199
g134
aF696.041
aF0.0
aF78.0
aa(lp200
g136
aF687.952
aF0.0
aF77.0
aa(lp201
g138
aF615.92
aF0.0
aF73.0
aa(lp202
g140
aF565.844
aF0.0
aF63.0
aa(lp203
g142
aF560.451
aF0.0
aF61.0
aa(lp204
g144
aF555.058
aF0.0
aF65.0
aa(lp205
g146
aF553.518
aF0.0
aF65.0
aa(lp206
g148
aF543.888
aF0.0
aF67.0
aa(lp207
g150
aF539.65
aF0.0
aF60.0
aa(lp208
g152
aF540.421
aF0.0
aF61.0
aa(lp209
g154
aF538.88
aF0.0
aF68.0
aa(lp210
g156
aF528.094
aF0.0
aF64.0
aa(lp211
g158
aF522.316
aF1.27921e-177
aF55.0
aa(lp212
g160
aF516.924
aF3.43018e-176
aF59.0
aa(lp213
g162
aF516.153
aF1.04018e-175
aF57.0
aa(lp214
g164
aF518.079
aF1.23841e-175
aF65.0
aa(lp215
g166
aF504.982
aF2.39579e-171
aF62.0
aa(lp216
g168
aF491.115
aF3.19795e-166
aF57.0
aa(lp217
g170
aF481.485
aF3.14259e-162
aF58.0
aa(lp218
g172
aF470.7
aF1.2492e-158
aF74.0
aa(lp219
g174
aF463.381
aF1.5125e-154
aF58.0
aa(lp220
g176
aF427.172
aF3.03845e-141
aF53.0
aa(lp221
g178
aF424.476
aF8.07222e-140
aF52.0
aasaI1
a.