(lp0
(dp1
a(dp2
a(dp3
a(dp4
Vseq1
p5
(lp6
(lp7
c__builtin__
set
p8
((lp9
VTID_DROME
p10
atp11
Rp12
aF415.616
aF5.88331e-142
aF100.0
aa(lp13
g8
((lp14
VD3DN23_DROME
p15
atp16
Rp17
aF415.616
aF6.14531e-142
aF100.0
aa(lp18
g8
((lp19
VTID_DROME
p20
atp21
Rp22
aF415.616
aF6.28046e-142
aF100.0
aa(lp23
g8
((lp24
VQ7KVH7_DROME
p25
atp26
Rp27
aF416.387
aF2.08055e-141
aF100.0
aa(lp28
g8
((lp29
VD6W4V2_DROME
p30
atp31
Rp32
aF416.387
aF2.173e-141
aF100.0
aa(lp33
g8
((lp34
VTID_DROME
p35
atp36
Rp37
aF416.387
aF3.60667e-141
aF100.0
aa(lp38
g8
((lp39
VTID_DROME
p40
atp41
Rp42
aF416.387
aF3.60667e-141
aF100.0
aa(lp43
g8
((lp44
VT2GGE7_DROME
p45
atp46
Rp47
aF414.461
aF1.49195e-140
aF100.0
aa(lp48
g8
((lp49
VTID_DROME
p50
atp51
Rp52
aF414.075
aF2.29262e-140
aF100.0
aa(lp53
g8
((lp54
VTID_DROME
p55
atp56
Rp57
aF407.527
aF9.72575e-138
aF99.0
aa(lp58
g8
((lp59
VB4QAY0_DROSI
p60
atp61
Rp62
aF407.142
aF9.79174e-138
aF98.0
aa(lp63
g8
((lp64
VB4P9R9_DROYA
p65
atp66
Rp67
aF359.377
aF4.99808e-119
aF96.0
aa(lp68
g8
((lp69
VB3NPR2_DROER
p70
atp71
Rp72
aF353.599
aF8.26491e-117
aF96.0
aa(lp73
g8
((lp74
VB3MFJ4_DROAN
p75
atp76
Rp77
aF284.648
aF5.25707e-90
aF77.0
aa(lp78
g8
((lp79
VB4I8S2_DROSE
p80
atp81
Rp82
aF280.796
aF1.01741e-88
aF74.0
aa(lp83
g8
((lp84
VB4GHT7_DROPE
p85
atp86
Rp87
aF263.848
aF1.10639e-81
aF71.0
aa(lp88
g8
((lp89
VB5E1J0_DROPS
p90
atp91
Rp92
aF261.536
aF7.25526e-81
aF70.0
aa(lp93
g8
((lp94
VB4NML0_DROWI
p95
atp96
Rp97
aF258.07
aF1.16216e-79
aF69.0
aa(lp98
g8
((lp99
VB4MDV9_DROVI
p100
atp101
Rp102
aF243.432
aF4.82971e-74
aF65.0
aa(lp103
g8
((lp104
VTID_DROVI
p105
atp106
Rp107
aF242.662
aF1.47185e-73
aF65.0
aa(lp108
g8
((lp109
VB4J871_DROGR
p110
atp111
Rp112
aF241.121
aF3.18004e-73
aF67.0
aa(lp113
g8
((lp114
VB4KQ15_DROMO
p115
atp116
Rp117
aF236.113
aF3.51302e-71
aF63.0
aa(lp118
g8
((lp119
VT1PAG9_MUSDO
p120
atp121
Rp122
aF216.083
aF4.77897e-64
aF59.0
aa(lp123
g8
((lp124
VQ16R72_AEDAE
p125
atp126
Rp127
aF214.927
aF3.12209e-63
aF69.0
aa(lp128
g8
((lp129
VW5JTS9_ANODA
p130
atp131
Rp132
aF198.749
aF1.21672e-57
aF73.0
aa(lp133
g8
((lp134
VW5JHS9_ANODA
p135
atp136
Rp137
aF198.364
aF9.98111e-57
aF71.0
aa(lp138
g8
((lp139
VA7UR98_ANOGA
p140
atp141
Rp142
aF196.052
aF4.58981e-56
aF70.0
aa(lp143
g8
((lp144
VQ7QJL2_ANOGA
p145
atp146
Rp147
aF194.126
aF9.32801e-55
aF70.0
aa(lp148
g8
((lp149
VE2ADT8_CAMFO
p150
atp151
Rp152
aF186.808
aF1.94053e-52
aF51.0
aa(lp153
g8
((lp154
VH6VTQ4_BOMMO
p155
atp156
Rp157
aF186.422
aF3.2164e-52
aF62.0
aa(lp158
g8
((lp159
VA0A026WNX8_CERBI
p160
atp161
Rp162
aF182.956
aF6.39413e-51
aF59.0
aa(lp163
g8
((lp164
VE9J573_SOLIN
p165
atp166
Rp167
aF182.57
aF9.59712e-51
aF53.0
aa(lp168
g8
((lp169
VG6DRS5_DANPL
p170
atp171
Rp172
aF182.57
aF1.03347e-50
aF54.0
aa(lp173
g8
((lp174
VE2BN18_HARSA
p175
atp176
Rp177
aF180.259
aF2.98452e-50
aF59.0
aa(lp178
g8
((lp179
VF4WP97_ACREC
p180
atp181
Rp182
aF176.792
aF6.04822e-49
aF59.0
aa(lp183
g8
((lp184
VA0A067QSP8_ZOONE
p185
atp186
Rp187
aF174.096
aF1.29471e-47
aF65.0
aa(lp188
g8
((lp189
VA0A022T6E8_9HYME
p190
atp191
Rp192
aF174.096
aF1.4717e-47
aF54.0
aa(lp193
g8
((lp194
VE9H747_DAPPU
p195
atp196
Rp197
aF171.014
aF6.29563e-47
aF53.0
aa(lp198
g8
((lp199
VN6UCG7_DENPD
p200
atp201
Rp202
aF171.014
aF1.24025e-46
aF47.0
aa(lp203
g8
((lp204
VN6UCG2_DENPD
p205
atp206
Rp207
aF169.088
aF2.85634e-46
aF56.0
aa(lp208
g8
((lp209
VN6UFE3_DENPD
p210
atp211
Rp212
aF169.474
aF3.09243e-46
aF56.0
aa(lp213
g8
((lp214
VU4UDX6_DENPD
p215
atp216
Rp217
aF165.622
aF2.05689e-44
aF57.0
aa(lp218
g8
((lp219
VJ3JWQ6_DENPD
p220
atp221
Rp222
aF163.696
aF4.94128e-44
aF45.0
aa(lp223
g8
((lp224
VT1FMB7_HELRO
p225
atp226
Rp227
aF159.073
aF1.87135e-42
aF56.0
aa(lp228
g8
((lp229
VE0VXY1_PEDHC
p230
atp231
Rp232
aF156.762
aF1.16825e-41
aF58.0
aa(lp233
g8
((lp234
VD1ZZJ9_TRICA
p235
atp236
Rp237
aF151.754
aF9.49527e-40
aF49.0
aa(lp238
g8
((lp239
VJ9K2H1_ACYPI
p240
atp241
Rp242
aF150.214
aF3.97369e-39
aF56.0
aa(lp243
g8
((lp244
VL8HPQ8_9CETA
p245
atp246
Rp247
aF140.969
aF4.77573e-37
aF55.0
aa(lp248
g8
((lp249
VE5S8E0_TRISP
p250
atp251
Rp252
aF146.747
aF7.53288e-37
aF53.0
aa(lp253
g8
((lp254
VM3WGU5_FELCA
p255
atp256
Rp257
aF142.124
aF3.59147e-36
aF53.0
aa(lp258
g8
((lp259
VA1A4J9_BOVIN
p260
atp261
Rp262
aF141.739
aF4.28154e-36
aF54.0
aasaI1
a.