(lp0
(dp1
a(dp2
a(dp3
a(dp4
Vseq1
p5
(lp6
(lp7
c__builtin__
set
p8
((lp9
VTID_DROME
p10
atp11
Rp12
aF286.189
aF2.64505e-92
aF100.0
aa(lp13
g8
((lp14
VTID_DROME
p15
atp16
Rp17
aF286.189
aF2.7028e-92
aF100.0
aa(lp18
g8
((lp19
VD3DN23_DROME
p20
atp21
Rp22
aF285.804
aF3.34745e-92
aF100.0
aa(lp23
g8
((lp24
VTID_DROME
p25
atp26
Rp27
aF287.73
aF4.68716e-92
aF100.0
aa(lp28
g8
((lp29
VTID_DROME
p30
atp31
Rp32
aF287.73
aF4.68716e-92
aF100.0
aa(lp33
g8
((lp34
VD6W4V2_DROME
p35
atp36
Rp37
aF286.574
aF8.68685e-92
aF100.0
aa(lp38
g8
((lp39
VQ7KVH7_DROME
p40
atp41
Rp42
aF286.189
aF1.29347e-91
aF100.0
aa(lp43
g8
((lp44
VT2GGE7_DROME
p45
atp46
Rp47
aF286.189
aF1.41055e-91
aF99.0
aa(lp48
g8
((lp49
VTID_DROME
p50
atp51
Rp52
aF285.419
aF3.01617e-91
aF99.0
aa(lp53
g8
((lp54
VB4QAY0_DROSI
p55
atp56
Rp57
aF279.256
aF6.69919e-89
aF97.0
aa(lp58
g8
((lp59
VTID_DROME
p60
atp61
Rp62
aF279.256
aF7.79932e-89
aF99.0
aa(lp63
g8
((lp64
VB4P9R9_DROYA
p65
atp66
Rp67
aF273.092
aF1.63659e-86
aF95.0
aa(lp68
g8
((lp69
VB3NPR2_DROER
p70
atp71
Rp72
aF266.929
aF3.4404e-84
aF94.0
aa(lp73
g8
((lp74
VB4I8S2_DROSE
p75
atp76
Rp77
aF246.514
aF1.76864e-76
aF95.0
aa(lp78
g8
((lp79
VB3MFJ4_DROAN
p80
atp81
Rp82
aF197.978
aF9.48872e-58
aF68.0
aa(lp83
g8
((lp84
VB4GHT7_DROPE
p85
atp86
Rp87
aF181.415
aF2.48995e-51
aF63.0
aa(lp88
g8
((lp89
VB5E1J0_DROPS
p90
atp91
Rp92
aF179.104
aF2.05411e-50
aF62.0
aa(lp93
g8
((lp94
VB4NML0_DROWI
p95
atp96
Rp97
aF176.792
aF9.41702e-50
aF62.0
aa(lp98
g8
((lp99
VB4MDV9_DROVI
p100
atp101
Rp102
aF163.31
aF1.14193e-44
aF57.0
aa(lp103
g8
((lp104
VTID_DROVI
p105
atp106
Rp107
aF163.31
aF1.31832e-44
aF57.0
aa(lp108
g8
((lp109
VB4J871_DROGR
p110
atp111
Rp112
aF155.606
aF7.41523e-42
aF61.0
aa(lp113
g8
((lp114
VB4KQ15_DROMO
p115
atp116
Rp117
aF155.221
aF9.08944e-42
aF55.0
aa(lp118
g8
((lp119
VT1PAG9_MUSDO
p120
atp121
Rp122
aF149.828
aF4.32052e-40
aF81.0
aa(lp123
g8
((lp124
VA0A084VEZ2_9DIPT
p125
atp126
Rp127
aF144.821
aF4.49743e-38
aF77.0
aa(lp128
g8
((lp129
VQ16R72_AEDAE
p130
atp131
Rp132
aF141.354
aF7.64771e-37
aF76.0
aa(lp133
g8
((lp134
VW5JTS9_ANODA
p135
atp136
Rp137
aF135.961
aF5.35093e-35
aF76.0
aa(lp138
g8
((lp139
VA7UR98_ANOGA
p140
atp141
Rp142
aF135.961
aF6.40675e-35
aF71.0
aa(lp143
g8
((lp144
VW5JHS9_ANODA
p145
atp146
Rp147
aF135.576
aF1.17553e-34
aF73.0
aa(lp148
g8
((lp149
VQ7QJL2_ANOGA
p150
atp151
Rp152
aF135.191
aF2.12697e-34
aF71.0
aa(lp153
g8
((lp154
VE2ADT8_CAMFO
p155
atp156
Rp157
aF133.65
aF4.90102e-34
aF55.0
aa(lp158
g8
((lp159
VE2BN18_HARSA
p160
atp161
Rp162
aF132.109
aF1.44173e-33
aF71.0
aa(lp163
g8
((lp164
VA0A026WNX8_CERBI
p165
atp166
Rp167
aF132.109
aF2.08033e-33
aF71.0
aa(lp168
g8
((lp169
VF4WP97_ACREC
p170
atp171
Rp172
aF130.183
aF8.50751e-33
aF73.0
aa(lp173
g8
((lp174
VH6VTQ4_BOMMO
p175
atp176
Rp177
aF129.028
aF2.20517e-32
aF70.0
aa(lp178
g8
((lp179
VG6DRS5_DANPL
p180
atp181
Rp182
aF128.642
aF3.92676e-32
aF55.0
aa(lp183
g8
((lp184
VE9J573_SOLIN
p185
atp186
Rp187
aF128.257
aF4.99307e-32
aF56.0
aa(lp188
g8
((lp189
VA0A022T6E8_9HYME
p190
atp191
Rp192
aF122.479
aF5.99725e-30
aF64.0
aa(lp193
g8
((lp194
VA0A067QSP8_ZOONE
p195
atp196
Rp197
aF120.939
aF2.17707e-29
aF76.0
aa(lp198
g8
((lp199
VE9H747_DAPPU
p200
atp201
Rp202
aF118.627
aF9.48801e-29
aF55.0
aa(lp203
g8
((lp204
VE0VXY1_PEDHC
p205
atp206
Rp207
aF115.931
aF8.73546e-28
aF62.0
aa(lp208
g8
((lp209
VM3WGU5_FELCA
p210
atp211
Rp212
aF115.546
aF1.24353e-27
aF62.0
aa(lp213
g8
((lp214
VT1FMB7_HELRO
p215
atp216
Rp217
aF114.775
aF2.28458e-27
aF62.0
aa(lp218
g8
((lp219
VL8HPQ8_9CETA
p220
atp221
Rp222
aF112.464
aF4.02457e-27
aF63.0
aa(lp223
g8
((lp224
VE9BW88_CAPO3
p225
atp226
Rp227
aF114.775
aF4.24597e-27
aF67.0
aa(lp228
g8
((lp229
VM0SAK9_MUSAM
p230
atp231
Rp232
aF112.849
aF9.98802e-27
aF50.0
aa(lp233
g8
((lp234
VA1A4J9_BOVIN
p235
atp236
Rp237
aF112.464
aF1.17838e-26
aF60.0
aa(lp238
g8
((lp239
VD7T2W9_VITVI
p240
atp241
Rp242
aF112.464
aF1.31202e-26
aF55.0
aasaI1
a.