(dp0
VI1FF21_AMPQE
p1
(dp2
I3200
F0.18
sI3206
F0.31
sI2055
F0.42
sI3094
F0.18
sI4887
F0.78
sI3101
F0.31
sI1822
F0.78
sI3243
F0.77
sI2351
F0.78
sI4913
F0.78
sI4914
F0.78
sI2356
F0.78
sI7610
F0.78
sI10427
F0.18
sI3140
F0.77
sI10186
F0.31
sI474
F0.78
sI3164
F0.18
sI3165
F0.18
sI3295
F0.18
sI3297
F0.77
sI1892
F0.42
sI3048
F0.78
sI4853
F0.77
sI1910
F0.78
sI10232
F0.77
ssVA8WRK7_CAEBR
p3
(dp4
I3200
F0.17
sI3206
F0.21
sI2055
F0.34
sI3094
F0.18
sI4887
F0.78
sI3101
F0.21
sI1822
F0.78
sI3243
F0.78
sI2351
F0.78
sI4913
F0.78
sI4914
F0.78
sI2356
F0.78
sI7610
F0.78
sI10427
F0.18
sI3140
F0.78
sI10186
F0.21
sI474
F0.78
sI3164
F0.17
sI3165
F0.17
sI3295
F0.18
sI3297
F0.78
sI1892
F0.34
sI3048
F0.78
sI4853
F0.78
sI1910
F0.78
sI10232
F0.78
ss.