(lp0
(dp1
a(dp2
a(dp3
a(dp4
Vseq1
p5
(lp6
(lp7
c__builtin__
set
p8
((lp9
VTID_DROME
p10
atp11
Rp12
aF444.506
aF5.71017e-153
aF100.0
aa(lp13
g8
((lp14
VD3DN23_DROME
p15
atp16
Rp17
aF444.121
aF6.64329e-153
aF100.0
aa(lp18
g8
((lp19
VTID_DROME
p20
atp21
Rp22
aF444.121
aF7.25716e-153
aF100.0
aa(lp23
g8
((lp24
VQ7KVH7_DROME
p25
atp26
Rp27
aF445.662
aF1.09476e-152
aF100.0
aa(lp28
g8
((lp29
VD6W4V2_DROME
p30
atp31
Rp32
aF445.277
aF1.53398e-152
aF100.0
aa(lp33
g8
((lp34
VTID_DROME
p35
atp36
Rp37
aF445.277
aF2.65664e-152
aF100.0
aa(lp38
g8
((lp39
VTID_DROME
p40
atp41
Rp42
aF445.277
aF2.65664e-152
aF100.0
aa(lp43
g8
((lp44
VT2GGE7_DROME
p45
atp46
Rp47
aF443.351
aF1.18278e-151
aF100.0
aa(lp48
g8
((lp49
VTID_DROME
p50
atp51
Rp52
aF442.965
aF2.10075e-151
aF100.0
aa(lp53
g8
((lp54
VTID_DROME
p55
atp56
Rp57
aF436.417
aF6.99163e-149
aF99.0
aa(lp58
g8
((lp59
VB4QAY0_DROSI
p60
atp61
Rp62
aF435.647
aF8.66567e-149
aF98.0
aa(lp63
g8
((lp64
VB4P9R9_DROYA
p65
atp66
Rp67
aF431.409
aF5.457e-147
aF96.0
aa(lp68
g8
((lp69
VB3NPR2_DROER
p70
atp71
Rp72
aF427.557
aF1.86825e-145
aF96.0
aa(lp73
g8
((lp74
VB3MFJ4_DROAN
p75
atp76
Rp77
aF311.612
aF2.70903e-100
aF78.0
aa(lp78
g8
((lp79
VB4I8S2_DROSE
p80
atp81
Rp82
aF309.686
aF1.09558e-99
aF75.0
aa(lp83
g8
((lp84
VB4GHT7_DROPE
p85
atp86
Rp87
aF292.738
aF1.12444e-92
aF72.0
aa(lp88
g8
((lp89
VB5E1J0_DROPS
p90
atp91
Rp92
aF290.426
aF9.83773e-92
aF72.0
aa(lp93
g8
((lp94
VB4NML0_DROWI
p95
atp96
Rp97
aF285.034
aF5.77522e-90
aF70.0
aa(lp98
g8
((lp99
VB4MDV9_DROVI
p100
atp101
Rp102
aF270.781
aF3.23846e-84
aF66.0
aa(lp103
g8
((lp104
VTID_DROVI
p105
atp106
Rp107
aF269.626
aF1.08656e-83
aF66.0
aa(lp108
g8
((lp109
VB4J871_DROGR
p110
atp111
Rp112
aF266.929
aF6.27649e-83
aF68.0
aa(lp113
g8
((lp114
VB4KQ15_DROMO
p115
atp116
Rp117
aF263.462
aF1.85868e-81
aF66.0
aa(lp118
g8
((lp119
VA0A084VEZ2_9DIPT
p120
atp121
Rp122
aF250.366
aF8.55029e-77
aF75.0
aa(lp123
g8
((lp124
VT1PAG9_MUSDO
p125
atp126
Rp127
aF241.506
aF1.03544e-73
aF61.0
aa(lp128
g8
((lp129
VQ16R72_AEDAE
p130
atp131
Rp132
aF238.81
aF2.76506e-72
aF70.0
aa(lp133
g8
((lp134
VW5JTS9_ANODA
p135
atp136
Rp137
aF223.402
aF5.19209e-67
aF74.0
aa(lp138
g8
((lp139
VW5JHS9_ANODA
p140
atp141
Rp142
aF223.016
aF7.41119e-66
aF72.0
aa(lp143
g8
((lp144
VA7UR98_ANOGA
p145
atp146
Rp147
aF219.55
aF7.66825e-65
aF71.0
aa(lp148
g8
((lp149
VQ7QJL2_ANOGA
p150
atp151
Rp152
aF217.624
aF1.99187e-63
aF71.0
aa(lp153
g8
((lp154
VE2ADT8_CAMFO
p155
atp156
Rp157
aF210.305
aF4.60809e-61
aF52.0
aa(lp158
g8
((lp159
VA0A026WNX8_CERBI
p160
atp161
Rp162
aF206.453
aF1.60445e-59
aF60.0
aa(lp163
g8
((lp164
VE9J573_SOLIN
p165
atp166
Rp167
aF206.453
aF1.94091e-59
aF54.0
aa(lp168
g8
((lp169
VE2BN18_HARSA
p170
atp171
Rp172
aF204.142
aF5.14377e-59
aF60.0
aa(lp173
g8
((lp174
VH6VTQ4_BOMMO
p175
atp176
Rp177
aF204.142
aF1.31169e-58
aF61.0
aa(lp178
g8
((lp179
VF4WP97_ACREC
p180
atp181
Rp182
aF200.29
aF1.18082e-57
aF60.0
aa(lp183
g8
((lp184
VG6DRS5_DANPL
p185
atp186
Rp187
aF200.675
aF3.04558e-57
aF53.0
aa(lp188
g8
((lp189
VA0A022T6E8_9HYME
p190
atp191
Rp192
aF198.749
aF1.56606e-56
aF56.0
aa(lp193
g8
((lp194
VE9H747_DAPPU
p195
atp196
Rp197
aF194.512
aF1.74186e-55
aF55.0
aa(lp198
g8
((lp199
VA0A067QSP8_ZOONE
p200
atp201
Rp202
aF195.282
aF2.68836e-55
aF65.0
aa(lp203
g8
((lp204
VN6UCG7_DENPD
p205
atp206
Rp207
aF189.889
aF2.13961e-53
aF48.0
aa(lp208
g8
((lp209
VN6UCG2_DENPD
p210
atp211
Rp212
aF185.267
aF3.82567e-52
aF56.0
aa(lp213
g8
((lp214
VN6UFE3_DENPD
p215
atp216
Rp217
aF185.267
aF4.62828e-52
aF56.0
aa(lp218
g8
((lp219
VJ3JWQ6_DENPD
p220
atp221
Rp222
aF182.185
aF9.58054e-51
aF46.0
aa(lp223
g8
((lp224
VT1FMB7_HELRO
p225
atp226
Rp227
aF181.8
aF1.23733e-50
aF57.0
aa(lp228
g8
((lp229
VE0VXY1_PEDHC
p230
atp231
Rp232
aF174.866
aF3.49276e-48
aF57.0
aa(lp233
g8
((lp234
VJ9K2H1_ACYPI
p235
atp236
Rp237
aF171.014
aF1.1309e-46
aF58.0
aa(lp238
g8
((lp239
VD1ZZJ9_TRICA
p240
atp241
Rp242
aF171.014
aF1.55931e-46
aF50.0
aa(lp243
g8
((lp244
VU4UDX6_DENPD
p245
atp246
Rp247
aF168.703
aF2.18937e-45
aF56.0
aa(lp248
g8
((lp249
VL8HPQ8_9CETA
p250
atp251
Rp252
aF162.155
aF6.24609e-45
aF55.0
aa(lp253
g8
((lp254
VA1A4J9_BOVIN
p255
atp256
Rp257
aF162.925
aF1.00808e-43
aF54.0
aa(lp258
g8
((lp259
VA0A087SZ58_9ARAC
p260
atp261
Rp262
aF162.54
aF1.36622e-43
aF57.0
aa(lp263
g8
((lp264
VM3WGU5_FELCA
p265
atp266
Rp267
aF161.384
aF5.61551e-43
aF53.0
aa(lp268
g8
((lp269
VE5S8E0_TRISP
p270
atp271
Rp272
aF163.31
aF1.35396e-42
aF53.0
aa(lp273
g8
((lp274
VL5M8L6_MYODS
p275
atp276
Rp277
aF159.844
aF1.7389e-42
aF52.0
aa(lp278
g8
((lp279
VC3XW76_BRAFL
p280
atp281
Rp282
aF160.229
aF1.87889e-42
aF61.0
aa(lp283
g8
((lp284
VJ9P8P4_CANFA
p285
atp286
Rp287
aF159.458
aF2.14258e-42
aF53.0
aasaI1
a.