(lp0
(dp1
VA4IIQ0_XENTR
p2
(dp3
I3200
F0.04
sI3297
F0.04
sI3165
F0.04
sI3094
F0.09
sI3101
F0.81
sI3295
F0.48
ssVF1Q4Y9_DANRE
p4
(dp5
I3200
F0.18
sI3297
F0.18
sI3165
F0.18
sI3094
F0.22
sI3101
F0.48
sI3295
F0.77
ssVA8WRK7_CAEBR
p6
(dp7
I3200
F0.18
sI3297
F0.82
sI3165
F0.18
sI3094
F0.19
sI3101
F0.22
sI3295
F0.18
ssVE1FKB9_LOALO
p8
(dp9
I3200
F0.18
sI3297
F0.82
sI3165
F0.18
sI3094
F0.18
sI3101
F0.21
sI3295
F0.18
ssVH9J2D0_BOMMO
p10
(dp11
I3200
F0.1
sI3297
F0.82
sI3165
F0.1
sI3094
F0.1
sI3101
F0.21
sI3295
F0.1
ssVG0MHZ3_CAEBE
p12
(dp13
I3200
F0.18
sI3297
F0.82
sI3165
F0.18
sI3094
F0.19
sI3101
F0.22
sI3295
F0.18
ssVC3Y4T6_BRAFL
p14
(dp15
I3200
F0.1
sI3297
F0.81
sI3165
F0.1
sI3094
F0.1
sI3101
F0.19
sI3295
F0.1
ssVQ93550_CAEEL
p16
(dp17
I3200
F0.18
sI3297
F0.82
sI3165
F0.18
sI3094
F0.18
sI3101
F0.22
sI3295
F0.18
ssVG5BQA6_HETGA
p18
(dp19
I3200
F0.01
sI3297
F0.01
sI3165
F0.01
sI3094
F0.16
sI3101
F0.82
sI3295
F0.01
ssVQ5FX75_CANFA
p20
(dp21
I3200
F0.01
sI3297
F0.01
sI3165
F0.01
sI3094
F0.1
sI3101
F0.83
sI3295
F0.01
ssVG1SCG0_RABIT
p22
(dp23
I3200
F0.01
sI3297
F0.01
sI3165
F0.01
sI3094
F0.11
sI3101
F0.83
sI3295
F0.01
ssVE1C5S3_CHICK
p24
(dp25
I3200
F0.03
sI3297
F0.03
sI3165
F0.03
sI3094
F0.1
sI3101
F0.8
sI3295
F0.44
ssVE5SJD8_TRISP
p26
(dp27
I3200
F0.15
sI3297
F0.81
sI3165
F0.15
sI3094
F0.16
sI3101
F0.19
sI3295
F0.15
ssVA4IG10_DANRE
p28
(dp29
I3200
F0.31
sI3297
F0.31
sI3165
F0.31
sI3094
F0.34
sI3101
F0.53
sI3295
F0.77
ssVA8PR64_BRUMA
p30
(dp31
I3200
F0.18
sI3297
F0.82
sI3165
F0.18
sI3094
F0.19
sI3101
F0.22
sI3295
F0.18
ssVE5SJE0_TRISP
p32
(dp33
I3200
F0.18
sI3297
F0.81
sI3165
F0.18
sI3094
F0.19
sI3101
F0.22
sI3295
F0.19
ssVE3MMF1_CAERE
p34
(dp35
I3200
F0.18
sI3297
F0.82
sI3165
F0.18
sI3094
F0.19
sI3101
F0.22
sI3295
F0.18
ssa(dp36
g2
I8364
sg4
I7955
sg6
I6238
sg8
I7209
sg10
I7091
sg14
I7739
sg12
I135651
sg30
I6279
sg20
I9615
sg16
I6239
sg18
I10181
sg22
I9986
sg24
I9031
sg26
I6334
sg28
I7955
sg32
I6334
sg34
I31234
sa(dp37
g2
VA4IIQ0
p38
sg4
VF1Q4Y9
p39
sg6
VA8WRK7
p40
sg8
VE1FKB9
p41
sg10
VH9J2D0
p42
sg14
VC3Y4T6
p43
sg12
VG0MHZ3
p44
sg30
VA8PR64
p45
sg20
VQ5FX75
p46
sg16
VQ93550
p47
sg18
VG5BQA6
p48
sg22
VG1SCG0
p49
sg24
VE1C5S3
p50
sg26
VE5SJD8
p51
sg28
VA4IG10
p52
sg32
VE5SJE0
p53
sg34
VE3MMF1
p54
sa(dp55
Vtr|A8WRK7|A8WRK7_CAEBR Protein CBG01917 OS=Caenorhabditis briggsae GN=CBG01917 PE=4 SV=2
p56
(lp57
(lp58
VA8WRK7_CAEBR
p59
aF1351.27
aF0.0
aF100.0
aa(lp60
VE3MMF1_CAERE
p61
aF1258.82
aF0.0
aF95.0
aa(lp62
VG0MHZ3_CAEBE
p63
aF1237.25
aF0.0
aF93.0
aa(lp64
VQ93550_CAEEL
p65
aF1230.7
aF0.0
aF92.0
aa(lp66
VU1NEN2_ASCSU
p67
aF639.417
aF0.0
aF48.0
aa(lp68
VE1FKB9_LOALO
p69
aF561.607
aF0.0
aF45.0
aa(lp70
VA8PR64_BRUMA
p71
aF538.495
aF2.44362e-180
aF45.0
aa(lp72
VA0A085NB77_9BILA
p73
aF514.227
aF2.34112e-170
aF42.0
aa(lp74
VA0A077Z7T9_TRITR
p75
aF509.99
aF2.64931e-169
aF43.0
aa(lp76
VA0A085M4W4_9BILA
p77
aF503.442
aF5.5189e-166
aF41.0
aa(lp78
VE5SJE0_TRISP
p79
aF394.43
aF6.0503e-125
aF40.0
aa(lp80
VE5SJD8_TRISP
p81
aF366.311
aF6.41088e-114
aF47.0
aa(lp82
VJ9ERJ5_WUCBA
p83
aF278.87
aF2.5865e-84
aF46.0
aa(lp84
VW5LQU9_ASTMX
p85
aF283.878
aF3.5286e-82
aF30.0
aa(lp86
VC3Y4T6_BRAFL
p87
aF274.248
aF3.23264e-79
aF29.0
aa(lp88
VA4IIQ0_XENTR
p89
aF267.7
aF4.48859e-76
aF28.0
aa(lp90
VV4B437_LOTGI
p91
aF261.536
aF4.25837e-74
aF28.0
aa(lp92
VA0A087UEH9_9ARAC
p93
aF262.307
aF7.95815e-74
aF30.0
aa(lp94
VE1C5S3_CHICK
p95
aF260.766
aF1.97033e-73
aF28.0
aa(lp96
VA4IG10_DANRE
p97
aF259.996
aF3.68791e-73
aF29.0
aa(lp98
VF1Q4Y9_DANRE
p99
aF259.61
aF7.13331e-73
aF29.0
aa(lp100
VA0A087UEH7_9ARAC
p101
aF258.84
aF1.58417e-72
aF28.0
aa(lp102
VA0A087QI52_APTFO
p103
aF255.373
aF2.24657e-72
aF28.0
aa(lp104
VA0A087VCT5_BALPA
p105
aF254.603
aF4.47571e-72
aF29.0
aa(lp106
VA0A060XGS1_ONCMY
p107
aF255.758
aF6.61617e-72
aF29.0
aa(lp108
VW5MY22_LEPOC
p109
aF256.144
aF1.32932e-71
aF29.0
aa(lp110
VG1SCG0_RABIT
p111
aF253.447
aF6.64989e-71
aF29.0
aa(lp112
VQ5FX75_CANFA
p113
aF251.906
aF2.18786e-70
aF29.0
aa(lp114
VH9J2D0_BOMMO
p115
aF256.144
aF5.04227e-70
aF27.0
aa(lp116
VG5BQA6_HETGA
p117
aF245.743
aF2.34184e-68
aF29.0
aasaI1
a.